 gen_src

 Timestamp is 66368a92 (Sat May  4 15:20:50 2024)

 Preferred load address is 0000000140000000

 Start         Length     Name                   Class
 0001:00000000 000fd130H .text$mn                CODE
 0001:000fd130 00000040H .text$mn$00             CODE
 0001:000fd170 00000b40H .text$mn$21             CODE
 0001:000fdcb0 00000f6dH .text$x                 CODE
 0002:00000000 00000300H .idata$5                DATA
 0002:00000300 00000038H .00cfg                  DATA
 0002:00000338 00000008H .CRT$XCA                DATA
 0002:00000340 00000008H .CRT$XCAA               DATA
 0002:00000348 00000008H .CRT$XCZ                DATA
 0002:00000350 00000008H .CRT$XIA                DATA
 0002:00000358 00000008H .CRT$XIAA               DATA
 0002:00000360 00000008H .CRT$XIAC               DATA
 0002:00000368 00000020H .CRT$XIC                DATA
 0002:00000388 00000008H .CRT$XIZ                DATA
 0002:00000390 00000008H .CRT$XLA                DATA
 0002:00000398 00000008H .CRT$XLZ                DATA
 0002:000003a0 00000008H .CRT$XPA                DATA
 0002:000003a8 00000010H .CRT$XPX                DATA
 0002:000003b8 00000008H .CRT$XPXA               DATA
 0002:000003c0 00000008H .CRT$XPZ                DATA
 0002:000003c8 00000008H .CRT$XTA                DATA
 0002:000003d0 00000010H .CRT$XTZ                DATA
 0002:000003d8 00000000H .gehcont$y              DATA
 0002:000003d8 00000000H .gfids$y                DATA
 0002:000003e0 00038640H .rdata                  DATA
 0002:00038a20 00000160H .rdata$00               DATA
 0002:00038b80 00000080H .rdata$CastGuardVftablesA DATA
 0002:00038c00 00000080H .rdata$CastGuardVftablesC DATA
 0002:00038c80 00000028H .rdata$T                DATA
 0002:00038ca8 00000464H .rdata$r                DATA
 0002:0003910c 00000678H .rdata$voltmd           DATA
 0002:00039784 0000047cH .rdata$zzzdbg           DATA
 0002:00039c00 00000008H .rtc$IAA                DATA
 0002:00039c08 00000008H .rtc$IZZ                DATA
 0002:00039c10 00000008H .rtc$TAA                DATA
 0002:00039c18 00000008H .rtc$TZZ                DATA
 0002:00039c20 00000010H .tls                    DATA
 0002:00039c30 03980010H .tls$                   DATA
 0002:039b9c40 00000008H .tls$ZZZ                DATA
 0002:039b9c48 00008838H .xdata                  DATA
 0002:039c2480 00000084H .xdata$x                DATA
 0002:039c2504 00000000H .edata                  DATA
 0002:039c2504 00000014H .idata$2                DATA
 0002:039c2518 00000018H .idata$3                DATA
 0002:039c2530 00000300H .idata$4                DATA
 0002:039c2830 000006e8H .idata$6                DATA
 0003:00000000 00001a40H .data                   DATA
 0003:00001a40 00000078H .data$r                 DATA
 0003:00001ab8 000000f8H .data$rs                DATA
 0003:00001bb0 000444d0H .bss                    DATA
 0004:00000000 0000a878H .pdata                  DATA
 0005:00000000 000001f4H _RDATA                  DATA

  Address         Publics by Value              Rva+Base               Lib:Object

 0000:00000000       __AbsoluteZero             0000000000000000     <absolute>
 0000:00000000       ___safe_se_handler_count   0000000000000000     <absolute>
 0000:00000000       ___safe_se_handler_table   0000000000000000     <absolute>
 0000:00000000       __arm64x_extra_rfe_table   0000000000000000     <absolute>
 0000:00000000       __arm64x_extra_rfe_table_size 0000000000000000     <absolute>
 0000:00000000       __arm64x_native_entrypoint 0000000000000000     <absolute>
 0000:00000000       __arm64x_redirection_metadata 0000000000000000     <absolute>
 0000:00000000       __arm64x_redirection_metadata_count 0000000000000000     <absolute>
 0000:00000000       __dynamic_value_reloc_table 0000000000000000     <absolute>
 0000:00000000       __enclave_config           0000000000000000     <absolute>
 0000:00000000       __guard_check_icall_a64n_fptr 0000000000000000     <absolute>
 0000:00000000       __guard_eh_cont_count      0000000000000000     <absolute>
 0000:00000000       __guard_eh_cont_table      0000000000000000     <absolute>
 0000:00000000       __guard_fids_count         0000000000000000     <absolute>
 0000:00000000       __guard_fids_table         0000000000000000     <absolute>
 0000:00000000       __guard_iat_count          0000000000000000     <absolute>
 0000:00000000       __guard_iat_table          0000000000000000     <absolute>
 0000:00000000       __guard_longjmp_count      0000000000000000     <absolute>
 0000:00000000       __guard_longjmp_table      0000000000000000     <absolute>
 0000:00000000       __hybrid_auxiliary_delayload_iat 0000000000000000     <absolute>
 0000:00000000       __hybrid_auxiliary_delayload_iat_copy 0000000000000000     <absolute>
 0000:00000000       __hybrid_auxiliary_iat     0000000000000000     <absolute>
 0000:00000000       __hybrid_auxiliary_iat_copy 0000000000000000     <absolute>
 0000:00000000       __hybrid_code_map          0000000000000000     <absolute>
 0000:00000000       __hybrid_code_map_count    0000000000000000     <absolute>
 0000:00000000       __hybrid_image_info_bitfield 0000000000000000     <absolute>
 0000:00000000       __x64_code_ranges_to_entry_points 0000000000000000     <absolute>
 0000:00000000       __x64_code_ranges_to_entry_points_count 0000000000000000     <absolute>
 0000:00000100       __guard_flags              0000000000000100     <absolute>
 0000:00000000       __ImageBase                0000000140000000     <linker-defined>
 0001:00000000       ?assert_handler@gen@@YAXPEBD0H0ZZ 0000000140001000 f   gen_src.obj
 0001:000000d0       ?assert_crash@gen@@YAHPEBD@Z 00000001400010d0 f   gen_src.obj
 0001:00000120       ?process_exit@gen@@YAXI@Z  0000000140001120 f   gen_src.obj
 0001:000002b0       ?mem_copy@gen@@YAPEAXPEAXPEBX_J@Z 00000001400012b0 f   gen_src.obj
 0001:000002f0       ?mem_find@gen@@YAPEBXPEBXE_J@Z 00000001400012f0 f   gen_src.obj
 0001:00000cc0       ?heap_stats_init@gen@@YAXXZ 0000000140001cc0 f   gen_src.obj
 0001:00000cf0       ?heap_stats_used_memory@gen@@YA_JXZ 0000000140001cf0 f   gen_src.obj
 0001:00000d40       ?heap_stats_alloc_count@gen@@YA_JXZ 0000000140001d40 f   gen_src.obj
 0001:00000d90       ?heap_stats_check@gen@@YAXXZ 0000000140001d90 f   gen_src.obj
 0001:00000fd0       ?heap_allocator_proc@gen@@YAPEAXPEAXW4AllocType@1@_J202_K@Z 0000000140001fd0 f   gen_src.obj
 0001:00001120       ?vm_from_memory@gen@@YA?AUVirtualMemory@1@PEAX_J@Z 0000000140002120 f   gen_src.obj
 0001:00001170       ?vm_alloc@gen@@YA?AUVirtualMemory@1@PEAX_J@Z 0000000140002170 f   gen_src.obj
 0001:00001210       ?vm_free@gen@@YAHUVirtualMemory@1@@Z 0000000140002210 f   gen_src.obj
 0001:00001300       ?vm_trim@gen@@YA?AUVirtualMemory@1@U21@_J1@Z 0000000140002300 f   gen_src.obj
 0001:00001480       ?allocator_proc@Arena@gen@@SAPEAXPEAXW4AllocType@2@_J202_K@Z 0000000140002480 f   gen_src.obj
 0001:00001690       ?allocator_proc@Pool@gen@@SAPEAXPEAXW4AllocType@2@_J202_K@Z 0000000140002690 f   gen_src.obj
 0001:00001970       ?init_align@Pool@gen@@SA?AU12@UAllocatorInfo@2@_J11@Z 0000000140002970 f   gen_src.obj
 0001:00001b20       ?clear@Pool@gen@@QEAAXXZ   0000000140002b20 f   gen_src.obj
 0001:00002370       ?str_to_i64@gen@@YA_JPEBDPEAPEADH@Z 0000000140003370 f   gen_src.obj
 0001:00002410       ?i64_to_str@gen@@YAX_JPEADH@Z 0000000140003410 f   gen_src.obj
 0001:00002520       ?u64_to_str@gen@@YAX_KPEADH@Z 0000000140003520 f   gen_src.obj
 0001:000025e0       ?str_to_f64@gen@@YANPEBDPEAPEAD@Z 00000001400035e0 f   gen_src.obj
 0001:000028f0       ?str_fmt_buf@gen@@YAPEADPEBDZZ 00000001400038f0 f   gen_src.obj
 0001:00002940       ?str_fmt_buf_va@gen@@YAPEADPEBDPEAD@Z 0000000140003940 f   gen_src.obj
 0001:000029b0       ?str_fmt@gen@@YA_JPEAD_JPEBDZZ 00000001400039b0 f   gen_src.obj
 0001:00002a10       ?str_fmt_va@gen@@YA_JPEAD_JPEBD0@Z 0000000140003a10 f   gen_src.obj
 0001:00003c50       ?str_fmt_out_va@gen@@YA_JPEBDPEAD@Z 0000000140004c50 f   gen_src.obj
 0001:00003c90       ?str_fmt_out_err@gen@@YA_JPEBDZZ 0000000140004c90 f   gen_src.obj
 0001:00003ce0       ?str_fmt_out_err_va@gen@@YA_JPEBDPEAD@Z 0000000140004ce0 f   gen_src.obj
 0001:00003d20       ?str_fmt_file@gen@@YA_JPEAUFileInfo@1@PEBDZZ 0000000140004d20 f   gen_src.obj
 0001:00003d80       ?str_fmt_file_va@gen@@YA_JPEAUFileInfo@1@PEBDPEAD@Z 0000000140004d80 f   gen_src.obj
 0001:00003e30       ?crc32@gen@@YAIPEBX_J@Z    0000000140004e30 f   gen_src.obj
 0001:00003ed0       ?crc64@gen@@YA_KPEBX_J@Z   0000000140004ed0 f   gen_src.obj
 0001:00003f70       ?to_str@gen@@YA?AUStrC@1@PEBD@Z 0000000140004f70 f   gen_src.obj
 0001:00003fc0       ?make_reserve@String@gen@@SA?AU12@UAllocatorInfo@2@_J@Z 0000000140004fc0 f   gen_src.obj
 0001:000040c0       ?make_length@String@gen@@SA?AU12@UAllocatorInfo@2@PEBD_J@Z 00000001400050c0 f   gen_src.obj
 0001:00004250       ?fmt@String@gen@@SA?AU12@UAllocatorInfo@2@PEAD_JPEBDZZ 0000000140005250 f   gen_src.obj
 0001:000042e0       ?fmt_buf@String@gen@@SA?AU12@UAllocatorInfo@2@PEBDZZ 00000001400052e0 f   gen_src.obj
 0001:00004390       ?make_space_for@String@gen@@QEAA_NPEBD_J@Z 0000000140005390 f   gen_src.obj
 0001:00004510       ?append_fmt@String@gen@@QEAA_NPEBDZZ 0000000140005510 f   gen_src.obj
 0001:000045d0       ?file_get_standard@gen@@YAPEAUFileInfo@1@W4FileStandardType@1@@Z 00000001400055d0 f   gen_src.obj
 0001:000046f0       ?file_close@gen@@YA?AW4FileError@1@PEAUFileInfo@1@@Z 00000001400056f0 f   gen_src.obj
 0001:000047e0       ?file_open@gen@@YA?AW4FileError@1@PEAUFileInfo@1@PEBD@Z 00000001400057e0 f   gen_src.obj
 0001:00004810       ?file_open_mode@gen@@YA?AW4FileError@1@PEAUFileInfo@1@IPEBD@Z 0000000140005810 f   gen_src.obj
 0001:00004a00       ?file_read_contents@gen@@YA?AUFileContents@1@UAllocatorInfo@1@HPEBD@Z 0000000140005a00 f   gen_src.obj
 0001:00004b40       ?file_size@gen@@YA_JPEAUFileInfo@1@@Z 0000000140005b40 f   gen_src.obj
 0001:00004e40       ?file_stream_new@gen@@YACPEAUFileInfo@1@UAllocatorInfo@1@@Z 0000000140005e40 f   gen_src.obj
 0001:00004fe0       ?file_stream_open@gen@@YACPEAUFileInfo@1@UAllocatorInfo@1@PEAE_JW4FileStreamFlags@1@@Z 0000000140005fe0 f   gen_src.obj
 0001:00005210       ?file_stream_buf@gen@@YAPEAEPEAUFileInfo@1@PEA_J@Z 0000000140006210 f   gen_src.obj
 0001:00005290       ?to_str@gen@@YA?AUStrC@1@W4ModuleFlag@1@@Z 0000000140006290 f   gen_src.obj
 0001:00005310       ??Ugen@@YA?AW4ModuleFlag@0@W410@0@Z 0000000140006310 f   gen_src.obj
 0001:00005330       ?to_str@ECode@gen@@YA?AUStrC@2@W4Type@12@@Z 0000000140006330 f   gen_src.obj
 0001:00005370       ?to_str@EOperator@gen@@YA?AUStrC@2@W4Type@12@@Z 0000000140006370 f   gen_src.obj
 0001:000053b0       ?is_trailing@ESpecifier@gen@@YA_NW4Type@12@@Z 00000001400063b0 f   gen_src.obj
 0001:000053e0       ?to_str@ESpecifier@gen@@YA?AUStrC@2@W4Type@12@@Z 00000001400063e0 f   gen_src.obj
 0001:00005420       ?to_type@ESpecifier@gen@@YA?AW4Type@12@UStrC@2@@Z 0000000140006420 f   gen_src.obj
 0001:00005530       ?debug_str@Code@gen@@QEAAPEBDXZ 0000000140006530 f   gen_src.obj
 0001:00005570       ?duplicate@Code@gen@@QEAA?AU12@XZ 0000000140006570 f   gen_src.obj
 0001:00005640       ?is_equal@Code@gen@@QEAA_NU12@@Z 0000000140006640 f   gen_src.obj
 0001:00005700       ?is_valid@Code@gen@@QEAA_NXZ 0000000140006700 f   gen_src.obj
 0001:00005750       ?set_global@Code@gen@@QEAAXXZ 0000000140006750 f   gen_src.obj
 0001:00005800       ?to_string@Code@gen@@QEAA?AUString@2@XZ 0000000140006800 f   gen_src.obj
 0001:000058d0       ??4Code@gen@@QEAAAEAU01@U01@@Z 00000001400068d0 f   gen_src.obj
 0001:00005940       ??8Code@gen@@QEAA_NU01@@Z  0000000140006940 f   gen_src.obj
 0001:00005980       ??9Code@gen@@QEAA_NU01@@Z  0000000140006980 f   gen_src.obj
 0001:000059c0       ??BCode@gen@@QEAA_NXZ      00000001400069c0 f   gen_src.obj
 0001:00005a00       ??ECode@gen@@QEAAAEAU01@XZ 0000000140006a00 f   gen_src.obj
 0001:00005a30       ??BCode@gen@@QEBA?AUCodeBody@1@XZ 0000000140006a30 f   gen_src.obj
 0001:00005a60       ??BCode@gen@@QEBA?AUCodeAttributes@1@XZ 0000000140006a60 f   gen_src.obj
 0001:00005a90       ??BCode@gen@@QEBA?AUCodeComment@1@XZ 0000000140006a90 f   gen_src.obj
 0001:00005ac0       ??BCode@gen@@QEBA?AUCodeClass@1@XZ 0000000140006ac0 f   gen_src.obj
 0001:00005af0       ??BCode@gen@@QEBA?AUCodeConstructor@1@XZ 0000000140006af0 f   gen_src.obj
 0001:00005b20       ??BCode@gen@@QEBA?AUCodeDefine@1@XZ 0000000140006b20 f   gen_src.obj
 0001:00005b50       ??BCode@gen@@QEBA?AUCodeDestructor@1@XZ 0000000140006b50 f   gen_src.obj
 0001:00005b80       ??BCode@gen@@QEBA?AUCodeExec@1@XZ 0000000140006b80 f   gen_src.obj
 0001:00005bb0       ??BCode@gen@@QEBA?AUCodeEnum@1@XZ 0000000140006bb0 f   gen_src.obj
 0001:00005be0       ??BCode@gen@@QEBA?AUCodeExtern@1@XZ 0000000140006be0 f   gen_src.obj
 0001:00005c10       ??BCode@gen@@QEBA?AUCodeInclude@1@XZ 0000000140006c10 f   gen_src.obj
 0001:00005c40       ??BCode@gen@@QEBA?AUCodeFriend@1@XZ 0000000140006c40 f   gen_src.obj
 0001:00005c70       ??BCode@gen@@QEBA?AUCodeFn@1@XZ 0000000140006c70 f   gen_src.obj
 0001:00005ca0       ??BCode@gen@@QEBA?AUCodeModule@1@XZ 0000000140006ca0 f   gen_src.obj
 0001:00005cd0       ??BCode@gen@@QEBA?AUCodeNS@1@XZ 0000000140006cd0 f   gen_src.obj
 0001:00005d00       ??BCode@gen@@QEBA?AUCodeOperator@1@XZ 0000000140006d00 f   gen_src.obj
 0001:00005d30       ??BCode@gen@@QEBA?AUCodeOpCast@1@XZ 0000000140006d30 f   gen_src.obj
 0001:00005d60       ??BCode@gen@@QEBA?AUCodeParam@1@XZ 0000000140006d60 f   gen_src.obj
 0001:00005d90       ??BCode@gen@@QEBA?AUCodePragma@1@XZ 0000000140006d90 f   gen_src.obj
 0001:00005dc0       ??BCode@gen@@QEBA?AUCodePreprocessCond@1@XZ 0000000140006dc0 f   gen_src.obj
 0001:00005df0       ??BCode@gen@@QEBA?AUCodeSpecifiers@1@XZ 0000000140006df0 f   gen_src.obj
 0001:00005e20       ??BCode@gen@@QEBA?AUCodeStruct@1@XZ 0000000140006e20 f   gen_src.obj
 0001:00005e50       ??BCode@gen@@QEBA?AUCodeTemplate@1@XZ 0000000140006e50 f   gen_src.obj
 0001:00005e80       ??BCode@gen@@QEBA?AUCodeType@1@XZ 0000000140006e80 f   gen_src.obj
 0001:00005eb0       ??BCode@gen@@QEBA?AUCodeTypedef@1@XZ 0000000140006eb0 f   gen_src.obj
 0001:00005ee0       ??BCode@gen@@QEBA?AUCodeUnion@1@XZ 0000000140006ee0 f   gen_src.obj
 0001:00005f10       ??BCode@gen@@QEBA?AUCodeUsing@1@XZ 0000000140006f10 f   gen_src.obj
 0001:00005f40       ??BCode@gen@@QEBA?AUCodeVar@1@XZ 0000000140006f40 f   gen_src.obj
 0001:00005f70       ?append@AST@gen@@QEAAXPEAU12@@Z 0000000140006f70 f   gen_src.obj
 0001:00006040       ?debug_str@AST@gen@@QEAAPEBDXZ 0000000140007040 f   gen_src.obj
 0001:00009e40       ?duplicate@AST@gen@@QEAAPEAU12@XZ 000000014000ae40 f   gen_src.obj
 0001:00009e90       ?entry@AST@gen@@QEAAAEAUCode@2@I@Z 000000014000ae90 f   gen_src.obj
 0001:00009ef0       ?has_entries@AST@gen@@QEAA_NXZ 000000014000aef0 f   gen_src.obj
 0001:00009f20       ?is_equal@AST@gen@@QEAA_NPEAU12@@Z 000000014000af20 f   gen_src.obj
 0001:00010c60       ?type_str@AST@gen@@QEAAPEBDXZ 0000000140011c60 f   gen_src.obj
 0001:00010cb0       ?validate_body@AST@gen@@QEAA_NXZ 0000000140011cb0 f   gen_src.obj
 0001:00011e00       ?to_string@AST@gen@@QEAA?AUString@2@XZ 0000000140012e00 f   gen_src.obj
 0001:00011e70       ?to_string@AST@gen@@QEAAXAEAUString@2@@Z 0000000140012e70 f   gen_src.obj
 0001:000126e0       ??BAST@gen@@QEAA?AUCode@1@XZ 00000001400136e0 f   gen_src.obj
 0001:00012710       ??BAST@gen@@QEAA?AUCodeBody@1@XZ 0000000140013710 f   gen_src.obj
 0001:00012740       ??BAST@gen@@QEAA?AUCodeAttributes@1@XZ 0000000140013740 f   gen_src.obj
 0001:00012770       ??BAST@gen@@QEAA?AUCodeComment@1@XZ 0000000140013770 f   gen_src.obj
 0001:000127a0       ??BAST@gen@@QEAA?AUCodeConstructor@1@XZ 00000001400137a0 f   gen_src.obj
 0001:000127d0       ??BAST@gen@@QEAA?AUCodeDestructor@1@XZ 00000001400137d0 f   gen_src.obj
 0001:00012800       ??BAST@gen@@QEAA?AUCodeClass@1@XZ 0000000140013800 f   gen_src.obj
 0001:00012830       ??BAST@gen@@QEAA?AUCodeDefine@1@XZ 0000000140013830 f   gen_src.obj
 0001:00012860       ??BAST@gen@@QEAA?AUCodeEnum@1@XZ 0000000140013860 f   gen_src.obj
 0001:00012890       ??BAST@gen@@QEAA?AUCodeExec@1@XZ 0000000140013890 f   gen_src.obj
 0001:000128c0       ??BAST@gen@@QEAA?AUCodeExtern@1@XZ 00000001400138c0 f   gen_src.obj
 0001:000128f0       ??BAST@gen@@QEAA?AUCodeInclude@1@XZ 00000001400138f0 f   gen_src.obj
 0001:00012920       ??BAST@gen@@QEAA?AUCodeFriend@1@XZ 0000000140013920 f   gen_src.obj
 0001:00012950       ??BAST@gen@@QEAA?AUCodeFn@1@XZ 0000000140013950 f   gen_src.obj
 0001:00012980       ??BAST@gen@@QEAA?AUCodeModule@1@XZ 0000000140013980 f   gen_src.obj
 0001:000129b0       ??BAST@gen@@QEAA?AUCodeNS@1@XZ 00000001400139b0 f   gen_src.obj
 0001:000129e0       ??BAST@gen@@QEAA?AUCodeOperator@1@XZ 00000001400139e0 f   gen_src.obj
 0001:00012a10       ??BAST@gen@@QEAA?AUCodeOpCast@1@XZ 0000000140013a10 f   gen_src.obj
 0001:00012a40       ??BAST@gen@@QEAA?AUCodeParam@1@XZ 0000000140013a40 f   gen_src.obj
 0001:00012a70       ??BAST@gen@@QEAA?AUCodePragma@1@XZ 0000000140013a70 f   gen_src.obj
 0001:00012aa0       ??BAST@gen@@QEAA?AUCodePreprocessCond@1@XZ 0000000140013aa0 f   gen_src.obj
 0001:00012ad0       ??BAST@gen@@QEAA?AUCodeSpecifiers@1@XZ 0000000140013ad0 f   gen_src.obj
 0001:00012b00       ??BAST@gen@@QEAA?AUCodeStruct@1@XZ 0000000140013b00 f   gen_src.obj
 0001:00012b30       ??BAST@gen@@QEAA?AUCodeTemplate@1@XZ 0000000140013b30 f   gen_src.obj
 0001:00012b60       ??BAST@gen@@QEAA?AUCodeType@1@XZ 0000000140013b60 f   gen_src.obj
 0001:00012b90       ??BAST@gen@@QEAA?AUCodeTypedef@1@XZ 0000000140013b90 f   gen_src.obj
 0001:00012bc0       ??BAST@gen@@QEAA?AUCodeUnion@1@XZ 0000000140013bc0 f   gen_src.obj
 0001:00012bf0       ??BAST@gen@@QEAA?AUCodeUsing@1@XZ 0000000140013bf0 f   gen_src.obj
 0001:00012c20       ??BAST@gen@@QEAA?AUCodeVar@1@XZ 0000000140013c20 f   gen_src.obj
 0001:00012c50       ?debug_str@CodeBody@gen@@QEAAPEBDXZ 0000000140013c50 f   gen_src.obj
 0001:00012c90       ?duplicate@CodeBody@gen@@QEAA?AUCode@2@XZ 0000000140013c90 f   gen_src.obj
 0001:00012d60       ?is_equal@CodeBody@gen@@QEAA_NUCode@2@@Z 0000000140013d60 f   gen_src.obj
 0001:00012e20       ?is_valid@CodeBody@gen@@QEAA_NXZ 0000000140013e20 f   gen_src.obj
 0001:00012e70       ?set_global@CodeBody@gen@@QEAAXXZ 0000000140013e70 f   gen_src.obj
 0001:00012f20       ?to_string@CodeBody@gen@@QEAA?AUString@2@XZ 0000000140013f20 f   gen_src.obj
 0001:00013060       ??4CodeBody@gen@@QEAAAEAU01@UCode@1@@Z 0000000140014060 f   gen_src.obj
 0001:000130d0       ??8CodeBody@gen@@QEAA_NUCode@1@@Z 00000001400140d0 f   gen_src.obj
 0001:00013110       ??9CodeBody@gen@@QEAA_NUCode@1@@Z 0000000140014110 f   gen_src.obj
 0001:00013150       ??BCodeBody@gen@@QEAA_NXZ  0000000140014150 f   gen_src.obj
 0001:00013190       ?to_string@CodeBody@gen@@QEAAXAEAUString@2@@Z 0000000140014190 f   gen_src.obj
 0001:00013220       ?to_string_export@CodeBody@gen@@QEAAXAEAUString@2@@Z 0000000140014220 f   gen_src.obj
 0001:000132d0       ?debug_str@CodeClass@gen@@QEAAPEBDXZ 00000001400142d0 f   gen_src.obj
 0001:00013310       ?duplicate@CodeClass@gen@@QEAA?AUCode@2@XZ 0000000140014310 f   gen_src.obj
 0001:000133e0       ?is_equal@CodeClass@gen@@QEAA_NUCode@2@@Z 00000001400143e0 f   gen_src.obj
 0001:000134a0       ?is_valid@CodeClass@gen@@QEAA_NXZ 00000001400144a0 f   gen_src.obj
 0001:000134f0       ?set_global@CodeClass@gen@@QEAAXXZ 00000001400144f0 f   gen_src.obj
 0001:000135a0       ?to_string@CodeClass@gen@@QEAA?AUString@2@XZ 00000001400145a0 f   gen_src.obj
 0001:00013640       ??4CodeClass@gen@@QEAAAEAU01@UCode@1@@Z 0000000140014640 f   gen_src.obj
 0001:000136b0       ??8CodeClass@gen@@QEAA_NUCode@1@@Z 00000001400146b0 f   gen_src.obj
 0001:000136f0       ??9CodeClass@gen@@QEAA_NUCode@1@@Z 00000001400146f0 f   gen_src.obj
 0001:00013730       ??BCodeClass@gen@@QEAA_NXZ 0000000140014730 f   gen_src.obj
 0001:00013770       ?add_interface@CodeClass@gen@@QEAAXUCodeType@2@@Z 0000000140014770 f   gen_src.obj
 0001:000137e0       ?to_string_def@CodeClass@gen@@QEAAXAEAUString@2@@Z 00000001400147e0 f   gen_src.obj
 0001:00013b40       ?to_string_fwd@CodeClass@gen@@QEAAXAEAUString@2@@Z 0000000140014b40 f   gen_src.obj
 0001:00013c90       ?debug_str@CodeParam@gen@@QEAAPEBDXZ 0000000140014c90 f   gen_src.obj
 0001:00013cd0       ?duplicate@CodeParam@gen@@QEAA?AUCode@2@XZ 0000000140014cd0 f   gen_src.obj
 0001:00013da0       ?is_equal@CodeParam@gen@@QEAA_NUCode@2@@Z 0000000140014da0 f   gen_src.obj
 0001:00013e80       ?is_valid@CodeParam@gen@@QEAA_NXZ 0000000140014e80 f   gen_src.obj
 0001:00013ed0       ?set_global@CodeParam@gen@@QEAAXXZ 0000000140014ed0 f   gen_src.obj
 0001:00013f80       ?to_string@CodeParam@gen@@QEAA?AUString@2@XZ 0000000140014f80 f   gen_src.obj
 0001:00013ff0       ??4CodeParam@gen@@QEAAAEAU01@UCode@1@@Z 0000000140014ff0 f   gen_src.obj
 0001:00014060       ??8CodeParam@gen@@QEAA_NUCode@1@@Z 0000000140015060 f   gen_src.obj
 0001:000140a0       ??9CodeParam@gen@@QEAA_NUCode@1@@Z 00000001400150a0 f   gen_src.obj
 0001:000140e0       ??BCodeParam@gen@@QEAA_NXZ 00000001400150e0 f   gen_src.obj
 0001:00014120       ?append@CodeParam@gen@@QEAAXU12@@Z 0000000140015120 f   gen_src.obj
 0001:000141f0       ?get@CodeParam@gen@@QEAA?AU12@H@Z 00000001400151f0 f   gen_src.obj
 0001:00014290       ?has_entries@CodeParam@gen@@QEAA_NXZ 0000000140015290 f   gen_src.obj
 0001:000142d0       ?to_string@CodeParam@gen@@QEAAXAEAUString@2@@Z 00000001400152d0 f   gen_src.obj
 0001:00014520       ??ECodeParam@gen@@QEAAAEAU01@XZ 0000000140015520 f   gen_src.obj
 0001:00014550       ?debug_str@CodeSpecifiers@gen@@QEAAPEBDXZ 0000000140015550 f   gen_src.obj
 0001:00014590       ?duplicate@CodeSpecifiers@gen@@QEAA?AUCode@2@XZ 0000000140015590 f   gen_src.obj
 0001:00014660       ?is_equal@CodeSpecifiers@gen@@QEAA_NUCode@2@@Z 0000000140015660 f   gen_src.obj
 0001:00014720       ?is_valid@CodeSpecifiers@gen@@QEAA_NXZ 0000000140015720 f   gen_src.obj
 0001:00014770       ?set_global@CodeSpecifiers@gen@@QEAAXXZ 0000000140015770 f   gen_src.obj
 0001:00014820       ?to_string@CodeSpecifiers@gen@@QEAA?AUString@2@XZ 0000000140015820 f   gen_src.obj
 0001:00014890       ??4CodeSpecifiers@gen@@QEAAAEAU01@UCode@1@@Z 0000000140015890 f   gen_src.obj
 0001:00014900       ??8CodeSpecifiers@gen@@QEAA_NUCode@1@@Z 0000000140015900 f   gen_src.obj
 0001:00014940       ??9CodeSpecifiers@gen@@QEAA_NUCode@1@@Z 0000000140015940 f   gen_src.obj
 0001:00014980       ??BCodeSpecifiers@gen@@QEAA_NXZ 0000000140015980 f   gen_src.obj
 0001:000149c0       ?to_string@CodeSpecifiers@gen@@QEAAXAEAUString@2@@Z 00000001400159c0 f   gen_src.obj
 0001:00014a90       ?debug_str@CodeStruct@gen@@QEAAPEBDXZ 0000000140015a90 f   gen_src.obj
 0001:00014ad0       ?duplicate@CodeStruct@gen@@QEAA?AUCode@2@XZ 0000000140015ad0 f   gen_src.obj
 0001:00014ba0       ?is_equal@CodeStruct@gen@@QEAA_NUCode@2@@Z 0000000140015ba0 f   gen_src.obj
 0001:00014c60       ?is_valid@CodeStruct@gen@@QEAA_NXZ 0000000140015c60 f   gen_src.obj
 0001:00014cb0       ?set_global@CodeStruct@gen@@QEAAXXZ 0000000140015cb0 f   gen_src.obj
 0001:00014d60       ?to_string@CodeStruct@gen@@QEAA?AUString@2@XZ 0000000140015d60 f   gen_src.obj
 0001:00014e00       ??4CodeStruct@gen@@QEAAAEAU01@UCode@1@@Z 0000000140015e00 f   gen_src.obj
 0001:00014e70       ??8CodeStruct@gen@@QEAA_NUCode@1@@Z 0000000140015e70 f   gen_src.obj
 0001:00014eb0       ??9CodeStruct@gen@@QEAA_NUCode@1@@Z 0000000140015eb0 f   gen_src.obj
 0001:00014ef0       ??BCodeStruct@gen@@QEAA_NXZ 0000000140015ef0 f   gen_src.obj
 0001:00014f30       ?add_interface@CodeStruct@gen@@QEAAXUCodeType@2@@Z 0000000140015f30 f   gen_src.obj
 0001:00014fa0       ?to_string_def@CodeStruct@gen@@QEAAXAEAUString@2@@Z 0000000140015fa0 f   gen_src.obj
 0001:00015300       ?to_string_fwd@CodeStruct@gen@@QEAAXAEAUString@2@@Z 0000000140016300 f   gen_src.obj
 0001:00015450       ?debug_str@CodeAttributes@gen@@QEAAPEBDXZ 0000000140016450 f   gen_src.obj
 0001:00015490       ?duplicate@CodeAttributes@gen@@QEAA?AUCode@2@XZ 0000000140016490 f   gen_src.obj
 0001:00015560       ?is_equal@CodeAttributes@gen@@QEAA_NUCode@2@@Z 0000000140016560 f   gen_src.obj
 0001:00015620       ?is_valid@CodeAttributes@gen@@QEAA_NXZ 0000000140016620 f   gen_src.obj
 0001:00015670       ?set_global@CodeAttributes@gen@@QEAAXXZ 0000000140016670 f   gen_src.obj
 0001:00015720       ?to_string@CodeAttributes@gen@@QEAA?AUString@2@XZ 0000000140016720 f   gen_src.obj
 0001:00015780       ??4CodeAttributes@gen@@QEAAAEAU01@UCode@1@@Z 0000000140016780 f   gen_src.obj
 0001:000157f0       ??8CodeAttributes@gen@@QEAA_NUCode@1@@Z 00000001400167f0 f   gen_src.obj
 0001:00015830       ??9CodeAttributes@gen@@QEAA_NUCode@1@@Z 0000000140016830 f   gen_src.obj
 0001:00015870       ??BCodeAttributes@gen@@QEAA_NXZ 0000000140016870 f   gen_src.obj
 0001:000158b0       ?raw@CodeAttributes@gen@@QEAAPEAUAST@2@XZ 00000001400168b0 f   gen_src.obj
 0001:000158d0       ??BCodeAttributes@gen@@QEAA?AUCode@1@XZ 00000001400168d0 f   gen_src.obj
 0001:00015900       ??CCodeAttributes@gen@@QEAAPEAUAST_Attributes@1@XZ 0000000140016900 f   gen_src.obj
 0001:000159b0       ?debug_str@CodeComment@gen@@QEAAPEBDXZ 00000001400169b0 f   gen_src.obj
 0001:000159f0       ?duplicate@CodeComment@gen@@QEAA?AUCode@2@XZ 00000001400169f0 f   gen_src.obj
 0001:00015ac0       ?is_equal@CodeComment@gen@@QEAA_NUCode@2@@Z 0000000140016ac0 f   gen_src.obj
 0001:00015b80       ?is_valid@CodeComment@gen@@QEAA_NXZ 0000000140016b80 f   gen_src.obj
 0001:00015bd0       ?set_global@CodeComment@gen@@QEAAXXZ 0000000140016bd0 f   gen_src.obj
 0001:00015c80       ?to_string@CodeComment@gen@@QEAA?AUString@2@XZ 0000000140016c80 f   gen_src.obj
 0001:00015ce0       ??4CodeComment@gen@@QEAAAEAU01@UCode@1@@Z 0000000140016ce0 f   gen_src.obj
 0001:00015d50       ??8CodeComment@gen@@QEAA_NUCode@1@@Z 0000000140016d50 f   gen_src.obj
 0001:00015d90       ??9CodeComment@gen@@QEAA_NUCode@1@@Z 0000000140016d90 f   gen_src.obj
 0001:00015dd0       ??BCodeComment@gen@@QEAA_NXZ 0000000140016dd0 f   gen_src.obj
 0001:00015e10       ?raw@CodeComment@gen@@QEAAPEAUAST@2@XZ 0000000140016e10 f   gen_src.obj
 0001:00015e30       ??BCodeComment@gen@@QEAA?AUCode@1@XZ 0000000140016e30 f   gen_src.obj
 0001:00015e60       ??CCodeComment@gen@@QEAAPEAUAST_Comment@1@XZ 0000000140016e60 f   gen_src.obj
 0001:00015f10       ?debug_str@CodeConstructor@gen@@QEAAPEBDXZ 0000000140016f10 f   gen_src.obj
 0001:00015f50       ?duplicate@CodeConstructor@gen@@QEAA?AUCode@2@XZ 0000000140016f50 f   gen_src.obj
 0001:00016020       ?is_equal@CodeConstructor@gen@@QEAA_NUCode@2@@Z 0000000140017020 f   gen_src.obj
 0001:000160e0       ?is_valid@CodeConstructor@gen@@QEAA_NXZ 00000001400170e0 f   gen_src.obj
 0001:00016130       ?set_global@CodeConstructor@gen@@QEAAXXZ 0000000140017130 f   gen_src.obj
 0001:000161e0       ?to_string@CodeConstructor@gen@@QEAA?AUString@2@XZ 00000001400171e0 f   gen_src.obj
 0001:00016280       ??4CodeConstructor@gen@@QEAAAEAU01@UCode@1@@Z 0000000140017280 f   gen_src.obj
 0001:000162f0       ??8CodeConstructor@gen@@QEAA_NUCode@1@@Z 00000001400172f0 f   gen_src.obj
 0001:00016330       ??9CodeConstructor@gen@@QEAA_NUCode@1@@Z 0000000140017330 f   gen_src.obj
 0001:00016370       ??BCodeConstructor@gen@@QEAA_NXZ 0000000140017370 f   gen_src.obj
 0001:000163b0       ?to_string_def@CodeConstructor@gen@@QEAAXAEAUString@2@@Z 00000001400173b0 f   gen_src.obj
 0001:00016530       ?to_string_fwd@CodeConstructor@gen@@QEAAXAEAUString@2@@Z 0000000140017530 f   gen_src.obj
 0001:00016690       ?raw@CodeConstructor@gen@@QEAAPEAUAST@2@XZ 0000000140017690 f   gen_src.obj
 0001:000166b0       ??BCodeConstructor@gen@@QEAA?AUCode@1@XZ 00000001400176b0 f   gen_src.obj
 0001:000166e0       ??CCodeConstructor@gen@@QEAAPEAUAST_Constructor@1@XZ 00000001400176e0 f   gen_src.obj
 0001:00016790       ?debug_str@CodeDefine@gen@@QEAAPEBDXZ 0000000140017790 f   gen_src.obj
 0001:000167d0       ?duplicate@CodeDefine@gen@@QEAA?AUCode@2@XZ 00000001400177d0 f   gen_src.obj
 0001:000168a0       ?is_equal@CodeDefine@gen@@QEAA_NUCode@2@@Z 00000001400178a0 f   gen_src.obj
 0001:00016960       ?is_valid@CodeDefine@gen@@QEAA_NXZ 0000000140017960 f   gen_src.obj
 0001:000169b0       ?set_global@CodeDefine@gen@@QEAAXXZ 00000001400179b0 f   gen_src.obj
 0001:00016a60       ?to_string@CodeDefine@gen@@QEAA?AUString@2@XZ 0000000140017a60 f   gen_src.obj
 0001:00016ae0       ??4CodeDefine@gen@@QEAAAEAU01@UCode@1@@Z 0000000140017ae0 f   gen_src.obj
 0001:00016b50       ??8CodeDefine@gen@@QEAA_NUCode@1@@Z 0000000140017b50 f   gen_src.obj
 0001:00016b90       ??9CodeDefine@gen@@QEAA_NUCode@1@@Z 0000000140017b90 f   gen_src.obj
 0001:00016bd0       ??BCodeDefine@gen@@QEAA_NXZ 0000000140017bd0 f   gen_src.obj
 0001:00016c10       ?to_string@CodeDefine@gen@@QEAAXAEAUString@2@@Z 0000000140017c10 f   gen_src.obj
 0001:00016c60       ?raw@CodeDefine@gen@@QEAAPEAUAST@2@XZ 0000000140017c60 f   gen_src.obj
 0001:00016c80       ??BCodeDefine@gen@@QEAA?AUCode@1@XZ 0000000140017c80 f   gen_src.obj
 0001:00016cb0       ??CCodeDefine@gen@@QEAAPEAUAST_Define@1@XZ 0000000140017cb0 f   gen_src.obj
 0001:00016d60       ?debug_str@CodeDestructor@gen@@QEAAPEBDXZ 0000000140017d60 f   gen_src.obj
 0001:00016da0       ?duplicate@CodeDestructor@gen@@QEAA?AUCode@2@XZ 0000000140017da0 f   gen_src.obj
 0001:00016e70       ?is_equal@CodeDestructor@gen@@QEAA_NUCode@2@@Z 0000000140017e70 f   gen_src.obj
 0001:00016f30       ?is_valid@CodeDestructor@gen@@QEAA_NXZ 0000000140017f30 f   gen_src.obj
 0001:00016f80       ?set_global@CodeDestructor@gen@@QEAAXXZ 0000000140017f80 f   gen_src.obj
 0001:00017030       ?to_string@CodeDestructor@gen@@QEAA?AUString@2@XZ 0000000140018030 f   gen_src.obj
 0001:000170d0       ??4CodeDestructor@gen@@QEAAAEAU01@UCode@1@@Z 00000001400180d0 f   gen_src.obj
 0001:00017140       ??8CodeDestructor@gen@@QEAA_NUCode@1@@Z 0000000140018140 f   gen_src.obj
 0001:00017180       ??9CodeDestructor@gen@@QEAA_NUCode@1@@Z 0000000140018180 f   gen_src.obj
 0001:000171c0       ??BCodeDestructor@gen@@QEAA_NXZ 00000001400181c0 f   gen_src.obj
 0001:00017200       ?to_string_def@CodeDestructor@gen@@QEAAXAEAUString@2@@Z 0000000140018200 f   gen_src.obj
 0001:00017340       ?to_string_fwd@CodeDestructor@gen@@QEAAXAEAUString@2@@Z 0000000140018340 f   gen_src.obj
 0001:000174e0       ?raw@CodeDestructor@gen@@QEAAPEAUAST@2@XZ 00000001400184e0 f   gen_src.obj
 0001:00017500       ??BCodeDestructor@gen@@QEAA?AUCode@1@XZ 0000000140018500 f   gen_src.obj
 0001:00017530       ??CCodeDestructor@gen@@QEAAPEAUAST_Destructor@1@XZ 0000000140018530 f   gen_src.obj
 0001:000175e0       ?debug_str@CodeEnum@gen@@QEAAPEBDXZ 00000001400185e0 f   gen_src.obj
 0001:00017620       ?duplicate@CodeEnum@gen@@QEAA?AUCode@2@XZ 0000000140018620 f   gen_src.obj
 0001:000176f0       ?is_equal@CodeEnum@gen@@QEAA_NUCode@2@@Z 00000001400186f0 f   gen_src.obj
 0001:000177b0       ?is_valid@CodeEnum@gen@@QEAA_NXZ 00000001400187b0 f   gen_src.obj
 0001:00017800       ?set_global@CodeEnum@gen@@QEAAXXZ 0000000140018800 f   gen_src.obj
 0001:000178b0       ?to_string@CodeEnum@gen@@QEAA?AUString@2@XZ 00000001400188b0 f   gen_src.obj
 0001:00017980       ??4CodeEnum@gen@@QEAAAEAU01@UCode@1@@Z 0000000140018980 f   gen_src.obj
 0001:000179f0       ??8CodeEnum@gen@@QEAA_NUCode@1@@Z 00000001400189f0 f   gen_src.obj
 0001:00017a30       ??9CodeEnum@gen@@QEAA_NUCode@1@@Z 0000000140018a30 f   gen_src.obj
 0001:00017a70       ??BCodeEnum@gen@@QEAA_NXZ  0000000140018a70 f   gen_src.obj
 0001:00017ab0       ?to_string_def@CodeEnum@gen@@QEAAXAEAUString@2@@Z 0000000140018ab0 f   gen_src.obj
 0001:00017cd0       ?to_string_fwd@CodeEnum@gen@@QEAAXAEAUString@2@@Z 0000000140018cd0 f   gen_src.obj
 0001:00017e20       ?to_string_class_def@CodeEnum@gen@@QEAAXAEAUString@2@@Z 0000000140018e20 f   gen_src.obj
 0001:00018030       ?to_string_class_fwd@CodeEnum@gen@@QEAAXAEAUString@2@@Z 0000000140019030 f   gen_src.obj
 0001:00018190       ?raw@CodeEnum@gen@@QEAAPEAUAST@2@XZ 0000000140019190 f   gen_src.obj
 0001:000181b0       ??BCodeEnum@gen@@QEAA?AUCode@1@XZ 00000001400191b0 f   gen_src.obj
 0001:000181e0       ??CCodeEnum@gen@@QEAAPEAUAST_Enum@1@XZ 00000001400191e0 f   gen_src.obj
 0001:00018290       ?debug_str@CodeExec@gen@@QEAAPEBDXZ 0000000140019290 f   gen_src.obj
 0001:000182d0       ?duplicate@CodeExec@gen@@QEAA?AUCode@2@XZ 00000001400192d0 f   gen_src.obj
 0001:000183a0       ?is_equal@CodeExec@gen@@QEAA_NUCode@2@@Z 00000001400193a0 f   gen_src.obj
 0001:00018460       ?is_valid@CodeExec@gen@@QEAA_NXZ 0000000140019460 f   gen_src.obj
 0001:000184b0       ?set_global@CodeExec@gen@@QEAAXXZ 00000001400194b0 f   gen_src.obj
 0001:00018560       ?to_string@CodeExec@gen@@QEAA?AUString@2@XZ 0000000140019560 f   gen_src.obj
 0001:000185c0       ??4CodeExec@gen@@QEAAAEAU01@UCode@1@@Z 00000001400195c0 f   gen_src.obj
 0001:00018630       ??8CodeExec@gen@@QEAA_NUCode@1@@Z 0000000140019630 f   gen_src.obj
 0001:00018670       ??9CodeExec@gen@@QEAA_NUCode@1@@Z 0000000140019670 f   gen_src.obj
 0001:000186b0       ??BCodeExec@gen@@QEAA_NXZ  00000001400196b0 f   gen_src.obj
 0001:000186f0       ?raw@CodeExec@gen@@QEAAPEAUAST@2@XZ 00000001400196f0 f   gen_src.obj
 0001:00018710       ??BCodeExec@gen@@QEAA?AUCode@1@XZ 0000000140019710 f   gen_src.obj
 0001:00018740       ??CCodeExec@gen@@QEAAPEAUAST_Exec@1@XZ 0000000140019740 f   gen_src.obj
 0001:000187f0       ?debug_str@CodeExtern@gen@@QEAAPEBDXZ 00000001400197f0 f   gen_src.obj
 0001:00018830       ?duplicate@CodeExtern@gen@@QEAA?AUCode@2@XZ 0000000140019830 f   gen_src.obj
 0001:00018900       ?is_equal@CodeExtern@gen@@QEAA_NUCode@2@@Z 0000000140019900 f   gen_src.obj
 0001:000189c0       ?is_valid@CodeExtern@gen@@QEAA_NXZ 00000001400199c0 f   gen_src.obj
 0001:00018a10       ?set_global@CodeExtern@gen@@QEAAXXZ 0000000140019a10 f   gen_src.obj
 0001:00018ac0       ??4CodeExtern@gen@@QEAAAEAU01@UCode@1@@Z 0000000140019ac0 f   gen_src.obj
 0001:00018b30       ??8CodeExtern@gen@@QEAA_NUCode@1@@Z 0000000140019b30 f   gen_src.obj
 0001:00018b70       ??9CodeExtern@gen@@QEAA_NUCode@1@@Z 0000000140019b70 f   gen_src.obj
 0001:00018bb0       ??BCodeExtern@gen@@QEAA_NXZ 0000000140019bb0 f   gen_src.obj
 0001:00018bf0       ?to_string@CodeExtern@gen@@QEAAXAEAUString@2@@Z 0000000140019bf0 f   gen_src.obj
 0001:00018c80       ?raw@CodeExtern@gen@@QEAAPEAUAST@2@XZ 0000000140019c80 f   gen_src.obj
 0001:00018ca0       ??BCodeExtern@gen@@QEAA?AUCode@1@XZ 0000000140019ca0 f   gen_src.obj
 0001:00018cd0       ??CCodeExtern@gen@@QEAAPEAUAST_Extern@1@XZ 0000000140019cd0 f   gen_src.obj
 0001:00018d80       ?debug_str@CodeInclude@gen@@QEAAPEBDXZ 0000000140019d80 f   gen_src.obj
 0001:00018dc0       ?duplicate@CodeInclude@gen@@QEAA?AUCode@2@XZ 0000000140019dc0 f   gen_src.obj
 0001:00018e90       ?is_equal@CodeInclude@gen@@QEAA_NUCode@2@@Z 0000000140019e90 f   gen_src.obj
 0001:00018f50       ?is_valid@CodeInclude@gen@@QEAA_NXZ 0000000140019f50 f   gen_src.obj
 0001:00018fa0       ?set_global@CodeInclude@gen@@QEAAXXZ 0000000140019fa0 f   gen_src.obj
 0001:00019050       ?to_string@CodeInclude@gen@@QEAA?AUString@2@XZ 000000014001a050 f   gen_src.obj
 0001:000190b0       ??4CodeInclude@gen@@QEAAAEAU01@UCode@1@@Z 000000014001a0b0 f   gen_src.obj
 0001:00019120       ??8CodeInclude@gen@@QEAA_NUCode@1@@Z 000000014001a120 f   gen_src.obj
 0001:00019160       ??9CodeInclude@gen@@QEAA_NUCode@1@@Z 000000014001a160 f   gen_src.obj
 0001:000191a0       ??BCodeInclude@gen@@QEAA_NXZ 000000014001a1a0 f   gen_src.obj
 0001:000191e0       ?to_string@CodeInclude@gen@@QEAAXAEAUString@2@@Z 000000014001a1e0 f   gen_src.obj
 0001:00019220       ?raw@CodeInclude@gen@@QEAAPEAUAST@2@XZ 000000014001a220 f   gen_src.obj
 0001:00019240       ??BCodeInclude@gen@@QEAA?AUCode@1@XZ 000000014001a240 f   gen_src.obj
 0001:00019270       ??CCodeInclude@gen@@QEAAPEAUAST_Include@1@XZ 000000014001a270 f   gen_src.obj
 0001:00019320       ?debug_str@CodeFriend@gen@@QEAAPEBDXZ 000000014001a320 f   gen_src.obj
 0001:00019360       ?duplicate@CodeFriend@gen@@QEAA?AUCode@2@XZ 000000014001a360 f   gen_src.obj
 0001:00019430       ?is_equal@CodeFriend@gen@@QEAA_NUCode@2@@Z 000000014001a430 f   gen_src.obj
 0001:000194f0       ?is_valid@CodeFriend@gen@@QEAA_NXZ 000000014001a4f0 f   gen_src.obj
 0001:00019540       ?set_global@CodeFriend@gen@@QEAAXXZ 000000014001a540 f   gen_src.obj
 0001:000195f0       ?to_string@CodeFriend@gen@@QEAA?AUString@2@XZ 000000014001a5f0 f   gen_src.obj
 0001:00019660       ??4CodeFriend@gen@@QEAAAEAU01@UCode@1@@Z 000000014001a660 f   gen_src.obj
 0001:000196d0       ??8CodeFriend@gen@@QEAA_NUCode@1@@Z 000000014001a6d0 f   gen_src.obj
 0001:00019710       ??9CodeFriend@gen@@QEAA_NUCode@1@@Z 000000014001a710 f   gen_src.obj
 0001:00019750       ??BCodeFriend@gen@@QEAA_NXZ 000000014001a750 f   gen_src.obj
 0001:00019790       ?to_string@CodeFriend@gen@@QEAAXAEAUString@2@@Z 000000014001a790 f   gen_src.obj
 0001:00019880       ?raw@CodeFriend@gen@@QEAAPEAUAST@2@XZ 000000014001a880 f   gen_src.obj
 0001:000198a0       ??BCodeFriend@gen@@QEAA?AUCode@1@XZ 000000014001a8a0 f   gen_src.obj
 0001:000198d0       ??CCodeFriend@gen@@QEAAPEAUAST_Friend@1@XZ 000000014001a8d0 f   gen_src.obj
 0001:00019980       ?debug_str@CodeFn@gen@@QEAAPEBDXZ 000000014001a980 f   gen_src.obj
 0001:000199c0       ?duplicate@CodeFn@gen@@QEAA?AUCode@2@XZ 000000014001a9c0 f   gen_src.obj
 0001:00019a90       ?is_equal@CodeFn@gen@@QEAA_NUCode@2@@Z 000000014001aa90 f   gen_src.obj
 0001:00019b50       ?is_valid@CodeFn@gen@@QEAA_NXZ 000000014001ab50 f   gen_src.obj
 0001:00019ba0       ?set_global@CodeFn@gen@@QEAAXXZ 000000014001aba0 f   gen_src.obj
 0001:00019c50       ?to_string@CodeFn@gen@@QEAA?AUString@2@XZ 000000014001ac50 f   gen_src.obj
 0001:00019cf0       ??4CodeFn@gen@@QEAAAEAU01@UCode@1@@Z 000000014001acf0 f   gen_src.obj
 0001:00019d60       ??8CodeFn@gen@@QEAA_NUCode@1@@Z 000000014001ad60 f   gen_src.obj
 0001:00019da0       ??9CodeFn@gen@@QEAA_NUCode@1@@Z 000000014001ada0 f   gen_src.obj
 0001:00019de0       ??BCodeFn@gen@@QEAA_NXZ    000000014001ade0 f   gen_src.obj
 0001:00019e20       ?to_string_def@CodeFn@gen@@QEAAXAEAUString@2@@Z 000000014001ae20 f   gen_src.obj
 0001:0001a220       ?to_string_fwd@CodeFn@gen@@QEAAXAEAUString@2@@Z 000000014001b220 f   gen_src.obj
 0001:0001a6f0       ?raw@CodeFn@gen@@QEAAPEAUAST@2@XZ 000000014001b6f0 f   gen_src.obj
 0001:0001a710       ??BCodeFn@gen@@QEAA?AUCode@1@XZ 000000014001b710 f   gen_src.obj
 0001:0001a740       ??CCodeFn@gen@@QEAAPEAUAST_Fn@1@XZ 000000014001b740 f   gen_src.obj
 0001:0001a7f0       ?debug_str@CodeModule@gen@@QEAAPEBDXZ 000000014001b7f0 f   gen_src.obj
 0001:0001a830       ?duplicate@CodeModule@gen@@QEAA?AUCode@2@XZ 000000014001b830 f   gen_src.obj
 0001:0001a900       ?is_equal@CodeModule@gen@@QEAA_NUCode@2@@Z 000000014001b900 f   gen_src.obj
 0001:0001a9c0       ?is_valid@CodeModule@gen@@QEAA_NXZ 000000014001b9c0 f   gen_src.obj
 0001:0001aa10       ?set_global@CodeModule@gen@@QEAAXXZ 000000014001ba10 f   gen_src.obj
 0001:0001aac0       ?to_string@CodeModule@gen@@QEAA?AUString@2@XZ 000000014001bac0 f   gen_src.obj
 0001:0001ab30       ??4CodeModule@gen@@QEAAAEAU01@UCode@1@@Z 000000014001bb30 f   gen_src.obj
 0001:0001aba0       ??8CodeModule@gen@@QEAA_NUCode@1@@Z 000000014001bba0 f   gen_src.obj
 0001:0001abe0       ??9CodeModule@gen@@QEAA_NUCode@1@@Z 000000014001bbe0 f   gen_src.obj
 0001:0001ac20       ??BCodeModule@gen@@QEAA_NXZ 000000014001bc20 f   gen_src.obj
 0001:0001ac60       ?to_string@CodeModule@gen@@QEAAXAEAUString@2@@Z 000000014001bc60 f   gen_src.obj
 0001:0001ace0       ?raw@CodeModule@gen@@QEAAPEAUAST@2@XZ 000000014001bce0 f   gen_src.obj
 0001:0001ad00       ??BCodeModule@gen@@QEAA?AUCode@1@XZ 000000014001bd00 f   gen_src.obj
 0001:0001ad30       ??CCodeModule@gen@@QEAAPEAUAST_Module@1@XZ 000000014001bd30 f   gen_src.obj
 0001:0001ade0       ?debug_str@CodeNS@gen@@QEAAPEBDXZ 000000014001bde0 f   gen_src.obj
 0001:0001ae20       ?duplicate@CodeNS@gen@@QEAA?AUCode@2@XZ 000000014001be20 f   gen_src.obj
 0001:0001aef0       ?is_equal@CodeNS@gen@@QEAA_NUCode@2@@Z 000000014001bef0 f   gen_src.obj
 0001:0001afb0       ?is_valid@CodeNS@gen@@QEAA_NXZ 000000014001bfb0 f   gen_src.obj
 0001:0001b000       ?set_global@CodeNS@gen@@QEAAXXZ 000000014001c000 f   gen_src.obj
 0001:0001b0b0       ?to_string@CodeNS@gen@@QEAA?AUString@2@XZ 000000014001c0b0 f   gen_src.obj
 0001:0001b120       ??4CodeNS@gen@@QEAAAEAU01@UCode@1@@Z 000000014001c120 f   gen_src.obj
 0001:0001b190       ??8CodeNS@gen@@QEAA_NUCode@1@@Z 000000014001c190 f   gen_src.obj
 0001:0001b1d0       ??9CodeNS@gen@@QEAA_NUCode@1@@Z 000000014001c1d0 f   gen_src.obj
 0001:0001b210       ??BCodeNS@gen@@QEAA_NXZ    000000014001c210 f   gen_src.obj
 0001:0001b250       ?to_string@CodeNS@gen@@QEAAXAEAUString@2@@Z 000000014001c250 f   gen_src.obj
 0001:0001b2d0       ?raw@CodeNS@gen@@QEAAPEAUAST@2@XZ 000000014001c2d0 f   gen_src.obj
 0001:0001b2f0       ??BCodeNS@gen@@QEAA?AUCode@1@XZ 000000014001c2f0 f   gen_src.obj
 0001:0001b320       ??CCodeNS@gen@@QEAAPEAUAST_NS@1@XZ 000000014001c320 f   gen_src.obj
 0001:0001b3d0       ?debug_str@CodeOperator@gen@@QEAAPEBDXZ 000000014001c3d0 f   gen_src.obj
 0001:0001b410       ?duplicate@CodeOperator@gen@@QEAA?AUCode@2@XZ 000000014001c410 f   gen_src.obj
 0001:0001b4e0       ?is_equal@CodeOperator@gen@@QEAA_NUCode@2@@Z 000000014001c4e0 f   gen_src.obj
 0001:0001b5a0       ?is_valid@CodeOperator@gen@@QEAA_NXZ 000000014001c5a0 f   gen_src.obj
 0001:0001b5f0       ?set_global@CodeOperator@gen@@QEAAXXZ 000000014001c5f0 f   gen_src.obj
 0001:0001b6a0       ?to_string@CodeOperator@gen@@QEAA?AUString@2@XZ 000000014001c6a0 f   gen_src.obj
 0001:0001b750       ??4CodeOperator@gen@@QEAAAEAU01@UCode@1@@Z 000000014001c750 f   gen_src.obj
 0001:0001b7c0       ??8CodeOperator@gen@@QEAA_NUCode@1@@Z 000000014001c7c0 f   gen_src.obj
 0001:0001b800       ??9CodeOperator@gen@@QEAA_NUCode@1@@Z 000000014001c800 f   gen_src.obj
 0001:0001b840       ??BCodeOperator@gen@@QEAA_NXZ 000000014001c840 f   gen_src.obj
 0001:0001b880       ?to_string_def@CodeOperator@gen@@QEAAXAEAUString@2@@Z 000000014001c880 f   gen_src.obj
 0001:0001bcb0       ?to_string_fwd@CodeOperator@gen@@QEAAXAEAUString@2@@Z 000000014001ccb0 f   gen_src.obj
 0001:0001c090       ?raw@CodeOperator@gen@@QEAAPEAUAST@2@XZ 000000014001d090 f   gen_src.obj
 0001:0001c0b0       ??BCodeOperator@gen@@QEAA?AUCode@1@XZ 000000014001d0b0 f   gen_src.obj
 0001:0001c0e0       ??CCodeOperator@gen@@QEAAPEAUAST_Operator@1@XZ 000000014001d0e0 f   gen_src.obj
 0001:0001c190       ?debug_str@CodeOpCast@gen@@QEAAPEBDXZ 000000014001d190 f   gen_src.obj
 0001:0001c1d0       ?duplicate@CodeOpCast@gen@@QEAA?AUCode@2@XZ 000000014001d1d0 f   gen_src.obj
 0001:0001c2a0       ?is_equal@CodeOpCast@gen@@QEAA_NUCode@2@@Z 000000014001d2a0 f   gen_src.obj
 0001:0001c360       ?is_valid@CodeOpCast@gen@@QEAA_NXZ 000000014001d360 f   gen_src.obj
 0001:0001c3b0       ?set_global@CodeOpCast@gen@@QEAAXXZ 000000014001d3b0 f   gen_src.obj
 0001:0001c460       ?to_string@CodeOpCast@gen@@QEAA?AUString@2@XZ 000000014001d460 f   gen_src.obj
 0001:0001c500       ??4CodeOpCast@gen@@QEAAAEAU01@UCode@1@@Z 000000014001d500 f   gen_src.obj
 0001:0001c570       ??8CodeOpCast@gen@@QEAA_NUCode@1@@Z 000000014001d570 f   gen_src.obj
 0001:0001c5b0       ??9CodeOpCast@gen@@QEAA_NUCode@1@@Z 000000014001d5b0 f   gen_src.obj
 0001:0001c5f0       ??BCodeOpCast@gen@@QEAA_NXZ 000000014001d5f0 f   gen_src.obj
 0001:0001c630       ?to_string_def@CodeOpCast@gen@@QEAAXAEAUString@2@@Z 000000014001d630 f   gen_src.obj
 0001:0001c970       ?to_string_fwd@CodeOpCast@gen@@QEAAXAEAUString@2@@Z 000000014001d970 f   gen_src.obj
 0001:0001cb90       ?raw@CodeOpCast@gen@@QEAAPEAUAST@2@XZ 000000014001db90 f   gen_src.obj
 0001:0001cbb0       ??BCodeOpCast@gen@@QEAA?AUCode@1@XZ 000000014001dbb0 f   gen_src.obj
 0001:0001cbe0       ??CCodeOpCast@gen@@QEAAPEAUAST_OpCast@1@XZ 000000014001dbe0 f   gen_src.obj
 0001:0001cc90       ?debug_str@CodePragma@gen@@QEAAPEBDXZ 000000014001dc90 f   gen_src.obj
 0001:0001ccd0       ?duplicate@CodePragma@gen@@QEAA?AUCode@2@XZ 000000014001dcd0 f   gen_src.obj
 0001:0001cda0       ?is_equal@CodePragma@gen@@QEAA_NUCode@2@@Z 000000014001dda0 f   gen_src.obj
 0001:0001ce60       ?is_valid@CodePragma@gen@@QEAA_NXZ 000000014001de60 f   gen_src.obj
 0001:0001ceb0       ?set_global@CodePragma@gen@@QEAAXXZ 000000014001deb0 f   gen_src.obj
 0001:0001cf60       ?to_string@CodePragma@gen@@QEAA?AUString@2@XZ 000000014001df60 f   gen_src.obj
 0001:0001cfd0       ??4CodePragma@gen@@QEAAAEAU01@UCode@1@@Z 000000014001dfd0 f   gen_src.obj
 0001:0001d040       ??8CodePragma@gen@@QEAA_NUCode@1@@Z 000000014001e040 f   gen_src.obj
 0001:0001d080       ??9CodePragma@gen@@QEAA_NUCode@1@@Z 000000014001e080 f   gen_src.obj
 0001:0001d0c0       ??BCodePragma@gen@@QEAA_NXZ 000000014001e0c0 f   gen_src.obj
 0001:0001d100       ?to_string@CodePragma@gen@@QEAAXAEAUString@2@@Z 000000014001e100 f   gen_src.obj
 0001:0001d140       ?raw@CodePragma@gen@@QEAAPEAUAST@2@XZ 000000014001e140 f   gen_src.obj
 0001:0001d160       ??BCodePragma@gen@@QEAA?AUCode@1@XZ 000000014001e160 f   gen_src.obj
 0001:0001d190       ??CCodePragma@gen@@QEAAPEAUAST_Pragma@1@XZ 000000014001e190 f   gen_src.obj
 0001:0001d240       ?debug_str@CodePreprocessCond@gen@@QEAAPEBDXZ 000000014001e240 f   gen_src.obj
 0001:0001d280       ?duplicate@CodePreprocessCond@gen@@QEAA?AUCode@2@XZ 000000014001e280 f   gen_src.obj
 0001:0001d350       ?is_equal@CodePreprocessCond@gen@@QEAA_NUCode@2@@Z 000000014001e350 f   gen_src.obj
 0001:0001d410       ?is_valid@CodePreprocessCond@gen@@QEAA_NXZ 000000014001e410 f   gen_src.obj
 0001:0001d460       ?set_global@CodePreprocessCond@gen@@QEAAXXZ 000000014001e460 f   gen_src.obj
 0001:0001d510       ?to_string@CodePreprocessCond@gen@@QEAA?AUString@2@XZ 000000014001e510 f   gen_src.obj
 0001:0001d630       ??4CodePreprocessCond@gen@@QEAAAEAU01@UCode@1@@Z 000000014001e630 f   gen_src.obj
 0001:0001d6a0       ??8CodePreprocessCond@gen@@QEAA_NUCode@1@@Z 000000014001e6a0 f   gen_src.obj
 0001:0001d6e0       ??9CodePreprocessCond@gen@@QEAA_NUCode@1@@Z 000000014001e6e0 f   gen_src.obj
 0001:0001d720       ??BCodePreprocessCond@gen@@QEAA_NXZ 000000014001e720 f   gen_src.obj
 0001:0001d760       ?to_string_if@CodePreprocessCond@gen@@QEAAXAEAUString@2@@Z 000000014001e760 f   gen_src.obj
 0001:0001d7a0       ?to_string_ifdef@CodePreprocessCond@gen@@QEAAXAEAUString@2@@Z 000000014001e7a0 f   gen_src.obj
 0001:0001d7e0       ?to_string_ifndef@CodePreprocessCond@gen@@QEAAXAEAUString@2@@Z 000000014001e7e0 f   gen_src.obj
 0001:0001d820       ?to_string_elif@CodePreprocessCond@gen@@QEAAXAEAUString@2@@Z 000000014001e820 f   gen_src.obj
 0001:0001d860       ?to_string_else@CodePreprocessCond@gen@@QEAAXAEAUString@2@@Z 000000014001e860 f   gen_src.obj
 0001:0001d890       ?to_string_endif@CodePreprocessCond@gen@@QEAAXAEAUString@2@@Z 000000014001e890 f   gen_src.obj
 0001:0001d8c0       ?raw@CodePreprocessCond@gen@@QEAAPEAUAST@2@XZ 000000014001e8c0 f   gen_src.obj
 0001:0001d8e0       ??BCodePreprocessCond@gen@@QEAA?AUCode@1@XZ 000000014001e8e0 f   gen_src.obj
 0001:0001d910       ??CCodePreprocessCond@gen@@QEAAPEAUAST_PreprocessCond@1@XZ 000000014001e910 f   gen_src.obj
 0001:0001d9c0       ?debug_str@CodeTemplate@gen@@QEAAPEBDXZ 000000014001e9c0 f   gen_src.obj
 0001:0001da00       ?duplicate@CodeTemplate@gen@@QEAA?AUCode@2@XZ 000000014001ea00 f   gen_src.obj
 0001:0001dad0       ?is_equal@CodeTemplate@gen@@QEAA_NUCode@2@@Z 000000014001ead0 f   gen_src.obj
 0001:0001db90       ?is_valid@CodeTemplate@gen@@QEAA_NXZ 000000014001eb90 f   gen_src.obj
 0001:0001dbe0       ?set_global@CodeTemplate@gen@@QEAAXXZ 000000014001ebe0 f   gen_src.obj
 0001:0001dc90       ?to_string@CodeTemplate@gen@@QEAA?AUString@2@XZ 000000014001ec90 f   gen_src.obj
 0001:0001dd00       ??4CodeTemplate@gen@@QEAAAEAU01@UCode@1@@Z 000000014001ed00 f   gen_src.obj
 0001:0001dd70       ??8CodeTemplate@gen@@QEAA_NUCode@1@@Z 000000014001ed70 f   gen_src.obj
 0001:0001ddb0       ??9CodeTemplate@gen@@QEAA_NUCode@1@@Z 000000014001edb0 f   gen_src.obj
 0001:0001ddf0       ??BCodeTemplate@gen@@QEAA_NXZ 000000014001edf0 f   gen_src.obj
 0001:0001de30       ?to_string@CodeTemplate@gen@@QEAAXAEAUString@2@@Z 000000014001ee30 f   gen_src.obj
 0001:0001df10       ?raw@CodeTemplate@gen@@QEAAPEAUAST@2@XZ 000000014001ef10 f   gen_src.obj
 0001:0001df30       ??BCodeTemplate@gen@@QEAA?AUCode@1@XZ 000000014001ef30 f   gen_src.obj
 0001:0001df60       ??CCodeTemplate@gen@@QEAAPEAUAST_Template@1@XZ 000000014001ef60 f   gen_src.obj
 0001:0001e010       ?debug_str@CodeType@gen@@QEAAPEBDXZ 000000014001f010 f   gen_src.obj
 0001:0001e050       ?duplicate@CodeType@gen@@QEAA?AUCode@2@XZ 000000014001f050 f   gen_src.obj
 0001:0001e120       ?is_equal@CodeType@gen@@QEAA_NUCode@2@@Z 000000014001f120 f   gen_src.obj
 0001:0001e1e0       ?is_valid@CodeType@gen@@QEAA_NXZ 000000014001f1e0 f   gen_src.obj
 0001:0001e230       ?set_global@CodeType@gen@@QEAAXXZ 000000014001f230 f   gen_src.obj
 0001:0001e2e0       ?to_string@CodeType@gen@@QEAA?AUString@2@XZ 000000014001f2e0 f   gen_src.obj
 0001:0001e350       ??4CodeType@gen@@QEAAAEAU01@UCode@1@@Z 000000014001f350 f   gen_src.obj
 0001:0001e3c0       ??8CodeType@gen@@QEAA_NUCode@1@@Z 000000014001f3c0 f   gen_src.obj
 0001:0001e400       ??9CodeType@gen@@QEAA_NUCode@1@@Z 000000014001f400 f   gen_src.obj
 0001:0001e440       ??BCodeType@gen@@QEAA_NXZ  000000014001f440 f   gen_src.obj
 0001:0001e480       ?to_string@CodeType@gen@@QEAAXAEAUString@2@@Z 000000014001f480 f   gen_src.obj
 0001:0001e7b0       ?raw@CodeType@gen@@QEAAPEAUAST@2@XZ 000000014001f7b0 f   gen_src.obj
 0001:0001e7d0       ??BCodeType@gen@@QEAA?AUCode@1@XZ 000000014001f7d0 f   gen_src.obj
 0001:0001e800       ??CCodeType@gen@@QEAAPEAUAST_Type@1@XZ 000000014001f800 f   gen_src.obj
 0001:0001e8b0       ?debug_str@CodeTypedef@gen@@QEAAPEBDXZ 000000014001f8b0 f   gen_src.obj
 0001:0001e8f0       ?duplicate@CodeTypedef@gen@@QEAA?AUCode@2@XZ 000000014001f8f0 f   gen_src.obj
 0001:0001e9c0       ?is_equal@CodeTypedef@gen@@QEAA_NUCode@2@@Z 000000014001f9c0 f   gen_src.obj
 0001:0001ea80       ?is_valid@CodeTypedef@gen@@QEAA_NXZ 000000014001fa80 f   gen_src.obj
 0001:0001ead0       ?set_global@CodeTypedef@gen@@QEAAXXZ 000000014001fad0 f   gen_src.obj
 0001:0001eb80       ?to_string@CodeTypedef@gen@@QEAA?AUString@2@XZ 000000014001fb80 f   gen_src.obj
 0001:0001ebf0       ??4CodeTypedef@gen@@QEAAAEAU01@UCode@1@@Z 000000014001fbf0 f   gen_src.obj
 0001:0001ec60       ??8CodeTypedef@gen@@QEAA_NUCode@1@@Z 000000014001fc60 f   gen_src.obj
 0001:0001eca0       ??9CodeTypedef@gen@@QEAA_NUCode@1@@Z 000000014001fca0 f   gen_src.obj
 0001:0001ece0       ??BCodeTypedef@gen@@QEAA_NXZ 000000014001fce0 f   gen_src.obj
 0001:0001ed20       ?to_string@CodeTypedef@gen@@QEAAXAEAUString@2@@Z 000000014001fd20 f   gen_src.obj
 0001:0001ef30       ?raw@CodeTypedef@gen@@QEAAPEAUAST@2@XZ 000000014001ff30 f   gen_src.obj
 0001:0001ef50       ??BCodeTypedef@gen@@QEAA?AUCode@1@XZ 000000014001ff50 f   gen_src.obj
 0001:0001ef80       ??CCodeTypedef@gen@@QEAAPEAUAST_Typedef@1@XZ 000000014001ff80 f   gen_src.obj
 0001:0001f030       ?debug_str@CodeUnion@gen@@QEAAPEBDXZ 0000000140020030 f   gen_src.obj
 0001:0001f070       ?duplicate@CodeUnion@gen@@QEAA?AUCode@2@XZ 0000000140020070 f   gen_src.obj
 0001:0001f140       ?is_equal@CodeUnion@gen@@QEAA_NUCode@2@@Z 0000000140020140 f   gen_src.obj
 0001:0001f200       ?is_valid@CodeUnion@gen@@QEAA_NXZ 0000000140020200 f   gen_src.obj
 0001:0001f250       ?set_global@CodeUnion@gen@@QEAAXXZ 0000000140020250 f   gen_src.obj
 0001:0001f300       ?to_string@CodeUnion@gen@@QEAA?AUString@2@XZ 0000000140020300 f   gen_src.obj
 0001:0001f370       ??4CodeUnion@gen@@QEAAAEAU01@UCode@1@@Z 0000000140020370 f   gen_src.obj
 0001:0001f3e0       ??8CodeUnion@gen@@QEAA_NUCode@1@@Z 00000001400203e0 f   gen_src.obj
 0001:0001f420       ??9CodeUnion@gen@@QEAA_NUCode@1@@Z 0000000140020420 f   gen_src.obj
 0001:0001f460       ??BCodeUnion@gen@@QEAA_NXZ 0000000140020460 f   gen_src.obj
 0001:0001f4a0       ?to_string@CodeUnion@gen@@QEAAXAEAUString@2@@Z 00000001400204a0 f   gen_src.obj
 0001:0001f610       ?raw@CodeUnion@gen@@QEAAPEAUAST@2@XZ 0000000140020610 f   gen_src.obj
 0001:0001f630       ??BCodeUnion@gen@@QEAA?AUCode@1@XZ 0000000140020630 f   gen_src.obj
 0001:0001f660       ??CCodeUnion@gen@@QEAAPEAUAST_Union@1@XZ 0000000140020660 f   gen_src.obj
 0001:0001f710       ?debug_str@CodeUsing@gen@@QEAAPEBDXZ 0000000140020710 f   gen_src.obj
 0001:0001f750       ?duplicate@CodeUsing@gen@@QEAA?AUCode@2@XZ 0000000140020750 f   gen_src.obj
 0001:0001f820       ?is_equal@CodeUsing@gen@@QEAA_NUCode@2@@Z 0000000140020820 f   gen_src.obj
 0001:0001f8e0       ?is_valid@CodeUsing@gen@@QEAA_NXZ 00000001400208e0 f   gen_src.obj
 0001:0001f930       ?set_global@CodeUsing@gen@@QEAAXXZ 0000000140020930 f   gen_src.obj
 0001:0001f9e0       ?to_string@CodeUsing@gen@@QEAA?AUString@2@XZ 00000001400209e0 f   gen_src.obj
 0001:0001fa80       ??4CodeUsing@gen@@QEAAAEAU01@UCode@1@@Z 0000000140020a80 f   gen_src.obj
 0001:0001faf0       ??8CodeUsing@gen@@QEAA_NUCode@1@@Z 0000000140020af0 f   gen_src.obj
 0001:0001fb30       ??9CodeUsing@gen@@QEAA_NUCode@1@@Z 0000000140020b30 f   gen_src.obj
 0001:0001fb70       ??BCodeUsing@gen@@QEAA_NXZ 0000000140020b70 f   gen_src.obj
 0001:0001fbb0       ?to_string@CodeUsing@gen@@QEAAXAEAUString@2@@Z 0000000140020bb0 f   gen_src.obj
 0001:0001fde0       ?to_string_ns@CodeUsing@gen@@QEAAXAEAUString@2@@Z 0000000140020de0 f   gen_src.obj
 0001:0001fe60       ?raw@CodeUsing@gen@@QEAAPEAUAST@2@XZ 0000000140020e60 f   gen_src.obj
 0001:0001fe80       ??BCodeUsing@gen@@QEAA?AUCode@1@XZ 0000000140020e80 f   gen_src.obj
 0001:0001feb0       ??CCodeUsing@gen@@QEAAPEAUAST_Using@1@XZ 0000000140020eb0 f   gen_src.obj
 0001:0001ff60       ?debug_str@CodeVar@gen@@QEAAPEBDXZ 0000000140020f60 f   gen_src.obj
 0001:0001ffa0       ?duplicate@CodeVar@gen@@QEAA?AUCode@2@XZ 0000000140020fa0 f   gen_src.obj
 0001:00020070       ?is_equal@CodeVar@gen@@QEAA_NUCode@2@@Z 0000000140021070 f   gen_src.obj
 0001:00020130       ?is_valid@CodeVar@gen@@QEAA_NXZ 0000000140021130 f   gen_src.obj
 0001:00020180       ?set_global@CodeVar@gen@@QEAAXXZ 0000000140021180 f   gen_src.obj
 0001:00020230       ?to_string@CodeVar@gen@@QEAA?AUString@2@XZ 0000000140021230 f   gen_src.obj
 0001:000202a0       ??4CodeVar@gen@@QEAAAEAU01@UCode@1@@Z 00000001400212a0 f   gen_src.obj
 0001:00020310       ??8CodeVar@gen@@QEAA_NUCode@1@@Z 0000000140021310 f   gen_src.obj
 0001:00020350       ??9CodeVar@gen@@QEAA_NUCode@1@@Z 0000000140021350 f   gen_src.obj
 0001:00020390       ??BCodeVar@gen@@QEAA_NXZ   0000000140021390 f   gen_src.obj
 0001:000203d0       ?to_string@CodeVar@gen@@QEAAXAEAUString@2@@Z 00000001400213d0 f   gen_src.obj
 0001:00020d10       ?raw@CodeVar@gen@@QEAAPEAUAST@2@XZ 0000000140021d10 f   gen_src.obj
 0001:00020d30       ??BCodeVar@gen@@QEAA?AUCode@1@XZ 0000000140021d30 f   gen_src.obj
 0001:00020d60       ??CCodeVar@gen@@QEAAPEAUAST_Var@1@XZ 0000000140021d60 f   gen_src.obj
 0001:00020e10       ?init@gen@@YAXXZ           0000000140021e10 f   gen_src.obj
 0001:000215e0       ?deinit@gen@@YAXXZ         00000001400225e0 f   gen_src.obj
 0001:00021760       ?reset@gen@@YAXXZ          0000000140022760 f   gen_src.obj
 0001:00021840       ?get_cached_string@gen@@YA?BUString@1@UStrC@1@@Z 0000000140022840 f   gen_src.obj
 0001:00021990       ?make_code@gen@@YA?AUCode@1@XZ 0000000140022990 f   gen_src.obj
 0001:00021be0       ?set_allocator_data_arrays@gen@@YAXUAllocatorInfo@1@@Z 0000000140022be0 f   gen_src.obj
 0001:00021c10       ?set_allocator_code_pool@gen@@YAXUAllocatorInfo@1@@Z 0000000140022c10 f   gen_src.obj
 0001:00021c40       ?set_allocator_lexer@gen@@YAXUAllocatorInfo@1@@Z 0000000140022c40 f   gen_src.obj
 0001:00021c70       ?set_allocator_string_arena@gen@@YAXUAllocatorInfo@1@@Z 0000000140022c70 f   gen_src.obj
 0001:00021ca0       ?set_allocator_string_table@gen@@YAXUAllocatorInfo@1@@Z 0000000140022ca0 f   gen_src.obj
 0001:00021cd0       ?def_attributes@gen@@YA?AUCodeAttributes@1@UStrC@1@@Z 0000000140022cd0 f   gen_src.obj
 0001:00021e40       ?def_comment@gen@@YA?AUCodeComment@1@UStrC@1@@Z 0000000140022e40 f   gen_src.obj
 0001:00022130       ?def_class@gen@@YA?AUCodeClass@1@UStrC@1@UCode@1@UCodeType@1@W4AccessSpec@1@UCodeAttributes@1@W4ModuleFlag@1@PEAU51@H@Z 0000000140023130 f   gen_src.obj
 0001:00022730       ?def_constructor@gen@@YA?AUCodeConstructor@1@UCodeParam@1@UCode@1@1@Z 0000000140023730 f   gen_src.obj
 0001:000229a0       ?def_define@gen@@YA?AUCodeDefine@1@UStrC@1@0@Z 00000001400239a0 f   gen_src.obj
 0001:00022c60       ?def_destructor@gen@@YA?AUCodeDestructor@1@UCode@1@UCodeSpecifiers@1@@Z 0000000140023c60 f   gen_src.obj
 0001:00022ea0       ?def_enum@gen@@YA?AUCodeEnum@1@UStrC@1@UCode@1@UCodeType@1@W4EnumT@1@UCodeAttributes@1@W4ModuleFlag@1@@Z 0000000140023ea0 f   gen_src.obj
 0001:000234b0       ?def_execution@gen@@YA?AUCodeExec@1@UStrC@1@@Z 00000001400244b0 f   gen_src.obj
 0001:00023620       ?def_extern_link@gen@@YA?AUCodeExtern@1@UStrC@1@UCode@1@@Z 0000000140024620 f   gen_src.obj
 0001:000239c0       ?def_friend@gen@@YA?AUCodeFriend@1@UCode@1@@Z 00000001400249c0 f   gen_src.obj
 0001:00023c00       ?def_function@gen@@YA?AUCodeFn@1@UStrC@1@UCodeParam@1@UCodeType@1@UCode@1@UCodeSpecifiers@1@UCodeAttributes@1@W4ModuleFlag@1@@Z 0000000140024c00 f   gen_src.obj
 0001:00024340       ?def_include@gen@@YA?AUCodeInclude@1@UStrC@1@_N@Z 0000000140025340 f   gen_src.obj
 0001:000245d0       ?def_module@gen@@YA?AUCodeModule@1@UStrC@1@W4ModuleFlag@1@@Z 00000001400255d0 f   gen_src.obj
 0001:00024800       ?def_namespace@gen@@YA?AUCodeNS@1@UStrC@1@UCode@1@W4ModuleFlag@1@@Z 0000000140025800 f   gen_src.obj
 0001:00024ba0       ?def_operator@gen@@YA?AUCodeOperator@1@W4Type@EOperator@1@UStrC@1@UCodeParam@1@UCodeType@1@UCode@1@UCodeSpecifiers@1@UCodeAttributes@1@W4ModuleFlag@1@@Z 0000000140025ba0 f   gen_src.obj
 0001:00025120       ?def_operator_cast@gen@@YA?AUCodeOpCast@1@UCodeType@1@UCode@1@UCodeSpecifiers@1@@Z 0000000140026120 f   gen_src.obj
 0001:00025410       ?def_param@gen@@YA?AUCodeParam@1@UCodeType@1@UStrC@1@UCode@1@@Z 0000000140026410 f   gen_src.obj
 0001:000258b0       ?def_pragma@gen@@YA?AUCodePragma@1@UStrC@1@@Z 00000001400268b0 f   gen_src.obj
 0001:000259f0       ?def_preprocess_cond@gen@@YA?AUCodePreprocessCond@1@W4EPreprocessCond@1@UStrC@1@@Z 00000001400269f0 f   gen_src.obj
 0001:00025ba0       ?def_specifier@gen@@YA?AUCodeSpecifiers@1@W4Type@ESpecifier@1@@Z 0000000140026ba0 f   gen_src.obj
 0001:00025bf0       ?def_struct@gen@@YA?AUCodeStruct@1@UStrC@1@UCode@1@UCodeType@1@W4AccessSpec@1@UCodeAttributes@1@W4ModuleFlag@1@PEAU51@H@Z 0000000140026bf0 f   gen_src.obj
 0001:00026020       ?def_template@gen@@YA?AUCodeTemplate@1@UCodeParam@1@UCode@1@W4ModuleFlag@1@@Z 0000000140027020 f   gen_src.obj
 0001:000262e0       ?def_type@gen@@YA?AUCodeType@1@UStrC@1@UCode@1@UCodeSpecifiers@1@UCodeAttributes@1@@Z 00000001400272e0 f   gen_src.obj
 0001:000267e0       ?def_typedef@gen@@YA?AUCodeTypedef@1@UStrC@1@UCode@1@UCodeAttributes@1@W4ModuleFlag@1@@Z 00000001400277e0 f   gen_src.obj
 0001:00026e10       ?def_union@gen@@YA?AUCodeUnion@1@UStrC@1@UCode@1@UCodeAttributes@1@W4ModuleFlag@1@@Z 0000000140027e10 f   gen_src.obj
 0001:00027150       ?def_using@gen@@YA?AUCodeUsing@1@UStrC@1@UCodeType@1@UCodeAttributes@1@W4ModuleFlag@1@@Z 0000000140028150 f   gen_src.obj
 0001:00027640       ?def_using_namespace@gen@@YA?AUCodeUsing@1@UStrC@1@@Z 0000000140028640 f   gen_src.obj
 0001:00027860       ?def_variable@gen@@YA?AUCodeVar@1@UCodeType@1@UStrC@1@UCode@1@UCodeSpecifiers@1@UCodeAttributes@1@W4ModuleFlag@1@@Z 0000000140028860 f   gen_src.obj
 0001:00027ef0       ?def_body@gen@@YA?AUCodeBody@1@W4Type@ECode@1@@Z 0000000140028ef0 f   gen_src.obj
 0001:000280a0       ?def_class_body@gen@@YA?AUCodeBody@1@HZZ 00000001400290a0 f   gen_src.obj
 0001:00028440       ?def_class_body@gen@@YA?AUCodeBody@1@HPEAUCode@1@@Z 0000000140029440 f   gen_src.obj
 0001:00028800       ?def_enum_body@gen@@YA?AUCodeBody@1@HZZ 0000000140029800 f   gen_src.obj
 0001:00028b10       ?def_enum_body@gen@@YA?AUCodeBody@1@HPEAUCode@1@@Z 0000000140029b10 f   gen_src.obj
 0001:00028e40       ?def_export_body@gen@@YA?AUCodeBody@1@HZZ 0000000140029e40 f   gen_src.obj
 0001:000291e0       ?def_export_body@gen@@YA?AUCodeBody@1@HPEAUCode@1@@Z 000000014002a1e0 f   gen_src.obj
 0001:000295a0       ?def_extern_link_body@gen@@YA?AUCodeBody@1@HZZ 000000014002a5a0 f   gen_src.obj
 0001:00029940       ?def_extern_link_body@gen@@YA?AUCodeBody@1@HPEAUCode@1@@Z 000000014002a940 f   gen_src.obj
 0001:00029d00       ?def_function_body@gen@@YA?AUCodeBody@1@HZZ 000000014002ad00 f   gen_src.obj
 0001:0002a0b0       ?def_function_body@gen@@YA?AUCodeBody@1@HPEAUCode@1@@Z 000000014002b0b0 f   gen_src.obj
 0001:0002a490       ?def_global_body@gen@@YA?AUCodeBody@1@HZZ 000000014002b490 f   gen_src.obj
 0001:0002a850       ?def_global_body@gen@@YA?AUCodeBody@1@HPEAUCode@1@@Z 000000014002b850 f   gen_src.obj
 0001:0002ac50       ?def_namespace_body@gen@@YA?AUCodeBody@1@HZZ 000000014002bc50 f   gen_src.obj
 0001:0002aff0       ?def_namespace_body@gen@@YA?AUCodeBody@1@HPEAUCode@1@@Z 000000014002bff0 f   gen_src.obj
 0001:0002b3b0       ?def_params@gen@@YA?AUCodeParam@1@HZZ 000000014002c3b0 f   gen_src.obj
 0001:0002b7d0       ?def_params@gen@@YA?AUCodeParam@1@HPEAU21@@Z 000000014002c7d0 f   gen_src.obj
 0001:0002bce0       ?def_specifiers@gen@@YA?AUCodeSpecifiers@1@HZZ 000000014002cce0 f   gen_src.obj
 0001:0002bef0       ?def_specifiers@gen@@YA?AUCodeSpecifiers@1@HPEAW4Type@ESpecifier@1@@Z 000000014002cef0 f   gen_src.obj
 0001:0002c0b0       ?def_struct_body@gen@@YA?AUCodeBody@1@HZZ 000000014002d0b0 f   gen_src.obj
 0001:0002c450       ?def_struct_body@gen@@YA?AUCodeBody@1@HPEAUCode@1@@Z 000000014002d450 f   gen_src.obj
 0001:0002c810       ?def_union_body@gen@@YA?AUCodeBody@1@HZZ 000000014002d810 f   gen_src.obj
 0001:0002cb10       ?parse_class@gen@@YA?AUCodeClass@1@UStrC@1@@Z 000000014002db10 f   gen_src.obj
 0001:0002cdf0       ?parse_constructor@gen@@YA?AUCodeConstructor@1@UStrC@1@@Z 000000014002ddf0 f   gen_src.obj
 0001:0002d310       ?parse_destructor@gen@@YA?AUCodeDestructor@1@UStrC@1@@Z 000000014002e310 f   gen_src.obj
 0001:0002d550       ?parse_enum@gen@@YA?AUCodeEnum@1@UStrC@1@@Z 000000014002e550 f   gen_src.obj
 0001:0002d780       ?parse_export_body@gen@@YA?AUCodeBody@1@UStrC@1@@Z 000000014002e780 f   gen_src.obj
 0001:0002d9a0       ?parse_extern_link@gen@@YA?AUCodeExtern@1@UStrC@1@@Z 000000014002e9a0 f   gen_src.obj
 0001:0002dbc0       ?parse_friend@gen@@YA?AUCodeFriend@1@UStrC@1@@Z 000000014002ebc0 f   gen_src.obj
 0001:0002dde0       ?parse_function@gen@@YA?AUCodeFn@1@UStrC@1@@Z 000000014002ede0 f   gen_src.obj
 0001:0002e010       ?parse_global_body@gen@@YA?AUCodeBody@1@UStrC@1@@Z 000000014002f010 f   gen_src.obj
 0001:0002e2e0       ?parse_namespace@gen@@YA?AUCodeNS@1@UStrC@1@@Z 000000014002f2e0 f   gen_src.obj
 0001:0002e500       ?parse_operator@gen@@YA?AUCodeOperator@1@UStrC@1@@Z 000000014002f500 f   gen_src.obj
 0001:0002e730       ?parse_operator_cast@gen@@YA?AUCodeOpCast@1@UStrC@1@@Z 000000014002f730 f   gen_src.obj
 0001:0002e960       ?parse_struct@gen@@YA?AUCodeStruct@1@UStrC@1@@Z 000000014002f960 f   gen_src.obj
 0001:0002ec40       ?parse_template@gen@@YA?AUCodeTemplate@1@UStrC@1@@Z 000000014002fc40 f   gen_src.obj
 0001:0002ee60       ?parse_type@gen@@YA?AUCodeType@1@UStrC@1@@Z 000000014002fe60 f   gen_src.obj
 0001:0002f080       ?parse_typedef@gen@@YA?AUCodeTypedef@1@UStrC@1@@Z 0000000140030080 f   gen_src.obj
 0001:0002f2a0       ?parse_union@gen@@YA?AUCodeUnion@1@UStrC@1@@Z 00000001400302a0 f   gen_src.obj
 0001:0002f4c0       ?parse_using@gen@@YA?AUCodeUsing@1@UStrC@1@@Z 00000001400304c0 f   gen_src.obj
 0001:0002f6e0       ?parse_variable@gen@@YA?AUCodeVar@1@UStrC@1@@Z 00000001400306e0 f   gen_src.obj
 0001:0002f900       ?token_fmt_va@gen@@YA_JPEAD_KH0@Z 0000000140030900 f   gen_src.obj
 0001:0002fe30       ?token_fmt_impl@gen@@YA?AUStrC@1@_JZZ 0000000140030e30 f   gen_src.obj
 0001:0002ff10       ?untyped_str@gen@@YA?AUCode@1@UStrC@1@@Z 0000000140030f10 f   gen_src.obj
 0001:00030150       ?untyped_fmt@gen@@YA?AUCode@1@PEBDZZ 0000000140031150 f   gen_src.obj
 0001:000312d0       ?vm_purge@gen@@YAHUVirtualMemory@1@@Z 00000001400322d0 f   gen_src.obj
 0001:00031310       ?virtual_memory_page_size@gen@@YA_JPEA_J@Z 0000000140032310 f   gen_src.obj
 0001:00031750       ?_win32_file_open@gen@@YA?AW4FileError@1@PEATFileDescriptor@1@PEAUFileOperations@1@IPEBD@Z 0000000140032750 f   gen_src.obj
 0001:00031a60       ?file_new@gen@@YA?AW4FileError@1@PEAUFileInfo@1@TFileDescriptor@1@UFileOperations@1@PEBD@Z 0000000140032a60 f   gen_src.obj
 0001:00034290       ?get_string_allocator@gen@@YA?AUAllocatorInfo@1@H@Z 0000000140035290 f   gen_src.obj
 0001:00034440       ?operator__validate@gen@@YA?AW4OpValidateResult@1@W4Type@EOperator@1@UCodeParam@1@UCodeType@1@UCodeSpecifiers@1@@Z 0000000140035440 f   gen_src.obj
 0001:00036570       ?def_union_body@gen@@YA?AUCodeBody@1@HPEAUCodeUnion@1@@Z 0000000140037570 f   gen_src.obj
 0001:000368d0       ?to_str@ETokType@parser@gen@@YA?AUStrC@3@W4Type@123@@Z 00000001400378d0 f   gen_src.obj
 0001:00036910       ?to_type@ETokType@parser@gen@@YA?AW4Type@123@UStrC@3@@Z 0000000140037910 f   gen_src.obj
 0001:00036a20       ?__eat@TokArray@parser@gen@@QEAA_NW4Type@ETokType@23@@Z 0000000140037a20 f   gen_src.obj
 0001:00036d50       ?lex@parser@gen@@YA?AUTokArray@12@UStrC@2@@Z 0000000140037d50 f   gen_src.obj
 0001:0004bbe0       ?untyped_token_fmt@gen@@YA?AUCode@1@HZZ 000000014004cbe0 f   gen_src.obj
 0001:0004beb0       ?open@Builder@gen@@SA?AU12@PEBD@Z 000000014004ceb0 f   gen_src.obj
 0001:0004c000       ?pad_lines@Builder@gen@@QEAAXH@Z 000000014004d000 f   gen_src.obj
 0001:0004c030       ?print@Builder@gen@@QEAAXUCode@2@@Z 000000014004d030 f   gen_src.obj
 0001:0004c080       ?print_fmt@Builder@gen@@QEAAXPEBDZZ 000000014004d080 f   gen_src.obj
 0001:0004c140       ?write@Builder@gen@@QEAAXXZ 000000014004d140 f   gen_src.obj
 0001:0004c270       main                       000000014004d270 f   gen_src.obj
 0001:0004c290       ??$cast@UCodeBody@gen@@@AST@gen@@QEAA?AUCodeBody@1@XZ 000000014004d290 f i gen_src.obj
 0001:0004c2c0       ??$cast@UCodeBody@gen@@@Code@gen@@QEAA?AUCodeBody@1@XZ 000000014004d2c0 f i gen_src.obj
 0001:0004c2e0       ??$cast@UCodeClass@gen@@@AST@gen@@QEAA?AUCodeClass@1@XZ 000000014004d2e0 f i gen_src.obj
 0001:0004c310       ??$cast@UCodeConstructor@gen@@@AST@gen@@QEAA?AUCodeConstructor@1@XZ 000000014004d310 f i gen_src.obj
 0001:0004c340       ??$cast@UCodeDefine@gen@@@AST@gen@@QEAA?AUCodeDefine@1@XZ 000000014004d340 f i gen_src.obj
 0001:0004c370       ??$cast@UCodeDestructor@gen@@@AST@gen@@QEAA?AUCodeDestructor@1@XZ 000000014004d370 f i gen_src.obj
 0001:0004c3a0       ??$cast@UCodeEnum@gen@@@AST@gen@@QEAA?AUCodeEnum@1@XZ 000000014004d3a0 f i gen_src.obj
 0001:0004c3d0       ??$cast@UCodeExtern@gen@@@AST@gen@@QEAA?AUCodeExtern@1@XZ 000000014004d3d0 f i gen_src.obj
 0001:0004c400       ??$cast@UCodeFn@gen@@@AST@gen@@QEAA?AUCodeFn@1@XZ 000000014004d400 f i gen_src.obj
 0001:0004c430       ??$cast@UCodeFriend@gen@@@AST@gen@@QEAA?AUCodeFriend@1@XZ 000000014004d430 f i gen_src.obj
 0001:0004c460       ??$cast@UCodeInclude@gen@@@AST@gen@@QEAA?AUCodeInclude@1@XZ 000000014004d460 f i gen_src.obj
 0001:0004c490       ??$cast@UCodeModule@gen@@@AST@gen@@QEAA?AUCodeModule@1@XZ 000000014004d490 f i gen_src.obj
 0001:0004c4c0       ??$cast@UCodeNS@gen@@@AST@gen@@QEAA?AUCodeNS@1@XZ 000000014004d4c0 f i gen_src.obj
 0001:0004c4f0       ??$cast@UCodeOpCast@gen@@@AST@gen@@QEAA?AUCodeOpCast@1@XZ 000000014004d4f0 f i gen_src.obj
 0001:0004c520       ??$cast@UCodeOperator@gen@@@AST@gen@@QEAA?AUCodeOperator@1@XZ 000000014004d520 f i gen_src.obj
 0001:0004c550       ??$cast@UCodeParam@gen@@@AST@gen@@QEAA?AUCodeParam@1@XZ 000000014004d550 f i gen_src.obj
 0001:0004c580       ??$cast@UCodePragma@gen@@@AST@gen@@QEAA?AUCodePragma@1@XZ 000000014004d580 f i gen_src.obj
 0001:0004c5b0       ??$cast@UCodePreprocessCond@gen@@@AST@gen@@QEAA?AUCodePreprocessCond@1@XZ 000000014004d5b0 f i gen_src.obj
 0001:0004c5e0       ??$cast@UCodeSpecifiers@gen@@@AST@gen@@QEAA?AUCodeSpecifiers@1@XZ 000000014004d5e0 f i gen_src.obj
 0001:0004c610       ??$cast@UCodeStruct@gen@@@AST@gen@@QEAA?AUCodeStruct@1@XZ 000000014004d610 f i gen_src.obj
 0001:0004c640       ??$cast@UCodeTemplate@gen@@@AST@gen@@QEAA?AUCodeTemplate@1@XZ 000000014004d640 f i gen_src.obj
 0001:0004c670       ??$cast@UCodeType@gen@@@AST@gen@@QEAA?AUCodeType@1@XZ 000000014004d670 f i gen_src.obj
 0001:0004c6a0       ??$cast@UCodeType@gen@@@Code@gen@@QEAA?AUCodeType@1@XZ 000000014004d6a0 f i gen_src.obj
 0001:0004c6c0       ??$cast@UCodeTypedef@gen@@@AST@gen@@QEAA?AUCodeTypedef@1@XZ 000000014004d6c0 f i gen_src.obj
 0001:0004c6f0       ??$cast@UCodeUnion@gen@@@AST@gen@@QEAA?AUCodeUnion@1@XZ 000000014004d6f0 f i gen_src.obj
 0001:0004c720       ??$cast@UCodeUsing@gen@@@AST@gen@@QEAA?AUCodeUsing@1@XZ 000000014004d720 f i gen_src.obj
 0001:0004c750       ??$cast@UCodeVar@gen@@@AST@gen@@QEAA?AUCodeVar@1@XZ 000000014004d750 f i gen_src.obj
 0001:0004c780       ??$swap@D@gen@@YAXAEAD0@Z  000000014004d780 f i gen_src.obj
 0001:0004c7c0       ??4Entry@?$HashTable@$$CBUString@gen@@@gen@@QEAAAEAU012@AEBU012@@Z 000000014004d7c0 f i gen_src.obj
 0001:0004c820       ??4String@gen@@QEBAAEBU01@AEBU01@@Z 000000014004d820 f i gen_src.obj
 0001:0004c870       ??AString@gen@@QEAAAEAD_J@Z 000000014004d870 f i gen_src.obj
 0001:0004c890       ??ATokArray@parser@gen@@QEAAAEAUToken@12@H@Z 000000014004d890 f i gen_src.obj
 0001:0004c8c0       ??B?$Array@E@gen@@QEAAPEAEXZ 000000014004d8c0 f i gen_src.obj
 0001:0004c8d0       ??B?$Array@UArena@gen@@@gen@@QEAAPEAUArena@1@XZ 000000014004d8d0 f i gen_src.obj
 0001:0004c8e0       ??B?$Array@UEntry@?$HashTable@$$CBUString@gen@@@gen@@@gen@@QEAAPEAUEntry@?$HashTable@$$CBUString@gen@@@1@XZ 000000014004d8e0 f i gen_src.obj
 0001:0004c8f0       ??B?$Array@UEntry@?$HashTable@UStrC@gen@@@gen@@@gen@@QEAAPEAUEntry@?$HashTable@UStrC@gen@@@1@XZ 000000014004d8f0 f i gen_src.obj
 0001:0004c900       ??B?$Array@UPool@gen@@@gen@@QEAAPEAUPool@1@XZ 000000014004d900 f i gen_src.obj
 0001:0004c910       ??B?$Array@UToken@parser@gen@@@gen@@QEAAPEAUToken@parser@1@XZ 000000014004d910 f i gen_src.obj
 0001:0004c920       ??B?$Array@_J@gen@@QEAAPEA_JXZ 000000014004d920 f i gen_src.obj
 0001:0004c930       ??B?$FixedArena@$0EAAAA@@gen@@QEAA?AUAllocatorInfo@1@XZ 000000014004d930 f i gen_src.obj
 0001:0004c960       ??BArena@gen@@QEAA?AUAllocatorInfo@1@XZ 000000014004d960 f i gen_src.obj
 0001:0004c990       ??BCodeBody@gen@@QEAA?AUCode@1@XZ 000000014004d990 f i gen_src.obj
 0001:0004c9b0       ??BCodeClass@gen@@QEAA?AUCode@1@XZ 000000014004d9b0 f i gen_src.obj
 0001:0004c9d0       ??BCodeParam@gen@@QEAA?AUCode@1@XZ 000000014004d9d0 f i gen_src.obj
 0001:0004c9f0       ??BCodeSpecifiers@gen@@QEAA?AUCode@1@XZ 000000014004d9f0 f i gen_src.obj
 0001:0004ca10       ??BCodeStruct@gen@@QEAA?AUCode@1@XZ 000000014004da10 f i gen_src.obj
 0001:0004ca30       ??BPool@gen@@QEAA?AUAllocatorInfo@1@XZ 000000014004da30 f i gen_src.obj
 0001:0004ca60       ??BStrC@gen@@QEBAPEBDXZ    000000014004da60 f i gen_src.obj
 0001:0004ca70       ??BString@gen@@QEAAPEADXZ  000000014004da70 f i gen_src.obj
 0001:0004ca80       ??BString@gen@@QEBA?AUStrC@1@XZ 000000014004da80 f i gen_src.obj
 0001:0004cac0       ??BString@gen@@QEBAPEBDXZ  000000014004dac0 f i gen_src.obj
 0001:0004cad0       ??BToken@parser@gen@@QEAA?AUStrC@2@XZ 000000014004dad0 f i gen_src.obj
 0001:0004cb10       ??BToken@parser@gen@@QEAA_NXZ 000000014004db10 f i gen_src.obj
 0001:0004cb60       ??CCode@gen@@QEAAPEAUAST@1@XZ 000000014004db60 f i gen_src.obj
 0001:0004cb70       ??CCodeBody@gen@@QEAAPEAUAST_Body@1@XZ 000000014004db70 f i gen_src.obj
 0001:0004cb80       ??CCodeClass@gen@@QEAAPEAUAST_Class@1@XZ 000000014004db80 f i gen_src.obj
 0001:0004cc20       ??CCodeParam@gen@@QEAAPEAUAST_Param@1@XZ 000000014004dc20 f i gen_src.obj
 0001:0004ccc0       ??CCodeSpecifiers@gen@@QEAAPEAUAST_Specifiers@1@XZ 000000014004dcc0 f i gen_src.obj
 0001:0004cd60       ??CCodeStruct@gen@@QEAAPEAUAST_Struct@1@XZ 000000014004dd60 f i gen_src.obj
 0001:0004ce00       ??DCode@gen@@QEAA@XZ       000000014004de00 f i gen_src.obj
 0001:0004ce40       ??DCodeParam@gen@@QEAA?AU01@XZ 000000014004de40 f i gen_src.obj
 0001:0004ce60       ?add_entry@?$HashTable@$$CBUString@gen@@@gen@@IEAA_J_K@Z 000000014004de60 f i gen_src.obj
 0001:0004cef0       ?add_entry@?$HashTable@UStrC@gen@@@gen@@IEAA_J_K@Z 000000014004def0 f i gen_src.obj
 0001:0004cf80       ?append@?$Array@UArena@gen@@@gen@@QEAA_NUArena@2@@Z 000000014004df80 f i gen_src.obj
 0001:0004d020       ?append@?$Array@UCodeType@gen@@@gen@@QEAA_NUCodeType@2@@Z 000000014004e020 f i gen_src.obj
 0001:0004d0c0       ?append@?$Array@UEntry@?$HashTable@$$CBUString@gen@@@gen@@@gen@@QEAA_NUEntry@?$HashTable@$$CBUString@gen@@@2@@Z 000000014004e0c0 f i gen_src.obj
 0001:0004d160       ?append@?$Array@UEntry@?$HashTable@UStrC@gen@@@gen@@@gen@@QEAA_NUEntry@?$HashTable@UStrC@gen@@@2@@Z 000000014004e160 f i gen_src.obj
 0001:0004d200       ?append@?$Array@UPool@gen@@@gen@@QEAA_NUPool@2@@Z 000000014004e200 f i gen_src.obj
 0001:0004d2a0       ?append@?$Array@UToken@parser@gen@@@gen@@QEAA_NUToken@parser@2@@Z 000000014004e2a0 f i gen_src.obj
 0001:0004d340       ?append@CodeBody@gen@@QEAAXU12@@Z 000000014004e340 f i gen_src.obj
 0001:0004d3c0       ?append@CodeBody@gen@@QEAAXUCode@2@@Z 000000014004e3c0 f i gen_src.obj
 0001:0004d3f0       ?append@CodeSpecifiers@gen@@QEAA_NW4Type@ESpecifier@2@@Z 000000014004e3f0 f i gen_src.obj
 0001:0004d570       ?append@String@gen@@QEAA_ND@Z 000000014004e570 f i gen_src.obj
 0001:0004d5a0       ?append@String@gen@@QEAA_NPEBD@Z 000000014004e5a0 f i gen_src.obj
 0001:0004d5d0       ?append@String@gen@@QEAA_NPEBD_J@Z 000000014004e5d0 f i gen_src.obj
 0001:0004d6a0       ?append@String@gen@@QEAA_NU12@@Z 000000014004e6a0 f i gen_src.obj
 0001:0004d6d0       ?append@String@gen@@QEAA_NUStrC@2@@Z 000000014004e6d0 f i gen_src.obj
 0001:0004d700       ?avail_space@String@gen@@QEBA_JXZ 000000014004e700 f i gen_src.obj
 0001:0004d740       ?back@?$Array@UArena@gen@@@gen@@QEAAAEAUArena@2@XZ 000000014004e740 f i gen_src.obj
 0001:0004d780       ?back@?$Array@UPool@gen@@@gen@@QEAAAEAUPool@2@XZ 000000014004e780 f i gen_src.obj
 0001:0004d7c0       ?back@?$Array@UToken@parser@gen@@@gen@@QEAAAEAUToken@parser@2@XZ 000000014004e7c0 f i gen_src.obj
 0001:0004d800       ?back@String@gen@@QEAAAEADXZ 000000014004e800 f i gen_src.obj
 0001:0004d830       ?begin@?$Array@$$CBUString@gen@@@gen@@QEAAPEBUString@2@XZ 000000014004e830 f i gen_src.obj
 0001:0004d840       ?begin@CodeBody@gen@@QEAA?AUCode@2@XZ 000000014004e840 f i gen_src.obj
 0001:0004d890       ?begin@CodeParam@gen@@QEAA?AU12@XZ 000000014004e890 f i gen_src.obj
 0001:0004d8d0       ?begin@CodeSpecifiers@gen@@QEAAPEAW4Type@ESpecifier@2@XZ 000000014004e8d0 f i gen_src.obj
 0001:0004d910       ?begin@String@gen@@QEBAPEADXZ 000000014004e910 f i gen_src.obj
 0001:0004d920       ?clear@?$Array@UEntry@?$HashTable@$$CBUString@gen@@@gen@@@gen@@QEAAXXZ 000000014004e920 f i gen_src.obj
 0001:0004d950       ?clear@?$Array@UEntry@?$HashTable@UStrC@gen@@@gen@@@gen@@QEAAXXZ 000000014004e950 f i gen_src.obj
 0001:0004d980       ?clear@?$Array@UToken@parser@gen@@@gen@@QEAAXXZ 000000014004e980 f i gen_src.obj
 0001:0004d9b0       ?clear@?$HashTable@$$CBUString@gen@@@gen@@QEAAXXZ 000000014004e9b0 f i gen_src.obj
 0001:0004da00       ?clear@?$HashTable@UStrC@gen@@@gen@@QEAAXXZ 000000014004ea00 f i gen_src.obj
 0001:0004da50       ?current@TokArray@parser@gen@@QEAAAEAUToken@23@_N@Z 000000014004ea50 f i gen_src.obj
 0001:0004dae0       ?destroy@?$HashTable@$$CBUString@gen@@@gen@@QEAAXXZ 000000014004eae0 f i gen_src.obj
 0001:0004db50       ?destroy@?$HashTable@UStrC@gen@@@gen@@QEAAXXZ 000000014004eb50 f i gen_src.obj
 0001:0004dbc0       ?duplicate@String@gen@@QEBA?AU12@UAllocatorInfo@2@@Z 000000014004ebc0 f i gen_src.obj
 0001:0004dc20       ?end@?$Array@$$CBUString@gen@@@gen@@QEAAPEBUString@2@XZ 000000014004ec20 f i gen_src.obj
 0001:0004dc50       ?end@CodeBody@gen@@QEAA?AUCode@2@XZ 000000014004ec50 f i gen_src.obj
 0001:0004dc80       ?end@CodeParam@gen@@QEAA?AU12@XZ 000000014004ec80 f i gen_src.obj
 0001:0004dca0       ?end@CodeSpecifiers@gen@@QEAAPEAW4Type@ESpecifier@2@XZ 000000014004eca0 f i gen_src.obj
 0001:0004dce0       ?end@String@gen@@QEBAPEADXZ 000000014004ece0 f i gen_src.obj
 0001:0004dd10       ?file_name@gen@@YAPEBDPEAUFileInfo@1@@Z 000000014004ed10 f i gen_src.obj
 0001:0004dd50       ?fill@?$Array@_J@gen@@QEAA_N_K0_J@Z 000000014004ed50 f i gen_src.obj
 0001:0004dde0       ?find@?$HashTable@$$CBUString@gen@@@gen@@IEAA?AUFindResult@12@_K@Z 000000014004ede0 f i gen_src.obj
 0001:0004df10       ?find@?$HashTable@UStrC@gen@@@gen@@IEAA?AUFindResult@12@_K@Z 000000014004ef10 f i gen_src.obj
 0001:0004e040       ?free@?$Array@$$CBUString@gen@@@gen@@QEAAXXZ 000000014004f040 f i gen_src.obj
 0001:0004e090       ?free@?$Array@E@gen@@QEAAXXZ 000000014004f090 f i gen_src.obj
 0001:0004e0e0       ?free@?$Array@UArena@gen@@@gen@@QEAAXXZ 000000014004f0e0 f i gen_src.obj
 0001:0004e130       ?free@?$Array@UCodeType@gen@@@gen@@QEAAXXZ 000000014004f130 f i gen_src.obj
 0001:0004e180       ?free@?$Array@UEntry@?$HashTable@$$CBUString@gen@@@gen@@@gen@@QEAAXXZ 000000014004f180 f i gen_src.obj
 0001:0004e1d0       ?free@?$Array@UEntry@?$HashTable@UStrC@gen@@@gen@@@gen@@QEAAXXZ 000000014004f1d0 f i gen_src.obj
 0001:0004e220       ?free@?$Array@UPool@gen@@@gen@@QEAAXXZ 000000014004f220 f i gen_src.obj
 0001:0004e270       ?free@?$Array@_J@gen@@QEAAXXZ 000000014004f270 f i gen_src.obj
 0001:0004e2c0       ?free@Arena@gen@@QEAAXXZ   000000014004f2c0 f i gen_src.obj
 0001:0004e320       ?free@Pool@gen@@QEAAXXZ    000000014004f320 f i gen_src.obj
 0001:0004e370       ?free@String@gen@@QEAAXXZ  000000014004f370 f i gen_src.obj
 0001:0004e3d0       ?full@?$HashTable@$$CBUString@gen@@@gen@@IEAAHXZ 000000014004f3d0 f i gen_src.obj
 0001:0004e490       ?full@?$HashTable@UStrC@gen@@@gen@@IEAAHXZ 000000014004f490 f i gen_src.obj
 0001:0004e550       ?get@?$HashTable@$$CBUString@gen@@@gen@@QEAAPEBUString@2@_K@Z 000000014004f550 f i gen_src.obj
 0001:0004e5d0       ?get@?$HashTable@UStrC@gen@@@gen@@QEAAPEAUStrC@2@_K@Z 000000014004f5d0 f i gen_src.obj
 0001:0004e650       ?get_header@?$Array@$$CBUString@gen@@@gen@@QEAAPEAUHeader@12@XZ 000000014004f650 f i gen_src.obj
 0001:0004e670       ?get_header@?$Array@E@gen@@QEAAPEAUHeader@12@XZ 000000014004f670 f i gen_src.obj
 0001:0004e690       ?get_header@?$Array@UArena@gen@@@gen@@QEAAPEAUHeader@12@XZ 000000014004f690 f i gen_src.obj
 0001:0004e6b0       ?get_header@?$Array@UCodeType@gen@@@gen@@QEAAPEAUHeader@12@XZ 000000014004f6b0 f i gen_src.obj
 0001:0004e6d0       ?get_header@?$Array@UEntry@?$HashTable@$$CBUString@gen@@@gen@@@gen@@QEAAPEAUHeader@12@XZ 000000014004f6d0 f i gen_src.obj
 0001:0004e6f0       ?get_header@?$Array@UEntry@?$HashTable@UStrC@gen@@@gen@@@gen@@QEAAPEAUHeader@12@XZ 000000014004f6f0 f i gen_src.obj
 0001:0004e710       ?get_header@?$Array@UPool@gen@@@gen@@QEAAPEAUHeader@12@XZ 000000014004f710 f i gen_src.obj
 0001:0004e730       ?get_header@?$Array@UToken@parser@gen@@@gen@@QEAAPEAUHeader@12@XZ 000000014004f730 f i gen_src.obj
 0001:0004e750       ?get_header@?$Array@_J@gen@@QEAAPEAUHeader@12@XZ 000000014004f750 f i gen_src.obj
 0001:0004e770       ?get_header@String@gen@@QEAAAEAUHeader@12@XZ 000000014004f770 f i gen_src.obj
 0001:0004e790       ?grow@?$Array@E@gen@@QEAA_N_K@Z 000000014004f790 f i gen_src.obj
 0001:0004e7f0       ?grow@?$Array@UArena@gen@@@gen@@QEAA_N_K@Z 000000014004f7f0 f i gen_src.obj
 0001:0004e850       ?grow@?$Array@UCodeType@gen@@@gen@@QEAA_N_K@Z 000000014004f850 f i gen_src.obj
 0001:0004e8b0       ?grow@?$Array@UEntry@?$HashTable@$$CBUString@gen@@@gen@@@gen@@QEAA_N_K@Z 000000014004f8b0 f i gen_src.obj
 0001:0004e910       ?grow@?$Array@UEntry@?$HashTable@UStrC@gen@@@gen@@@gen@@QEAA_N_K@Z 000000014004f910 f i gen_src.obj
 0001:0004e970       ?grow@?$Array@UPool@gen@@@gen@@QEAA_N_K@Z 000000014004f970 f i gen_src.obj
 0001:0004e9d0       ?grow@?$Array@UToken@parser@gen@@@gen@@QEAA_N_K@Z 000000014004f9d0 f i gen_src.obj
 0001:0004ea30       ?grow@?$Array@_J@gen@@QEAA_N_K@Z 000000014004fa30 f i gen_src.obj
 0001:0004ea90       ?grow@?$HashTable@$$CBUString@gen@@@gen@@QEAAXXZ 000000014004fa90 f i gen_src.obj
 0001:0004ead0       ?grow@?$HashTable@UStrC@gen@@@gen@@QEAAXXZ 000000014004fad0 f i gen_src.obj
 0001:0004eb10       ?grow_formula@?$Array@E@gen@@SA_K_K@Z 000000014004fb10 f i gen_src.obj
 0001:0004eb20       ?grow_formula@?$Array@UArena@gen@@@gen@@SA_K_K@Z 000000014004fb20 f i gen_src.obj
 0001:0004eb30       ?grow_formula@?$Array@UCodeType@gen@@@gen@@SA_K_K@Z 000000014004fb30 f i gen_src.obj
 0001:0004eb40       ?grow_formula@?$Array@UEntry@?$HashTable@$$CBUString@gen@@@gen@@@gen@@SA_K_K@Z 000000014004fb40 f i gen_src.obj
 0001:0004eb50       ?grow_formula@?$Array@UEntry@?$HashTable@UStrC@gen@@@gen@@@gen@@SA_K_K@Z 000000014004fb50 f i gen_src.obj
 0001:0004eb60       ?grow_formula@?$Array@UPool@gen@@@gen@@SA_K_K@Z 000000014004fb60 f i gen_src.obj
 0001:0004eb70       ?grow_formula@?$Array@UToken@parser@gen@@@gen@@SA_K_K@Z 000000014004fb70 f i gen_src.obj
 0001:0004eb80       ?grow_formula@?$Array@_J@gen@@SA_K_K@Z 000000014004fb80 f i gen_src.obj
 0001:0004eb90       ?grow_formula@String@gen@@SA_K_K@Z 000000014004fb90 f i gen_src.obj
 0001:0004ebb0       ?has@CodeSpecifiers@gen@@QEAAHW4Type@ESpecifier@2@@Z 000000014004fbb0 f i gen_src.obj
 0001:0004ec10       ?heap@gen@@YA?AUAllocatorInfo@1@XZ 000000014004fc10 f i gen_src.obj
 0001:0004ec50       ?init@?$Array@E@gen@@SA?AU12@UAllocatorInfo@2@@Z 000000014004fc50 f i gen_src.obj
 0001:0004eca0       ?init@?$FixedArena@$0EAAAA@@gen@@SA?AU12@XZ 000000014004fca0 f i gen_src.obj
 0001:0004ed60       ?init@?$HashTable@$$CBUString@gen@@@gen@@SA?AU12@UAllocatorInfo@2@@Z 000000014004fd60 f i gen_src.obj
 0001:0004edf0       ?init@?$HashTable@UStrC@gen@@@gen@@SA?AU12@UAllocatorInfo@2@@Z 000000014004fdf0 f i gen_src.obj
 0001:0004ee80       ?init@Pool@gen@@SA?AU12@UAllocatorInfo@2@_J1@Z 000000014004fe80 f i gen_src.obj
 0001:0004ef20       ?init_from_allocator@Arena@gen@@SA?AU12@UAllocatorInfo@2@_J@Z 000000014004ff20 f i gen_src.obj
 0001:0004efc0       ?init_from_memory@Arena@gen@@SA?AU12@PEAX_J@Z 000000014004ffc0 f i gen_src.obj
 0001:0004f030       ?init_reserve@?$Array@$$CBUString@gen@@@gen@@SA?AU12@UAllocatorInfo@2@_J@Z 0000000140050030 f i gen_src.obj
 0001:0004f0e0       ?init_reserve@?$Array@E@gen@@SA?AU12@UAllocatorInfo@2@_J@Z 00000001400500e0 f i gen_src.obj
 0001:0004f180       ?init_reserve@?$Array@UArena@gen@@@gen@@SA?AU12@UAllocatorInfo@2@_J@Z 0000000140050180 f i gen_src.obj
 0001:0004f220       ?init_reserve@?$Array@UCodeType@gen@@@gen@@SA?AU12@UAllocatorInfo@2@_J@Z 0000000140050220 f i gen_src.obj
 0001:0004f2d0       ?init_reserve@?$Array@UEntry@?$HashTable@$$CBUString@gen@@@gen@@@gen@@SA?AU12@UAllocatorInfo@2@_J@Z 00000001400502d0 f i gen_src.obj
 0001:0004f370       ?init_reserve@?$Array@UEntry@?$HashTable@UStrC@gen@@@gen@@@gen@@SA?AU12@UAllocatorInfo@2@_J@Z 0000000140050370 f i gen_src.obj
 0001:0004f410       ?init_reserve@?$Array@UPool@gen@@@gen@@SA?AU12@UAllocatorInfo@2@_J@Z 0000000140050410 f i gen_src.obj
 0001:0004f4b0       ?init_reserve@?$Array@UToken@parser@gen@@@gen@@SA?AU12@UAllocatorInfo@2@_J@Z 00000001400504b0 f i gen_src.obj
 0001:0004f550       ?init_reserve@?$Array@_J@gen@@SA?AU12@UAllocatorInfo@2@_J@Z 0000000140050550 f i gen_src.obj
 0001:0004f600       ?init_reserve@?$HashTable@$$CBUString@gen@@@gen@@SA?AU12@UAllocatorInfo@2@_K@Z 0000000140050600 f i gen_src.obj
 0001:0004f700       ?init_reserve@?$HashTable@UStrC@gen@@@gen@@SA?AU12@UAllocatorInfo@2@_K@Z 0000000140050700 f i gen_src.obj
 0001:0004f800       ?is_access_specifier@Token@parser@gen@@QEAA_NXZ 0000000140050800 f i gen_src.obj
 0001:0004f840       ?is_attribute@Token@parser@gen@@QEAA_NXZ 0000000140050840 f i gen_src.obj
 0001:0004f880       ?is_preprocess_cond@Token@parser@gen@@QEAA_NXZ 0000000140050880 f i gen_src.obj
 0001:0004f8c0       ?is_specifier@Token@parser@gen@@QEAA_NXZ 00000001400508c0 f i gen_src.obj
 0001:0004f900       ?length@String@gen@@QEBA_JXZ 0000000140050900 f i gen_src.obj
 0001:0004f930       ?lex_found_token@parser@gen@@YAXAEAUStrC@2@AEAHAEAPEBD11AEAU?$HashTable@UStrC@gen@@@2@AEAUToken@12@@Z 0000000140050930 f i gen_src.obj
 0001:000500a0       ?lex_preprocessor_directive@parser@gen@@YAHAEAUStrC@2@AEAHAEAPEBD11AEAU?$HashTable@UStrC@gen@@@2@AEAUToken@12@@Z 00000001400510a0 f i gen_src.obj
 0001:00051ce0       ?log_fmt@gen@@YA_JPEBDZZ   0000000140052ce0 f i gen_src.obj
 0001:00051d30       ?make@String@gen@@SA?AU12@UAllocatorInfo@2@PEBD@Z 0000000140052d30 f i gen_src.obj
 0001:00051db0       ?make@String@gen@@SA?AU12@UAllocatorInfo@2@UStrC@2@@Z 0000000140052db0 f i gen_src.obj
 0001:00051e10       ?next@TokArray@parser@gen@@QEAAAEAUToken@23@_N@Z 0000000140052e10 f i gen_src.obj
 0001:00051ea0       ?num@?$Array@UArena@gen@@@gen@@QEAA_KXZ 0000000140052ea0 f i gen_src.obj
 0001:00051ec0       ?num@?$Array@UEntry@?$HashTable@$$CBUString@gen@@@gen@@@gen@@QEAA_KXZ 0000000140052ec0 f i gen_src.obj
 0001:00051ee0       ?num@?$Array@UEntry@?$HashTable@UStrC@gen@@@gen@@@gen@@QEAA_KXZ 0000000140052ee0 f i gen_src.obj
 0001:00051f00       ?num@?$Array@UPool@gen@@@gen@@QEAA_KXZ 0000000140052f00 f i gen_src.obj
 0001:00051f20       ?num@?$Array@UToken@parser@gen@@@gen@@QEAA_KXZ 0000000140052f20 f i gen_src.obj
 0001:00051f40       ?num@?$Array@_J@gen@@QEAA_KXZ 0000000140052f40 f i gen_src.obj
 0001:00051f60       ?pop@ParseContext@parser@gen@@QEAAXXZ 0000000140052f60 f i gen_src.obj
 0001:00051f80       ?previous@TokArray@parser@gen@@QEAAAEAUToken@23@_N@Z 0000000140052f80 f i gen_src.obj
 0001:00052010       ?push@ParseContext@parser@gen@@QEAAXPEAUStackNode@23@@Z 0000000140053010 f i gen_src.obj
 0001:00052040       ?raw@CodeBody@gen@@QEAAPEAUAST@2@XZ 0000000140053040 f i gen_src.obj
 0001:00052050       ?raw@CodeParam@gen@@QEAAPEAUAST@2@XZ 0000000140053050 f i gen_src.obj
 0001:00052060       ?raw@CodeSpecifiers@gen@@QEAAPEAUAST@2@XZ 0000000140053060 f i gen_src.obj
 0001:00052070       ?rehash@?$HashTable@$$CBUString@gen@@@gen@@QEAAX_J@Z 0000000140053070 f i gen_src.obj
 0001:00052270       ?rehash@?$HashTable@UStrC@gen@@@gen@@QEAAX_J@Z 0000000140053270 f i gen_src.obj
 0001:00052460       ?resize@?$Array@_J@gen@@QEAA_N_K@Z 0000000140053460 f i gen_src.obj
 0001:000524d0       ?set@?$HashTable@$$CBUString@gen@@@gen@@QEAAX_KUString@2@@Z 00000001400534d0 f i gen_src.obj
 0001:00052620       ?set@?$HashTable@UStrC@gen@@@gen@@QEAAX_KUStrC@2@@Z 0000000140053620 f i gen_src.obj
 0001:00052770       ?set_capacity@?$Array@E@gen@@QEAA_N_K@Z 0000000140053770 f i gen_src.obj
 0001:00052890       ?set_capacity@?$Array@UArena@gen@@@gen@@QEAA_N_K@Z 0000000140053890 f i gen_src.obj
 0001:000529b0       ?set_capacity@?$Array@UCodeType@gen@@@gen@@QEAA_N_K@Z 00000001400539b0 f i gen_src.obj
 0001:00052ae0       ?set_capacity@?$Array@UEntry@?$HashTable@$$CBUString@gen@@@gen@@@gen@@QEAA_N_K@Z 0000000140053ae0 f i gen_src.obj
 0001:00052c00       ?set_capacity@?$Array@UEntry@?$HashTable@UStrC@gen@@@gen@@@gen@@QEAA_N_K@Z 0000000140053c00 f i gen_src.obj
 0001:00052d20       ?set_capacity@?$Array@UPool@gen@@@gen@@QEAA_N_K@Z 0000000140053d20 f i gen_src.obj
 0001:00052e40       ?set_capacity@?$Array@UToken@parser@gen@@@gen@@QEAA_N_K@Z 0000000140053e40 f i gen_src.obj
 0001:00052f60       ?set_capacity@?$Array@_J@gen@@QEAA_N_K@Z 0000000140053f60 f i gen_src.obj
 0001:00053090       ?strip_space@String@gen@@QEAAXXZ 0000000140054090 f i gen_src.obj
 0001:00053140       ?to_access_specifier@Token@parser@gen@@QEAA?AW4AccessSpec@3@XZ 0000000140054140 f i gen_src.obj
 0001:00053150       ?to_str@gen@@YAPEBDW4AccessSpec@1@@Z 0000000140054150 f i gen_src.obj
 0001:00053180       ?to_string@ParseContext@parser@gen@@QEAA?AUString@3@XZ 0000000140054180 f i gen_src.obj
 0001:00053560       ?to_string@Token@parser@gen@@QEAA?AUString@3@XZ 0000000140054560 f i gen_src.obj
 0001:00053670       ?visualize_whitespace@String@gen@@QEBA?AU12@XZ 0000000140054670 f i gen_src.obj
 0001:00053990       __local_stdio_printf_options 0000000140054990 f i gen_src.obj
 0001:000539a0       _vfprintf_l                00000001400549a0 f i gen_src.obj
 0001:000539f0       fprintf                    00000001400549f0 f i gen_src.obj
 0001:00053a40       vfprintf                   0000000140054a40 f i gen_src.obj
 0001:00053a70       __GSHandlerCheck           0000000140054a70 f   LIBCMTD:gshandler.obj
 0001:00053ab0       __GSHandlerCheckCommon     0000000140054ab0 f   LIBCMTD:gshandler.obj
 0001:00053bc0       __chkstk                   0000000140054bc0 f   LIBCMTD:chkstk.obj
 0001:00053bc0       _alloca_probe              0000000140054bc0 f   LIBCMTD:chkstk.obj
 0001:00053c20       __security_check_cookie    0000000140054c20 f   LIBCMTD:amdsecgs.obj
 0001:00053ef0       ?configure_argv@__scrt_narrow_argv_policy@@SAHXZ 0000000140054ef0 f i LIBCMTD:exe_main.obj
 0001:00053f10       ?initialize_environment@__scrt_narrow_environment_policy@@SAHXZ 0000000140054f10 f i LIBCMTD:exe_main.obj
 0001:00053f60       ?set_app_type@__scrt_main_policy@@SAXXZ 0000000140054f60 f i LIBCMTD:exe_main.obj
 0001:00053f80       ?set_commode@__scrt_file_policy@@SAXXZ 0000000140054f80 f i LIBCMTD:exe_main.obj
 0001:00053fa0       ?set_fmode@__scrt_file_policy@@SAXXZ 0000000140054fa0 f i LIBCMTD:exe_main.obj
 0001:00053fc0       mainCRTStartup             0000000140054fc0 f   LIBCMTD:exe_main.obj
 0001:00053fe0       __raise_securityfailure    0000000140054fe0 f   LIBCMTD:gs_report.obj
 0001:00054020       __report_gsfailure         0000000140055020 f   LIBCMTD:gs_report.obj
 0001:00054100       __report_rangecheckfailure 0000000140055100 f   LIBCMTD:gs_report.obj
 0001:00054120       __report_securityfailure   0000000140055120 f   LIBCMTD:gs_report.obj
 0001:000541c0       __report_securityfailureEx 00000001400551c0 f   LIBCMTD:gs_report.obj
 0001:00054590       NtCurrentTeb               0000000140055590 f i LIBCMTD:utility.obj
 0001:000545a0       __scrt_acquire_startup_lock 00000001400555a0 f   LIBCMTD:utility.obj
 0001:00054610       __scrt_dllmain_after_initialize_c 0000000140055610 f   LIBCMTD:utility.obj
 0001:00054640       __scrt_dllmain_before_initialize_c 0000000140055640 f   LIBCMTD:utility.obj
 0001:00054660       __scrt_dllmain_crt_thread_attach 0000000140055660 f   LIBCMTD:utility.obj
 0001:00054690       __scrt_dllmain_crt_thread_detach 0000000140055690 f   LIBCMTD:utility.obj
 0001:000546b0       __scrt_dllmain_exception_filter 00000001400556b0 f   LIBCMTD:utility.obj
 0001:00054720       __scrt_dllmain_uninitialize_c 0000000140055720 f   LIBCMTD:utility.obj
 0001:00054750       __scrt_dllmain_uninitialize_critical 0000000140055750 f   LIBCMTD:utility.obj
 0001:00054770       __scrt_initialize_crt      0000000140055770 f   LIBCMTD:utility.obj
 0001:000547c0       __scrt_initialize_onexit_tables 00000001400557c0 f   LIBCMTD:utility.obj
 0001:000548d0       __scrt_is_nonwritable_in_current_image 00000001400558d0 f   LIBCMTD:utility.obj
 0001:00054960       __scrt_release_startup_lock 0000000140055960 f   LIBCMTD:utility.obj
 0001:00054990       __scrt_uninitialize_crt    0000000140055990 f   LIBCMTD:utility.obj
 0001:000549d0       _onexit                    00000001400559d0 f   LIBCMTD:utility.obj
 0001:00054a50       at_quick_exit              0000000140055a50 f   LIBCMTD:utility.obj
 0001:00054aa0       atexit                     0000000140055aa0 f   LIBCMTD:utility.obj
 0001:00054ba0       __security_init_cookie     0000000140055ba0 f   LIBCMTD:gs_support.obj
 0001:00054c20       _matherr                   0000000140055c20 f   LIBCMTD:matherr.obj
 0001:00054c30       _get_startup_argv_mode     0000000140055c30 f   LIBCMTD:argv_mode.obj
 0001:00054c40       _get_startup_commit_mode   0000000140055c40 f   LIBCMTD:commit_mode.obj
 0001:00054c50       _get_startup_file_mode     0000000140055c50 f   LIBCMTD:file_mode.obj
 0001:00054c60       _get_startup_new_mode      0000000140055c60 f   LIBCMTD:new_mode.obj
 0001:00054c70       _get_startup_thread_locale_mode 0000000140055c70 f   LIBCMTD:thread_locale.obj
 0001:00054c80       ?__scrt_initialize_type_info@@YAXXZ 0000000140055c80 f   LIBCMTD:tncleanup.obj
 0001:00054ca0       ?__scrt_uninitialize_type_info@@YAXXZ 0000000140055ca0 f   LIBCMTD:tncleanup.obj
 0001:00054cc0       _should_initialize_environment 0000000140055cc0 f   LIBCMTD:env_mode.obj
 0001:00054cd0       _initialize_invalid_parameter_handler 0000000140055cd0 f   LIBCMTD:invalid_parameter_handler.obj
 0001:00054ce0       _initialize_denormal_control 0000000140055ce0 f   LIBCMTD:denormal_control.obj
 0001:00054cf0       __local_stdio_scanf_options 0000000140055cf0 f i LIBCMTD:default_local_stdio_options.obj
 0001:00054d00       __scrt_initialize_default_local_stdio_options 0000000140055d00 f   LIBCMTD:default_local_stdio_options.obj
 0001:00054d50       __scrt_is_user_matherr_present 0000000140055d50 f   LIBCMTD:matherr_detection.obj
 0001:00054d80       __scrt_get_dyn_tls_init_callback 0000000140055d80 f   LIBCMTD:dyn_tls_init.obj
 0001:00054d90       __scrt_get_dyn_tls_dtor_callback 0000000140055d90 f   LIBCMTD:dyn_tls_dtor.obj
 0001:00054da0       __crt_debugger_hook        0000000140055da0 f   LIBCMTD:utility_desktop.obj
 0001:00054db0       __scrt_fastfail            0000000140055db0 f   LIBCMTD:utility_desktop.obj
 0001:00054f50       __scrt_get_show_window_mode 0000000140055f50 f   LIBCMTD:utility_desktop.obj
 0001:00054fb0       __scrt_initialize_mta      0000000140055fb0 f   LIBCMTD:utility_desktop.obj
 0001:00054fc0       __scrt_initialize_winrt    0000000140055fc0 f   LIBCMTD:utility_desktop.obj
 0001:00054fd0       __scrt_is_managed_app      0000000140055fd0 f   LIBCMTD:utility_desktop.obj
 0001:00055080       __scrt_set_unhandled_exception_filter 0000000140056080 f   LIBCMTD:utility_desktop.obj
 0001:000550a0       __scrt_exe_initialize_mta  00000001400560a0 f   LIBCMTD:utility_desktop.obj
 0001:000550a0       __scrt_stub_for_initialize_mta 00000001400560a0 f   LIBCMTD:utility_desktop.obj
 0001:000550b0       __scrt_unhandled_exception_filter 00000001400560b0 f   LIBCMTD:utility_desktop.obj
 0001:00055150       _RTC_Initialize            0000000140056150 f   LIBCMTD:initsect.obj
 0001:000551a0       _RTC_Terminate             00000001400561a0 f   LIBCMTD:initsect.obj
 0001:000551f0       _guard_check_icall_nop     00000001400561f0 f i LIBCMTD:guard_support.obj
 0001:00055200       ReadNoFence64              0000000140056200 f i LIBCMTD:guard_support.obj
 0001:00055220       ReadPointerNoFence         0000000140056220 f i LIBCMTD:guard_support.obj
 0001:00055240       __castguard_check_failure_debugbreak 0000000140056240 f i LIBCMTD:guard_support.obj
 0001:00055260       __castguard_check_failure_fastfail 0000000140056260 f i LIBCMTD:guard_support.obj
 0001:00055290       __castguard_check_failure_nop 0000000140056290 f i LIBCMTD:guard_support.obj
 0001:000552a0       __castguard_check_failure_os_handled 00000001400562a0 f i LIBCMTD:guard_support.obj
 0001:00055300       __castguard_check_failure_user_handled 0000000140056300 f i LIBCMTD:guard_support.obj
 0001:000553f0       __castguard_set_user_handler 00000001400563f0 f i LIBCMTD:guard_support.obj
 0001:00055420       __castguard_slow_path_check_debugbreak 0000000140056420 f i LIBCMTD:guard_support.obj
 0001:00055460       __castguard_slow_path_check_fastfail 0000000140056460 f i LIBCMTD:guard_support.obj
 0001:000554b0       __castguard_slow_path_check_nop 00000001400564b0 f i LIBCMTD:guard_support.obj
 0001:000554c0       __castguard_slow_path_check_os_handled 00000001400564c0 f i LIBCMTD:guard_support.obj
 0001:00055510       __castguard_slow_path_check_user_handled 0000000140056510 f i LIBCMTD:guard_support.obj
 0001:000555d0       _guard_icall_checks_enforced 00000001400565d0 f i LIBCMTD:guard_support.obj
 0001:00055610       _guard_rf_checks_enforced  0000000140056610 f i LIBCMTD:guard_support.obj
 0001:00055620       __isa_available_init       0000000140056620 f   LIBCMTD:cpu_disp.obj
 0001:000559d0       __scrt_is_ucrt_dll_in_use  00000001400569d0 f   LIBCMTD:ucrt_detection.obj
 0001:00055a00       GetStdHandle               0000000140056a00 f   kernel32:KERNEL32.dll
 0001:00055a06       CreateFileW                0000000140056a06 f   kernel32:KERNEL32.dll
 0001:00055a0c       ReadFile                   0000000140056a0c f   kernel32:KERNEL32.dll
 0001:00055a12       SetFilePointerEx           0000000140056a12 f   kernel32:KERNEL32.dll
 0001:00055a18       WriteFile                  0000000140056a18 f   kernel32:KERNEL32.dll
 0001:00055a1e       CloseHandle                0000000140056a1e f   kernel32:KERNEL32.dll
 0001:00055a24       GetLastError               0000000140056a24 f   kernel32:KERNEL32.dll
 0001:00055a2a       ExitProcess                0000000140056a2a f   kernel32:KERNEL32.dll
 0001:00055a30       GetSystemInfo              0000000140056a30 f   kernel32:KERNEL32.dll
 0001:00055a36       VirtualAlloc               0000000140056a36 f   kernel32:KERNEL32.dll
 0001:00055a3c       VirtualFree                0000000140056a3c f   kernel32:KERNEL32.dll
 0001:00055a42       VirtualQuery               0000000140056a42 f   kernel32:KERNEL32.dll
 0001:00055a48       MultiByteToWideChar        0000000140056a48 f   kernel32:KERNEL32.dll
 0001:00055a4e       RtlCaptureContext          0000000140056a4e f   kernel32:KERNEL32.dll
 0001:00055a54       RtlLookupFunctionEntry     0000000140056a54 f   kernel32:KERNEL32.dll
 0001:00055a5a       RtlVirtualUnwind           0000000140056a5a f   kernel32:KERNEL32.dll
 0001:00055a60       UnhandledExceptionFilter   0000000140056a60 f   kernel32:KERNEL32.dll
 0001:00055a66       SetUnhandledExceptionFilter 0000000140056a66 f   kernel32:KERNEL32.dll
 0001:00055a6c       GetCurrentProcess          0000000140056a6c f   kernel32:KERNEL32.dll
 0001:00055a72       TerminateProcess           0000000140056a72 f   kernel32:KERNEL32.dll
 0001:00055a78       IsProcessorFeaturePresent  0000000140056a78 f   kernel32:KERNEL32.dll
 0001:00055a7e       QueryPerformanceCounter    0000000140056a7e f   kernel32:KERNEL32.dll
 0001:00055a84       GetCurrentProcessId        0000000140056a84 f   kernel32:KERNEL32.dll
 0001:00055a8a       GetCurrentThreadId         0000000140056a8a f   kernel32:KERNEL32.dll
 0001:00055a90       GetSystemTimeAsFileTime    0000000140056a90 f   kernel32:KERNEL32.dll
 0001:00055a96       InitializeSListHead        0000000140056a96 f   kernel32:KERNEL32.dll
 0001:00055a9c       IsDebuggerPresent          0000000140056a9c f   kernel32:KERNEL32.dll
 0001:00055aa2       GetStartupInfoW            0000000140056aa2 f   kernel32:KERNEL32.dll
 0001:00055aa8       GetModuleHandleW           0000000140056aa8 f   kernel32:KERNEL32.dll
 0001:00055ab0       __C_specific_handler       0000000140056ab0 f   libvcruntimed:riscchandler.obj
 0001:00055f20       __vcrt_initialize          0000000140056f20 f   libvcruntimed:initialization.obj
 0001:00055f60       __vcrt_thread_attach       0000000140056f60 f   libvcruntimed:initialization.obj
 0001:00055f80       __vcrt_thread_detach       0000000140056f80 f   libvcruntimed:initialization.obj
 0001:00055f90       __vcrt_uninitialize        0000000140056f90 f   libvcruntimed:initialization.obj
 0001:00055fb0       __vcrt_uninitialize_critical 0000000140056fb0 f   libvcruntimed:initialization.obj
 0001:00056010       ??$?RD@__crt_internal_free_policy@@QEBAXQEBD@Z 0000000140057010 f i libvcruntimed:std_type_info.obj
 0001:00056040       ??$?RX@__crt_internal_free_policy@@QEBAXQEBX@Z 0000000140057040 f i libvcruntimed:std_type_info.obj
 0001:00056070       ??$__crt_interlocked_compare_exchange_pointer@$$CBDPEAD$$T@@YAPEBDPEDSEBDQEAD$$T@Z 0000000140057070 f i libvcruntimed:std_type_info.obj
 0001:000560b0       ??$__crt_interlocked_read_pointer@$$CBD@@YAPEBDPEDSEBD@Z 00000001400570b0 f i libvcruntimed:std_type_info.obj
 0001:000560d0       ??0?$__crt_unique_heap_ptr@DU__crt_internal_free_policy@@@@QEAA@QEAD@Z 00000001400570d0 f i libvcruntimed:std_type_info.obj
 0001:000560f0       ??0?$__crt_unique_heap_ptr@XU__crt_internal_free_policy@@@@QEAA@QEAX@Z 00000001400570f0 f i libvcruntimed:std_type_info.obj
 0001:00056110       ??1?$__crt_unique_heap_ptr@DU__crt_internal_free_policy@@@@QEAA@XZ 0000000140057110 f i libvcruntimed:std_type_info.obj
 0001:00056130       ??1?$__crt_unique_heap_ptr@XU__crt_internal_free_policy@@@@QEAA@XZ 0000000140057130 f i libvcruntimed:std_type_info.obj
 0001:00056150       ??B?$__crt_unique_heap_ptr@DU__crt_internal_free_policy@@@@QEBA_NXZ 0000000140057150 f i libvcruntimed:std_type_info.obj
 0001:00056170       ??B?$__crt_unique_heap_ptr@XU__crt_internal_free_policy@@@@QEBA_NXZ 0000000140057170 f i libvcruntimed:std_type_info.obj
 0001:000561f0       ?__crt_interlocked_read_64@@YA_JPED_J@Z 00000001400571f0 f i libvcruntimed:std_type_info.obj
 0001:00056210       ?detach@?$__crt_unique_heap_ptr@XU__crt_internal_free_policy@@@@QEAAPEAXXZ 0000000140057210 f i libvcruntimed:std_type_info.obj
 0001:00056240       ?get@?$__crt_unique_heap_ptr@DU__crt_internal_free_policy@@@@QEBAPEADXZ 0000000140057240 f i libvcruntimed:std_type_info.obj
 0001:00056250       ?get@?$__crt_unique_heap_ptr@XU__crt_internal_free_policy@@@@QEBAPEAXXZ 0000000140057250 f i libvcruntimed:std_type_info.obj
 0001:00056260       ?is_valid@?$__crt_unique_heap_ptr@DU__crt_internal_free_policy@@@@QEBA_NXZ 0000000140057260 f i libvcruntimed:std_type_info.obj
 0001:00056290       ?is_valid@?$__crt_unique_heap_ptr@XU__crt_internal_free_policy@@@@QEBA_NXZ 0000000140057290 f i libvcruntimed:std_type_info.obj
 0001:000562c0       ?release@?$__crt_unique_heap_ptr@DU__crt_internal_free_policy@@@@QEAAXXZ 00000001400572c0 f i libvcruntimed:std_type_info.obj
 0001:000562f0       ?release@?$__crt_unique_heap_ptr@XU__crt_internal_free_policy@@@@QEAAXXZ 00000001400572f0 f i libvcruntimed:std_type_info.obj
 0001:00056320       __std_type_info_compare    0000000140057320 f   libvcruntimed:std_type_info.obj
 0001:00056360       __std_type_info_destroy_list 0000000140057360 f   libvcruntimed:std_type_info.obj
 0001:000563c0       __std_type_info_hash       00000001400573c0 f   libvcruntimed:std_type_info.obj
 0001:00056470       __std_type_info_name       0000000140057470 f   libvcruntimed:std_type_info.obj
 0001:00056700       __DestructExceptionObject  0000000140057700 f   libvcruntimed:ehhelpers.obj
 0001:00056800       ?_CallMemberFunction0@@YAXQEAX0@Z 0000000140057800 f i libvcruntimed:ehhelpers.obj
 0001:000568d0       ?raw_name@type_info@@QEBAPEBDXZ 00000001400578d0 f i libvcruntimed:ehhelpers.obj
 0001:000568e0       _IsExceptionObjectToBeDestroyed 00000001400578e0 f   libvcruntimed:ehhelpers.obj
 0001:00056930       _SetWinRTOutOfMemoryExceptionCallback 0000000140057930 f   libvcruntimed:ehhelpers.obj
 0001:00056950       __AdjustPointer            0000000140057950 f   libvcruntimed:ehhelpers.obj
 0001:000569d0       __FrameUnwindFilter        00000001400579d0 f   libvcruntimed:ehhelpers.obj
 0001:00056a80       __GetPlatformExceptionInfo 0000000140057a80 f   libvcruntimed:ehhelpers.obj
 0001:00056b30       __current_exception        0000000140057b30 f   libvcruntimed:ehhelpers.obj
 0001:00056b50       __current_exception_context 0000000140057b50 f   libvcruntimed:ehhelpers.obj
 0001:00056b70       __processing_throw         0000000140057b70 f   libvcruntimed:ehhelpers.obj
 0001:00056b90       __std_terminate            0000000140057b90 f   libvcruntimed:ehhelpers.obj
 0001:00056ba0       _is_exception_typeof       0000000140057ba0 f   libvcruntimed:ehhelpers.obj
 0001:00056d20       _NLG_Notify                0000000140057d20 f   libvcruntimed:notify.obj
 0001:00056d40       __NLG_Dispatch2            0000000140057d40 f   libvcruntimed:notify.obj
 0001:00056d50       __NLG_Return2              0000000140057d50 f   libvcruntimed:notify.obj
 0001:00056d70       __except_validate_context_record 0000000140057d70 f   libvcruntimed:jbcxrval.obj
 0001:00056dd0       __except_validate_jump_buffer 0000000140057dd0 f   libvcruntimed:jbcxrval.obj
 0001:00056df0       __except_validate_jump_buffer_common 0000000140057df0 f i libvcruntimed:jbcxrval.obj
 0001:00056e70       ??$?RU__vcrt_ptd@@@__crt_internal_free_policy@@QEBAXQEBU__vcrt_ptd@@@Z 0000000140057e70 f i libvcruntimed:per_thread_data.obj
 0001:00056ea0       ??0?$__crt_unique_heap_ptr@U__vcrt_ptd@@U__crt_internal_free_policy@@@@QEAA@QEAU__vcrt_ptd@@@Z 0000000140057ea0 f i libvcruntimed:per_thread_data.obj
 0001:00056ee0       ??1?$__crt_unique_heap_ptr@U__vcrt_ptd@@U__crt_internal_free_policy@@@@QEAA@XZ 0000000140057ee0 f i libvcruntimed:per_thread_data.obj
 0001:00056f20       ??B?$__crt_unique_heap_ptr@U__vcrt_ptd@@U__crt_internal_free_policy@@@@QEBA_NXZ 0000000140057f20 f i libvcruntimed:per_thread_data.obj
 0001:00056f40       ?detach@?$__crt_unique_heap_ptr@U__vcrt_ptd@@U__crt_internal_free_policy@@@@QEAAPEAU__vcrt_ptd@@XZ 0000000140057f40 f i libvcruntimed:per_thread_data.obj
 0001:00056f70       ?get@?$__crt_unique_heap_ptr@U__vcrt_ptd@@U__crt_internal_free_policy@@@@QEBAPEAU__vcrt_ptd@@XZ 0000000140057f70 f i libvcruntimed:per_thread_data.obj
 0001:00056f80       ?is_valid@?$__crt_unique_heap_ptr@U__vcrt_ptd@@U__crt_internal_free_policy@@@@QEBA_NXZ 0000000140057f80 f i libvcruntimed:per_thread_data.obj
 0001:00056fb0       ?release@?$__crt_unique_heap_ptr@U__vcrt_ptd@@U__crt_internal_free_policy@@@@QEAAXXZ 0000000140057fb0 f i libvcruntimed:per_thread_data.obj
 0001:00057020       __vcrt_freefls             0000000140058020 f   libvcruntimed:per_thread_data.obj
 0001:00057060       __vcrt_freeptd_for_this_thread 0000000140058060 f   libvcruntimed:per_thread_data.obj
 0001:000570a0       __vcrt_getptd              00000001400580a0 f   libvcruntimed:per_thread_data.obj
 0001:000570d0       __vcrt_getptd_noexit       00000001400580d0 f   libvcruntimed:per_thread_data.obj
 0001:00057270       __vcrt_getptd_noinit       0000000140058270 f   libvcruntimed:per_thread_data.obj
 0001:000572d0       __vcrt_initialize_ptd      00000001400582d0 f   libvcruntimed:per_thread_data.obj
 0001:00057320       __vcrt_uninitialize_ptd    0000000140058320 f   libvcruntimed:per_thread_data.obj
 0001:00057350       __vcrt_initialize_locks    0000000140058350 f   libvcruntimed:locks.obj
 0001:000573c0       __vcrt_lock                00000001400583c0 f   libvcruntimed:locks.obj
 0001:000573f0       __vcrt_uninitialize_locks  00000001400583f0 f   libvcruntimed:locks.obj
 0001:00057450       __vcrt_unlock              0000000140058450 f   libvcruntimed:locks.obj
 0001:00057480       ??$?0$00@DName@@QEAA@PEBDU?$StringLifeSelector@$00@@@Z 0000000140058480 f i libvcruntimed:undname.obj
 0001:000574f0       ??$?0$00@pcharNode@@QEAA@PEBDHU?$StringLifeSelector@$00@@@Z 00000001400584f0 f i libvcruntimed:undname.obj
 0001:00057550       ??$?0$01@DName@@QEAA@PEBDU?$StringLifeSelector@$01@@@Z 0000000140058550 f i libvcruntimed:undname.obj
 0001:000575c0       ??$?0$01@pcharNode@@QEAA@PEBDHU?$StringLifeSelector@$01@@@Z 00000001400585c0 f i libvcruntimed:undname.obj
 0001:00057670       ??$?0$0A@@DName@@QEAA@PEBDU?$StringLifeSelector@$0A@@@@Z 0000000140058670 f i libvcruntimed:undname.obj
 0001:000576e0       ??$?0$0A@@pcharNode@@QEAA@PEBDHU?$StringLifeSelector@$0A@@@@Z 00000001400586e0 f i libvcruntimed:undname.obj
 0001:00057790       ??$?0_K$0A@@?$optional@_K@std@@QEAA@$$QEA_K@Z 0000000140058790 f i libvcruntimed:undname.obj
 0001:000577c0       ??$?0_K@?$_Optional_construct_base@_K@std@@QEAA@Uin_place_t@1@$$QEA_K@Z 00000001400587c0 f i libvcruntimed:undname.obj
 0001:000577f0       ??$?0_K@?$_Optional_destruct_base@_K$00@std@@QEAA@Uin_place_t@1@$$QEA_K@Z 00000001400587f0 f i libvcruntimed:undname.obj
 0001:00057820       ??$append@VDNameNode@@@DName@@AEAAXPEBVDNameNode@@@Z 0000000140058820 f i libvcruntimed:undname.obj
 0001:000578d0       ??$append@VDNameStatusNode@@@DName@@AEAAXPEBVDNameStatusNode@@@Z 00000001400588d0 f i libvcruntimed:undname.obj
 0001:00057980       ??$append@VcharNode@@@DName@@AEAAXPEBVcharNode@@@Z 0000000140058980 f i libvcruntimed:undname.obj
 0001:00057a30       ??$append@VpDNameNode@@@DName@@AEAAXPEBVpDNameNode@@@Z 0000000140058a30 f i libvcruntimed:undname.obj
 0001:00057ae0       ??$append@VpcharNode@@@DName@@AEAAXPEBVpcharNode@@@Z 0000000140058ae0 f i libvcruntimed:undname.obj
 0001:00057b90       ??$doPchar@$00@DName@@AEAAXPEBDH@Z 0000000140058b90 f i libvcruntimed:undname.obj
 0001:00057cf0       ??$doPchar@$01@DName@@AEAAXPEBDH@Z 0000000140058cf0 f i libvcruntimed:undname.obj
 0001:00057e50       ??$doPchar@$0A@@DName@@AEAAXPEBDH@Z 0000000140058e50 f i libvcruntimed:undname.obj
 0001:00058130       ??$size@D$04@std@@YA_KAEAY04$$CBD@Z 0000000140059130 f i libvcruntimed:undname.obj
 0001:00058140       ??0?$_Optional_construct_base@_K@std@@QEAA@XZ 0000000140059140 f i libvcruntimed:undname.obj
 0001:00058160       ??0?$_Optional_destruct_base@_K$00@std@@QEAA@XZ 0000000140059160 f i libvcruntimed:undname.obj
 0001:00058190       ??0?$optional@_K@std@@QEAA@XZ 0000000140059190 f i libvcruntimed:undname.obj
 0001:000581b0       ??0Block@_HeapManager@@QEAA@XZ 00000001400591b0 f i libvcruntimed:undname.obj
 0001:000581d0       ??0DName@@QEAA@AEAPEBDD@Z  00000001400591d0 f   libvcruntimed:undname.obj
 0001:000583a0       ??0DName@@QEAA@AEBUStringLiteral@@@Z 00000001400593a0 f   libvcruntimed:undname.obj
 0001:00058400       ??0DName@@QEAA@AEBV0@@Z    0000000140059400 f i libvcruntimed:undname.obj
 0001:00058430       ??0DName@@QEAA@D@Z         0000000140059430 f   libvcruntimed:undname.obj
 0001:00058470       ??0DName@@QEAA@PEAV0@@Z    0000000140059470 f   libvcruntimed:undname.obj
 0001:00058550       ??0DName@@QEAA@W4DNameStatus@@@Z 0000000140059550 f   libvcruntimed:undname.obj
 0001:00058600       ??0DName@@QEAA@XZ          0000000140059600 f i libvcruntimed:undname.obj
 0001:00058630       ??0DName@@QEAA@_J@Z        0000000140059630 f   libvcruntimed:undname.obj
 0001:00058740       ??0DName@@QEAA@_K@Z        0000000140059740 f   libvcruntimed:undname.obj
 0001:00058810       ??0DNameNode@@IEAA@XZ      0000000140059810 f i libvcruntimed:undname.obj
 0001:00058830       ??0Replicator@@QEAA@XZ     0000000140059830 f i libvcruntimed:undname.obj
 0001:00058880       ??0UnDecorator@@QEAA@PEBDP6APEADJ@ZK@Z 0000000140059880 f i libvcruntimed:undname.obj
 0001:00058930       ??0_Nontrivial_dummy_type@std@@QEAA@XZ 0000000140059930 f i libvcruntimed:undname.obj
 0001:00058940       ??0charNode@@QEAA@D@Z      0000000140059940 f i libvcruntimed:undname.obj
 0001:00058980       ??0pDNameNode@@QEAA@PEAVDName@@@Z 0000000140059980 f   libvcruntimed:undname.obj
 0001:00058a00       ??0pairNode@@QEAA@PEBVDNameNode@@0@Z 0000000140059a00 f i libvcruntimed:undname.obj
 0001:00058a80       ??2@YAPEAX_KAEAV_HeapManager@@H@Z 0000000140059a80 f   libvcruntimed:undname.obj
 0001:00058ae0       ??4DName@@QEAAAEAV0@AEBUStringLiteral@@@Z 0000000140059ae0 f   libvcruntimed:undname.obj
 0001:00058b30       ??4DName@@QEAAAEAV0@AEBV0@@Z 0000000140059b30 f   libvcruntimed:undname.obj
 0001:00058b60       ??4DName@@QEAAAEAV0@D@Z    0000000140059b60 f i libvcruntimed:undname.obj
 0001:00058ba0       ??4DName@@QEAAAEAV0@PEAV0@@Z 0000000140059ba0 f   libvcruntimed:undname.obj
 0001:00058c70       ??4DName@@QEAAAEAV0@W4DNameStatus@@@Z 0000000140059c70 f   libvcruntimed:undname.obj
 0001:00058d00       ??AReplicator@@QEBA?AVDName@@H@Z 0000000140059d00 f   libvcruntimed:undname.obj
 0001:00058d90       ??B?$optional@_K@std@@QEBA_NXZ 0000000140059d90 f i libvcruntimed:undname.obj
 0001:00058da0       ??D?$_Optional_construct_base@_K@std@@QEGAAAEA_KXZ 0000000140059da0 f i libvcruntimed:undname.obj
 0001:00058e40       ??H@YA?AVDName@@AEBUStringLiteral@@AEBV0@@Z 0000000140059e40 f i libvcruntimed:undname.obj
 0001:00058e90       ??H@YA?AVDName@@DAEBV0@@Z  0000000140059e90 f i libvcruntimed:undname.obj
 0001:00058ee0       ??H@YA?AVDName@@W4DNameStatus@@AEBV0@@Z 0000000140059ee0 f i libvcruntimed:undname.obj
 0001:00058f30       ??HDName@@QEBA?AV0@AEBUStringLiteral@@@Z 0000000140059f30 f   libvcruntimed:undname.obj
 0001:00058f70       ??HDName@@QEBA?AV0@AEBV0@@Z 0000000140059f70 f   libvcruntimed:undname.obj
 0001:00058fb0       ??HDName@@QEBA?AV0@D@Z     0000000140059fb0 f   libvcruntimed:undname.obj
 0001:00058ff0       ??HDName@@QEBA?AV0@PEAV0@@Z 0000000140059ff0 f   libvcruntimed:undname.obj
 0001:00059030       ??HDName@@QEBA?AV0@W4DNameStatus@@@Z 000000014005a030 f   libvcruntimed:undname.obj
 0001:00059070       ??HStringLiteral@@QEBA?AU0@H@Z 000000014005a070 f i libvcruntimed:undname.obj
 0001:000590b0       ??YDName@@QEAAAEAV0@AEBUStringLiteral@@@Z 000000014005a0b0 f   libvcruntimed:undname.obj
 0001:00059180       ??YDName@@QEAAAEAV0@AEBV0@@Z 000000014005a180 f   libvcruntimed:undname.obj
 0001:00059240       ??YDName@@QEAAAEAV0@D@Z    000000014005a240 f   libvcruntimed:undname.obj
 0001:000592e0       ??YDName@@QEAAAEAV0@PEAV0@@Z 000000014005a2e0 f   libvcruntimed:undname.obj
 0001:000593c0       ??YDName@@QEAAAEAV0@W4DNameStatus@@@Z 000000014005a3c0 f   libvcruntimed:undname.obj
 0001:00059430       ??YReplicator@@QEAAAEAV0@AEBVDName@@@Z 000000014005a430 f   libvcruntimed:undname.obj
 0001:000594f0       ??_5DName@@QEAAAEAV0@AEBV0@@Z 000000014005a4f0 f   libvcruntimed:undname.obj
 0001:00059570       ??__K_l@@YA?AUStringLiteral@@PEBD_K@Z 000000014005a570 f i libvcruntimed:undname.obj
 0001:000595a0       ?Constructor@_HeapManager@@QEAAXP6APEAX_K@ZP6AXPEAX@Z@Z 000000014005a5a0 f i libvcruntimed:undname.obj
 0001:00059600       ?Destructor@_HeapManager@@QEAAXXZ 000000014005a600 f i libvcruntimed:undname.obj
 0001:000596a0       ?UScore@UnDecorator@@SA?AUStringLiteral@@W4Tokens@@@Z 000000014005a6a0 f   libvcruntimed:undname.obj
 0001:00059730       ?composeDeclaration@UnDecorator@@CA?AVDName@@AEBV2@@Z 000000014005a730 f i libvcruntimed:undname.obj
 0001:0005bc70       ?doAccessSpecifiers@UnDecorator@@SAHXZ 000000014005cc70 f i libvcruntimed:undname.obj
 0001:0005bca0       ?doAllocationLanguage@UnDecorator@@SAHXZ 000000014005cca0 f i libvcruntimed:undname.obj
 0001:0005bcd0       ?doAllocationModel@UnDecorator@@SAHXZ 000000014005ccd0 f i libvcruntimed:undname.obj
 0001:0005bd00       ?doEcsu@UnDecorator@@SAHXZ 000000014005cd00 f i libvcruntimed:undname.obj
 0001:0005bd30       ?doEllipsis@UnDecorator@@SAHXZ 000000014005cd30 f i libvcruntimed:undname.obj
 0001:0005bd60       ?doFunctionReturns@UnDecorator@@SAHXZ 000000014005cd60 f i libvcruntimed:undname.obj
 0001:0005bd90       ?doMSKeywords@UnDecorator@@SAHXZ 000000014005cd90 f i libvcruntimed:undname.obj
 0001:0005bdc0       ?doMemberTypes@UnDecorator@@SAHXZ 000000014005cdc0 f i libvcruntimed:undname.obj
 0001:0005bdf0       ?doNameOnly@UnDecorator@@SAHXZ 000000014005cdf0 f i libvcruntimed:undname.obj
 0001:0005be00       ?doNoIdentCharCheck@UnDecorator@@SAHXZ 000000014005ce00 f i libvcruntimed:undname.obj
 0001:0005be10       ?doPchar@DName@@AEAAXD@Z   000000014005ce10 f   libvcruntimed:undname.obj
 0001:0005bea0       ?doPtr64@UnDecorator@@SAHXZ 000000014005cea0 f i libvcruntimed:undname.obj
 0001:0005bed0       ?doRestrictionSpec@UnDecorator@@SAHXZ 000000014005ced0 f i libvcruntimed:undname.obj
 0001:0005bf00       ?doThisTypes@UnDecorator@@SAHXZ 000000014005cf00 f i libvcruntimed:undname.obj
 0001:0005bf30       ?doThrowTypes@UnDecorator@@SAHXZ 000000014005cf30 f i libvcruntimed:undname.obj
 0001:0005bf60       ?doTypeOnly@UnDecorator@@SAHXZ 000000014005cf60 f i libvcruntimed:undname.obj
 0001:0005bf70       ?doUnderScore@UnDecorator@@SAHXZ 000000014005cf70 f i libvcruntimed:undname.obj
 0001:0005bfa0       ?getAddressOf@UnDecorator@@CA?AVDName@@XZ 000000014005cfa0 f   libvcruntimed:undname.obj
 0001:0005c040       ?getArgumentList@UnDecorator@@CA?AVDName@@XZ 000000014005d040 f   libvcruntimed:undname.obj
 0001:0005c1c0       ?getArgumentTypes@UnDecorator@@CA?AVDName@@XZ 000000014005d1c0 f   libvcruntimed:undname.obj
 0001:0005c470       ?getArrayAccess@UnDecorator@@CA?AVDName@@XZ 000000014005d470 f   libvcruntimed:undname.obj
 0001:0005c520       ?getArrayObject@UnDecorator@@CA?AVDName@@XZ 000000014005d520 f   libvcruntimed:undname.obj
 0001:0005c650       ?getArrayType@UnDecorator@@CA?AVDName@@AEBV2@@Z 000000014005d650 f i libvcruntimed:undname.obj
 0001:0005ca10       ?getBasedType@UnDecorator@@CA?AVDName@@XZ 000000014005da10 f   libvcruntimed:undname.obj
 0001:0005cb60       ?getBasicDataType@UnDecorator@@CA?AVDName@@AEBV2@@Z 000000014005db60 f   libvcruntimed:undname.obj
 0001:0005d950       ?getCHPEName@UnDecorator@@QEAAPEADPEADH@Z 000000014005e950 f i libvcruntimed:undname.obj
 0001:0005db20       ?getCallIndex@UnDecorator@@CA?AVDName@@XZ 000000014005eb20 f i libvcruntimed:undname.obj
 0001:0005db40       ?getCallingConvention@UnDecorator@@CA?AVDName@@XZ 000000014005eb40 f   libvcruntimed:undname.obj
 0001:0005df00       ?getDataIndirectType@UnDecorator@@CA?AVDName@@AEBV2@W4IndirectionKind@@0H@Z 000000014005ef00 f   libvcruntimed:undname.obj
 0001:0005eba0       ?getDataIndirectType@UnDecorator@@CA?AVDName@@XZ 000000014005fba0 f i libvcruntimed:undname.obj
 0001:0005ebf0       ?getDataType@UnDecorator@@CA?AVDName@@PEAV2@@Z 000000014005fbf0 f   libvcruntimed:undname.obj
 0001:0005ed90       ?getDecoratedName@UnDecorator@@CA?AVDName@@XZ 000000014005fd90 f   libvcruntimed:undname.obj
 0001:0005f260       ?getDimension@UnDecorator@@CA?AVDName@@_N@Z 0000000140060260 f   libvcruntimed:undname.obj
 0001:0005f520       ?getDispatchTarget@UnDecorator@@CA?AVDName@@XZ 0000000140060520 f   libvcruntimed:undname.obj
 0001:0005f5c0       ?getDisplacement@UnDecorator@@CA?AVDName@@XZ 00000001400605c0 f i libvcruntimed:undname.obj
 0001:0005f5e0       ?getECSUDataType@UnDecorator@@CA?AVDName@@XZ 00000001400605e0 f   libvcruntimed:undname.obj
 0001:0005fa00       ?getECSUName@UnDecorator@@CA?AVDName@@XZ 0000000140060a00 f i libvcruntimed:undname.obj
 0001:0005fa20       ?getEnumType@UnDecorator@@CA?AVDName@@XZ 0000000140060a20 f i libvcruntimed:undname.obj
 0001:0005fc90       ?getExtendedDataIndirectType@UnDecorator@@CA?AVDName@@AEAW4IndirectionKind@@AEA_NH@Z 0000000140060c90 f   libvcruntimed:undname.obj
 0001:0005ffe0       ?getExternalDataType@UnDecorator@@CA?AVDName@@AEBV2@@Z 0000000140060fe0 f i libvcruntimed:undname.obj
 0001:000600b0       ?getFloatingPoint@UnDecorator@@CA?AVDName@@H@Z 00000001400610b0 f   libvcruntimed:undname.obj
 0001:00060230       ?getFunctionIndirectType@UnDecorator@@CA?AVDName@@AEBV2@@Z 0000000140061230 f   libvcruntimed:undname.obj
 0001:00060820       ?getGuardNumber@UnDecorator@@CA?AVDName@@XZ 0000000140061820 f i libvcruntimed:undname.obj
 0001:00060840       ?getLastChar@DName@@QEBADXZ 0000000140061840 f i libvcruntimed:undname.obj
 0001:00060890       ?getLastChar@DNameStatusNode@@UEBADXZ 0000000140061890 f i libvcruntimed:undname.obj
 0001:000608d0       ?getLastChar@charNode@@UEBADXZ 00000001400618d0 f i libvcruntimed:undname.obj
 0001:000608e0       ?getLastChar@pDNameNode@@UEBADXZ 00000001400618e0 f i libvcruntimed:undname.obj
 0001:00060920       ?getLastChar@pairNode@@UEBADXZ 0000000140061920 f i libvcruntimed:undname.obj
 0001:000609a0       ?getLastChar@pcharNode@@UEBADXZ 00000001400619a0 f i libvcruntimed:undname.obj
 0001:000609e0       ?getLexicalFrame@UnDecorator@@CA?AVDName@@XZ 00000001400619e0 f i libvcruntimed:undname.obj
 0001:00060a30       ?getMemberAccess@UnDecorator@@CA?AVDName@@XZ 0000000140061a30 f   libvcruntimed:undname.obj
 0001:00060ae0       ?getMemoryWithBuffer@_HeapManager@@QEAAPEAX_K@Z 0000000140061ae0 f   libvcruntimed:undname.obj
 0001:00060c30       ?getMemoryWithoutBuffer@_HeapManager@@QEAAPEAX_K@Z 0000000140061c30 f   libvcruntimed:undname.obj
 0001:00060c80       ?getNoexcept@UnDecorator@@CA?AVDName@@XZ 0000000140061c80 f   libvcruntimed:undname.obj
 0001:00060d10       ?getNumberOfDimensions@UnDecorator@@CAHXZ 0000000140061d10 f   libvcruntimed:undname.obj
 0001:00060dd0       ?getOperatorName@UnDecorator@@CA?AVDName@@_NPEA_N@Z 0000000140061dd0 f i libvcruntimed:undname.obj
 0001:00061c90       ?getPointerToMember@UnDecorator@@CA?AVDName@@XZ 0000000140062c90 f   libvcruntimed:undname.obj
 0001:00061dc0       ?getPointerType@UnDecorator@@CA?AVDName@@AEBV2@0@Z 0000000140062dc0 f i libvcruntimed:undname.obj
 0001:00061e00       ?getPointerTypeArray@UnDecorator@@CA?AVDName@@AEBV2@0@Z 0000000140062e00 f i libvcruntimed:undname.obj
 0001:00061e40       ?getPrimaryDataType@UnDecorator@@CA?AVDName@@AEBV2@@Z 0000000140062e40 f   libvcruntimed:undname.obj
 0001:00062400       ?getPtrRefDataType@UnDecorator@@CA?AVDName@@AEBV2@H@Z 0000000140063400 f   libvcruntimed:undname.obj
 0001:000627d0       ?getPtrRefType@UnDecorator@@CA?AVDName@@AEBV2@0W4IndirectionKind@@@Z 00000001400637d0 f   libvcruntimed:undname.obj
 0001:00062a10       ?getReferenceType@UnDecorator@@CA?AVDName@@AEBV2@0W4IndirectionKind@@@Z 0000000140063a10 f i libvcruntimed:undname.obj
 0001:00062a50       ?getRestrictionSpec@UnDecorator@@CA?AVDName@@XZ 0000000140063a50 f   libvcruntimed:undname.obj
 0001:00062ca0       ?getReturnType@UnDecorator@@CA?AVDName@@PEAV2@@Z 0000000140063ca0 f   libvcruntimed:undname.obj
 0001:00062d00       ?getScope@UnDecorator@@CA?AVDName@@XZ 0000000140063d00 f   libvcruntimed:undname.obj
 0001:00063430       ?getScopedName@UnDecorator@@CA?AVDName@@XZ 0000000140064430 f   libvcruntimed:undname.obj
 0001:00063630       ?getSignedDimension@UnDecorator@@CA?AVDName@@XZ 0000000140064630 f   libvcruntimed:undname.obj
 0001:000636b0       ?getStorageConvention@UnDecorator@@CA?AVDName@@XZ 00000001400646b0 f i libvcruntimed:undname.obj
 0001:000636d0       ?getString@DName@@QEBAPEADPEAD0@Z 00000001400646d0 f i libvcruntimed:undname.obj
 0001:00063750       ?getString@DName@@QEBAPEADPEADH@Z 0000000140064750 f i libvcruntimed:undname.obj
 0001:00063810       ?getString@DNameStatusNode@@UEBAPEADPEAD0@Z 0000000140064810 f i libvcruntimed:undname.obj
 0001:00063860       ?getString@charNode@@UEBAPEADPEAD0@Z 0000000140064860 f i libvcruntimed:undname.obj
 0001:000638a0       ?getString@pDNameNode@@UEBAPEADPEAD0@Z 00000001400648a0 f i libvcruntimed:undname.obj
 0001:00063900       ?getString@pairNode@@UEBAPEADPEAD0@Z 0000000140064900 f i libvcruntimed:undname.obj
 0001:000639d0       ?getString@pcharNode@@UEBAPEADPEAD0@Z 00000001400649d0 f i libvcruntimed:undname.obj
 0001:00063a10       ?getStringEncoding@UnDecorator@@CA?AVDName@@W4PrefixKind@@H@Z 0000000140064a10 f   libvcruntimed:undname.obj
 0001:00063b40       ?getStringHelper@@YAPEADPEADPEBD1H@Z 0000000140064b40 f i libvcruntimed:undname.obj
 0001:00063bb0       ?getStringObject@UnDecorator@@CA?AVDName@@XZ 0000000140064bb0 f   libvcruntimed:undname.obj
 0001:00063c90       ?getSymbolName@UnDecorator@@CA?AVDName@@XZ 0000000140064c90 f i libvcruntimed:undname.obj
 0001:00063d20       ?getTemplateArgumentList@UnDecorator@@CA?AVDName@@XZ 0000000140064d20 f   libvcruntimed:undname.obj
 0001:00064030       ?getTemplateName@UnDecorator@@CA?AVDName@@_N@Z 0000000140065030 f   libvcruntimed:undname.obj
 0001:00064250       ?getTemplateNonTypeArgument@UnDecorator@@CA?AVDName@@XZ 0000000140065250 f   libvcruntimed:undname.obj
 0001:00064ac0       ?getTemplateTypeArgument@UnDecorator@@CA?AVDName@@XZ 0000000140065ac0 f   libvcruntimed:undname.obj
 0001:00064d40       ?getThisType@UnDecorator@@CA?AVDName@@XZ 0000000140065d40 f i libvcruntimed:undname.obj
 0001:00064d90       ?getThrowTypes@UnDecorator@@CA?AVDName@@XZ 0000000140065d90 f   libvcruntimed:undname.obj
 0001:00064dd0       ?getTypeEncoding@UnDecorator@@CAHXZ 0000000140065dd0 f i libvcruntimed:undname.obj
 0001:00065990       ?getUndecoratedName@UnDecorator@@QEAAPEADPEADH@Z 0000000140066990 f i libvcruntimed:undname.obj
 0001:00065b80       ?getUnionObject@UnDecorator@@CA?AVDName@@XZ 0000000140066b80 f   libvcruntimed:undname.obj
 0001:00065c80       ?getVCallThunkType@UnDecorator@@CA?AVDName@@XZ 0000000140066c80 f i libvcruntimed:undname.obj
 0001:00065d20       ?getValue@UnDecorator@@CA?AV?$optional@_K@std@@XZ 0000000140066d20 f   libvcruntimed:undname.obj
 0001:00065df0       ?getValueObject@UnDecorator@@CA?AVDName@@XZ 0000000140066df0 f   libvcruntimed:undname.obj
 0001:00066030       ?getVbTableType@UnDecorator@@CA?AVDName@@AEBV2@@Z 0000000140067030 f i libvcruntimed:undname.obj
 0001:00066060       ?getVdispMapType@UnDecorator@@CA?AVDName@@AEBV2@@Z 0000000140067060 f i libvcruntimed:undname.obj
 0001:00066100       ?getVfTableType@UnDecorator@@CA?AVDName@@AEBV2@@Z 0000000140067100 f i libvcruntimed:undname.obj
 0001:000663a0       ?getZName@UnDecorator@@CA?AVDName@@_N0@Z 00000001400673a0 f   libvcruntimed:undname.obj
 0001:000667d0       ?get_current_character_and_increment_buffer@UnDecorator@@CADXZ 00000001400677d0 f i libvcruntimed:undname.obj
 0001:00066810       ?haveTemplateParameters@UnDecorator@@SAHXZ 0000000140067810 f i libvcruntimed:undname.obj
 0001:00066820       ?increment_buffer@UnDecorator@@CA_N_K@Z 0000000140067820 f i libvcruntimed:undname.obj
 0001:00066880       ?increment_buffer_no_check@UnDecorator@@CAXXZ 0000000140067880 f i libvcruntimed:undname.obj
 0001:000668a0       ?increment_buffer_no_check@UnDecorator@@CAX_K@Z 00000001400678a0 f i libvcruntimed:undname.obj
 0001:000668f0       ?isArray@DName@@QEBAHXZ    00000001400678f0 f i libvcruntimed:undname.obj
 0001:00066910       ?isComArray@DName@@QEBAHXZ 0000000140067910 f i libvcruntimed:undname.obj
 0001:00066930       ?isEmpty@DName@@QEBAHXZ    0000000140067930 f i libvcruntimed:undname.obj
 0001:00066960       ?isFull@Replicator@@QEBAHXZ 0000000140067960 f i libvcruntimed:undname.obj
 0001:00066990       ?isNoTE@DName@@QEBAHXZ     0000000140067990 f i libvcruntimed:undname.obj
 0001:000669b0       ?isPinPtr@DName@@QEBAHXZ   00000001400679b0 f i libvcruntimed:undname.obj
 0001:000669d0       ?isPtrRef@DName@@QEBAHXZ   00000001400679d0 f i libvcruntimed:undname.obj
 0001:000669f0       ?isUDC@DName@@QEBAHXZ      00000001400679f0 f i libvcruntimed:undname.obj
 0001:00066a40       ?isUDTThunk@DName@@QEBAHXZ 0000000140067a40 f i libvcruntimed:undname.obj
 0001:00066a90       ?isVCallThunk@DName@@QEBAHXZ 0000000140067a90 f i libvcruntimed:undname.obj
 0001:00066ab0       ?isValid@DName@@QEBAHXZ    0000000140067ab0 f i libvcruntimed:undname.obj
 0001:00066af0       ?length@DName@@QEBAHXZ     0000000140067af0 f i libvcruntimed:undname.obj
 0001:00066b40       ?length@DNameStatusNode@@UEBAHXZ 0000000140067b40 f i libvcruntimed:undname.obj
 0001:00066b50       ?length@charNode@@UEBAHXZ  0000000140067b50 f i libvcruntimed:undname.obj
 0001:00066b60       ?length@pDNameNode@@UEBAHXZ 0000000140067b60 f i libvcruntimed:undname.obj
 0001:00066ba0       ?length@pairNode@@UEBAHXZ  0000000140067ba0 f i libvcruntimed:undname.obj
 0001:00066c30       ?length@pcharNode@@UEBAHXZ 0000000140067c30 f i libvcruntimed:undname.obj
 0001:00066c40       ?make@DNameStatusNode@@SAPEBV1@W4DNameStatus@@@Z 0000000140067c40 f i libvcruntimed:undname.obj
 0001:00066c90       ?parseDecoratedName@UnDecorator@@CA?AVDName@@XZ 0000000140067c90 f   libvcruntimed:undname.obj
 0001:00066e90       ?raw_length@DNameStatusNode@@UEBAHXZ 0000000140067e90 f i libvcruntimed:undname.obj
 0001:00066eb0       ?raw_length@charNode@@UEBAHXZ 0000000140067eb0 f i libvcruntimed:undname.obj
 0001:00066ed0       ?raw_length@pDNameNode@@UEBAHXZ 0000000140067ed0 f i libvcruntimed:undname.obj
 0001:00066ee0       ?raw_length@pairNode@@UEBAHXZ 0000000140067ee0 f i libvcruntimed:undname.obj
 0001:00066ef0       ?raw_length@pcharNode@@UEBAHXZ 0000000140067ef0 f i libvcruntimed:undname.obj
 0001:00066f10       ?setIsArray@DName@@QEAAXXZ 0000000140067f10 f i libvcruntimed:undname.obj
 0001:00066f30       ?setIsComArray@DName@@QEAAXXZ 0000000140067f30 f i libvcruntimed:undname.obj
 0001:00066f50       ?setIsNoTE@DName@@QEAAXXZ  0000000140067f50 f i libvcruntimed:undname.obj
 0001:00066f70       ?setIsPinPtr@DName@@QEAAXXZ 0000000140067f70 f i libvcruntimed:undname.obj
 0001:00066f90       ?setIsUDC@DName@@QEAAXXZ   0000000140067f90 f i libvcruntimed:undname.obj
 0001:00066fc0       ?setIsVCallThunk@DName@@QEAAXXZ 0000000140067fc0 f i libvcruntimed:undname.obj
 0001:00066fe0       ?setPtrRef@DName@@QEAAAEAV1@XZ 0000000140067fe0 f i libvcruntimed:undname.obj
 0001:00067000       ?status@DName@@QEBA?AW4DNameStatus@@XZ 0000000140068000 f i libvcruntimed:undname.obj
 0001:00067130       __unDName                  0000000140068130 f   libvcruntimed:undname.obj
 0001:00067190       __unDNameEx                0000000140068190 f   libvcruntimed:undname.obj
 0001:00067250       _vsprintf_s_l              0000000140068250 f i libvcruntimed:undname.obj
 0001:000672c0       snprintf                   00000001400682c0 f i libvcruntimed:undname.obj
 0001:00067320       sprintf_s                  0000000140068320 f i libvcruntimed:undname.obj
 0001:00067380       unDNameGenerateCHPE        0000000140068380 f   libvcruntimed:undname.obj
 0001:00067430       vsnprintf                  0000000140068430 f i libvcruntimed:undname.obj
 0001:000674c0       memcpy_avx_ermsb_Intel     00000001400684c0 f   libvcruntimed:memcpy_avx_ermsb_aligned.obj
 0001:000678f0       memcpy_avx_ermsb_amd       00000001400688f0 f   libvcruntimed:memcpy_avx_ermsb_aligned_amd.obj
 0001:00067d20       memcpy_sse2_ermsb_Intel    0000000140068d20 f   libvcruntimed:memcpy_sse2_ermsb_aligned.obj
 0001:00067fd0       memcpy_sse2_ermsb_amd      0000000140068fd0 f   libvcruntimed:memcpy_sse2_ermsb_aligned_amd.obj
 0001:00068270       ??$__crt_interlocked_exchange_pointer@UHINSTANCE__@@PEAU1@@@YAPEAUHINSTANCE__@@PEDSEAU0@QEAU0@@Z 0000000140069270 f i libvcruntimed:winapi_downlevel.obj
 0001:00068290       ??$__crt_interlocked_exchange_pointer@UHINSTANCE__@@PEAX@@YAPEAUHINSTANCE__@@PEDSEAU0@QEAX@Z 0000000140069290 f i libvcruntimed:winapi_downlevel.obj
 0001:000682b0       ??$__crt_interlocked_exchange_pointer@XPEAX@@YAPEAXPEDSEAXQEAX@Z 00000001400692b0 f i libvcruntimed:winapi_downlevel.obj
 0001:000682d0       ??$__crt_interlocked_read_pointer@UHINSTANCE__@@@@YAPEAUHINSTANCE__@@PEDSEAU0@@Z 00000001400692d0 f i libvcruntimed:winapi_downlevel.obj
 0001:000682f0       ??$__crt_interlocked_read_pointer@X@@YAPEAXPEDSEAX@Z 00000001400692f0 f i libvcruntimed:winapi_downlevel.obj
 0001:00068800       __vcrt_FlsAlloc            0000000140069800 f   libvcruntimed:winapi_downlevel.obj
 0001:00068850       __vcrt_FlsFree             0000000140069850 f   libvcruntimed:winapi_downlevel.obj
 0001:000688a0       __vcrt_FlsGetValue         00000001400698a0 f   libvcruntimed:winapi_downlevel.obj
 0001:000688f0       __vcrt_FlsSetValue         00000001400698f0 f   libvcruntimed:winapi_downlevel.obj
 0001:00068950       __vcrt_InitializeCriticalSectionEx 0000000140069950 f   libvcruntimed:winapi_downlevel.obj
 0001:000689c0       ??$__crt_interlocked_exchange_pointer@$$A6AXXZP6AXXZ@@YAP6AXXZPEDS6AXXZQ6AXXZ@Z 00000001400699c0 f i libvcruntimed:purevirt.obj
 0001:000689e0       ??$__crt_interlocked_read_pointer@$$A6AXXZ@@YAP6AXXZPEDS6AXXZ@Z 00000001400699e0 f i libvcruntimed:purevirt.obj
 0001:00068a00       _get_purecall_handler      0000000140069a00 f   libvcruntimed:purevirt.obj
 0001:00068a20       _purecall                  0000000140069a20 f   libvcruntimed:purevirt.obj
 0001:00068a60       _set_purecall_handler      0000000140069a60 f   libvcruntimed:purevirt.obj
 0001:00068a80       ??$?0AEAViterator@TryBlockMap4@FH4@@AEAV012@$0A@@?$pair@Viterator@TryBlockMap4@FH4@@V123@@std@@QEAA@AEAViterator@TryBlockMap4@FH4@@0@Z 0000000140069a80 f i libvcruntimed:risctrnsctrl.obj
 0001:00068ac0       ??$?0AEAViterator@TryBlockMap@__FrameHandler3@@AEAV012@$0A@@?$pair@Viterator@TryBlockMap@__FrameHandler3@@V123@@std@@QEAA@AEAViterator@TryBlockMap@__FrameHandler3@@0@Z 0000000140069ac0 f i libvcruntimed:risctrnsctrl.obj
 0001:00068cb0       ??$_CallSETranslator@V__FrameHandler3@@@@YAHPEAUEHExceptionRecord@@PEA_KPEAU_CONTEXT@@PEAU_xDISPATCHER_CONTEXT@@PEBU_s_FuncInfo@@K1H@Z 0000000140069cb0 f i libvcruntimed:risctrnsctrl.obj
 0001:00068d40       ??$_CallSETranslator@V__FrameHandler4@@@@YAHPEAUEHExceptionRecord@@PEA_KPEAU_CONTEXT@@PEAU_xDISPATCHER_CONTEXT@@PEAUFuncInfo4@FH4@@K1H@Z 0000000140069d40 f i libvcruntimed:risctrnsctrl.obj
 0001:00068dd0       ??0FuncInfo4@FH4@@QEAA@XZ  0000000140069dd0 f i libvcruntimed:risctrnsctrl.obj
 0001:00068e40       ??0FuncInfoHeader@FH4@@QEAA@XZ 0000000140069e40 f i libvcruntimed:risctrnsctrl.obj
 0001:00068e60       ??0iterator@TryBlockMap4@FH4@@QEAA@AEAV12@I@Z 0000000140069e60 f i libvcruntimed:risctrnsctrl.obj
 0001:00068e90       ??0iterator@TryBlockMap@__FrameHandler3@@QEAA@AEAV12@I@Z 0000000140069e90 f i libvcruntimed:risctrnsctrl.obj
 0001:00068ec0       ??4iterator@TryBlockMap4@FH4@@QEAAAEAV012@AEBV012@@Z 0000000140069ec0 f i libvcruntimed:risctrnsctrl.obj
 0001:00068ee0       ??9iterator@TryBlockMap4@FH4@@QEBA_NAEBV012@@Z 0000000140069ee0 f i libvcruntimed:risctrnsctrl.obj
 0001:00068f20       ??Diterator@TryBlockMap4@FH4@@QEAA?AUTryBlockMapEntry4@2@XZ 0000000140069f20 f i libvcruntimed:risctrnsctrl.obj
 0001:00068f50       ??Eiterator@TryBlockMap4@FH4@@QEAAAEAV012@XZ 0000000140069f50 f i libvcruntimed:risctrnsctrl.obj
 0001:00068f90       ?CatchTryBlock@__FrameHandler3@@SAPEBU_s_TryBlockMapEntry@@PEBU_s_FuncInfo@@H@Z 0000000140069f90 f   libvcruntimed:risctrnsctrl.obj
 0001:00069020       ?DecompFuncInfo@FH4@@YA_JPEAEAEAUFuncInfo4@1@_KH@Z 000000014006a020 f i libvcruntimed:risctrnsctrl.obj
 0001:00069060       ?DecompFuncInfo@FH4@@YA_JPEAEAEAUFuncInfo4@1@_KH_N@Z 000000014006a060 f i libvcruntimed:risctrnsctrl.obj
 0001:00069240       ?DecompTryBlock@TryBlockMap4@FH4@@AEAAXXZ 000000014006a240 f i libvcruntimed:risctrnsctrl.obj
 0001:000692c0       ?ExecutionInCatch@__FrameHandler3@@SA_NPEAU_xDISPATCHER_CONTEXT@@PEBU_s_FuncInfo@@@Z 000000014006a2c0 f   libvcruntimed:risctrnsctrl.obj
 0001:00069310       ?ExecutionInCatch@__FrameHandler4@@SA_NPEAU_xDISPATCHER_CONTEXT@@PEAUFuncInfo4@FH4@@@Z 000000014006a310 f   libvcruntimed:risctrnsctrl.obj
 0001:00069330       ?FrameUnwindToEmptyState@__FrameHandler3@@SAXPEA_KPEAU_xDISPATCHER_CONTEXT@@PEBU_s_FuncInfo@@@Z 000000014006a330 f   libvcruntimed:risctrnsctrl.obj
 0001:000693d0       ?FrameUnwindToEmptyState@__FrameHandler4@@SAXPEA_KPEAU_xDISPATCHER_CONTEXT@@PEAUFuncInfo4@FH4@@@Z 000000014006a3d0 f   libvcruntimed:risctrnsctrl.obj
 0001:00069420       ?GetEstablisherFrame@__FrameHandler3@@SAPEA_KPEA_KPEAU_xDISPATCHER_CONTEXT@@PEBU_s_FuncInfo@@0@Z 000000014006a420 f   libvcruntimed:risctrnsctrl.obj
 0001:00069590       ?GetEstablisherFrame@__FrameHandler4@@SAPEA_KPEA_KPEAU_xDISPATCHER_CONTEXT@@PEAUFuncInfo4@FH4@@0@Z 000000014006a590 f   libvcruntimed:risctrnsctrl.obj
 0001:00069600       ?GetRangeOfTrysToCheck@__FrameHandler3@@SA?AU?$pair@Viterator@TryBlockMap@__FrameHandler3@@V123@@std@@AEAVTryBlockMap@1@HPEAU_xDISPATCHER_CONTEXT@@PEBU_s_FuncInfo@@H@Z 000000014006a600 f   libvcruntimed:risctrnsctrl.obj
 0001:00069840       ?GetRangeOfTrysToCheck@__FrameHandler4@@SA?AU?$pair@Viterator@TryBlockMap4@FH4@@V123@@std@@AEAVTryBlockMap4@FH4@@HPEAU_xDISPATCHER_CONTEXT@@PEAUFuncInfo4@5@H@Z 000000014006a840 f   libvcruntimed:risctrnsctrl.obj
 0001:000699f0       ?ReadInt@FH4@@YAHPEAPEAE@Z 000000014006a9f0 f i libvcruntimed:risctrnsctrl.obj
 0001:00069a30       ?ReadUnsigned@FH4@@YAIPEAPEAE@Z 000000014006aa30 f i libvcruntimed:risctrnsctrl.obj
 0001:00069ac0       ?UnwindNestedFrames@__FrameHandler3@@SAXPEA_KPEAUEHExceptionRecord@@PEAU_CONTEXT@@0PEAXPEBU_s_FuncInfo@@HHPEBU_s_HandlerType@@PEAU_xDISPATCHER_CONTEXT@@E@Z 000000014006aac0 f   libvcruntimed:risctrnsctrl.obj
 0001:00069c30       ?UnwindNestedFrames@__FrameHandler4@@SAXPEA_KPEAUEHExceptionRecord@@PEAU_CONTEXT@@0PEAXPEAUFuncInfo4@FH4@@HHPEAUHandlerType4@5@PEAU_xDISPATCHER_CONTEXT@@E@Z 000000014006ac30 f   libvcruntimed:risctrnsctrl.obj
 0001:00069e00       ?begin@TryBlockMap4@FH4@@QEAA?AViterator@12@XZ 000000014006ae00 f i libvcruntimed:risctrnsctrl.obj
 0001:00069e30       ?end@TryBlockMap4@FH4@@QEAA?AViterator@12@XZ 000000014006ae30 f i libvcruntimed:risctrnsctrl.obj
 0001:00069e60       ?imageRelToByteBuffer@FH4@@YAPEAE_KH@Z 000000014006ae60 f i libvcruntimed:risctrnsctrl.obj
 0001:00069e80       ?incrementToSentinel@iterator@TryBlockMap4@FH4@@QEAAXXZ 000000014006ae80 f i libvcruntimed:risctrnsctrl.obj
 0001:00069ea0       ?setBuffer@TryBlockMap4@FH4@@QEAAXViterator@12@@Z 000000014006aea0 f i libvcruntimed:risctrnsctrl.obj
 0001:00069f10       _CreateFrameInfo           000000014006af10 f   libvcruntimed:risctrnsctrl.obj
 0001:00069f80       _FindAndUnlinkFrame        000000014006af80 f   libvcruntimed:risctrnsctrl.obj
 0001:0006a000       _GetImageBase              000000014006b000 f   libvcruntimed:risctrnsctrl.obj
 0001:0006a020       _GetThrowImageBase         000000014006b020 f   libvcruntimed:risctrnsctrl.obj
 0001:0006a040       _SetImageBase              000000014006b040 f   libvcruntimed:risctrnsctrl.obj
 0001:0006a060       _SetThrowImageBase         000000014006b060 f   libvcruntimed:risctrnsctrl.obj
 0001:0006a080       __CxxFrameHandler          000000014006b080 f   libvcruntimed:risctrnsctrl.obj
 0001:0006a0c0       __CxxFrameHandler2         000000014006b0c0 f   libvcruntimed:risctrnsctrl.obj
 0001:0006a100       __CxxFrameHandler3         000000014006b100 f   libvcruntimed:risctrnsctrl.obj
 0001:0006a1e0       __CxxFrameHandler4         000000014006b1e0 f   libvcruntimed:risctrnsctrl.obj
 0001:0006a300       memcpy_repmovs_Intel       000000014006b300 f   libvcruntimed:memcpy_repmovs.obj
 0001:0006a320       memcpy_CopyDown_Intel      000000014006b320 f   libvcruntimed:memcpy_CopyDown.obj
 0001:0006a410       memcpy_repmovs_amd         000000014006b410 f   libvcruntimed:memcpy_repmovs_amd.obj
 0001:0006a430       memcpy_CopyDown_amd        000000014006b430 f   libvcruntimed:memcpy_CopyDown_amd.obj
 0001:0006a510       ?GetCurrentState@__FrameHandler3@@SAHPEA_KPEAU_xDISPATCHER_CONTEXT@@PEBU_s_FuncInfo@@@Z 000000014006b510 f   libvcruntimed:ehstate.obj
 0001:0006a570       ?GetUnwindTryBlock@__FrameHandler3@@SAHPEA_KPEAU_xDISPATCHER_CONTEXT@@PEBU_s_FuncInfo@@@Z 000000014006b570 f   libvcruntimed:ehstate.obj
 0001:0006a5c0       ?SetState@__FrameHandler3@@SAXPEA_KPEBU_s_FuncInfo@@H@Z 000000014006b5c0 f   libvcruntimed:ehstate.obj
 0001:0006a5f0       ?SetUnwindTryBlock@__FrameHandler3@@SAXPEA_KPEAU_xDISPATCHER_CONTEXT@@PEBU_s_FuncInfo@@H@Z 000000014006b5f0 f   libvcruntimed:ehstate.obj
 0001:0006a660       ?StateFromControlPc@__FrameHandler3@@SAHPEBU_s_FuncInfo@@PEAU_xDISPATCHER_CONTEXT@@@Z 000000014006b660 f   libvcruntimed:ehstate.obj
 0001:0006a6a0       ?StateFromControlPc@__FrameHandler4@@SAHPEAUFuncInfo4@FH4@@PEAU_xDISPATCHER_CONTEXT@@@Z 000000014006b6a0 f   libvcruntimed:ehstate.obj
 0001:0006a6e0       ?StateFromIp@__FrameHandler3@@SAHPEBU_s_FuncInfo@@PEAU_xDISPATCHER_CONTEXT@@_K@Z 000000014006b6e0 f   libvcruntimed:ehstate.obj
 0001:0006a7d0       ?StateFromIp@__FrameHandler4@@SAHPEAUFuncInfo4@FH4@@PEAU_xDISPATCHER_CONTEXT@@_K@Z 000000014006b7d0 f   libvcruntimed:ehstate.obj
 0001:0006a8c0       ?__FuncRelToRealOffset@@YA_KPEAU_xDISPATCHER_CONTEXT@@I@Z 000000014006b8c0 f i libvcruntimed:ehstate.obj
 0001:0006a8f0       ?__RVAtoRealOffset@@YA_KPEAU_xDISPATCHER_CONTEXT@@H@Z 000000014006b8f0 f i libvcruntimed:ehstate.obj
 0001:0006cb50       ??$TypeMatchHelper@V__FrameHandler3@@@@YAHPEBU_s_HandlerType@@PEBU_s_CatchableType@@PEBU_s_ThrowInfo@@@Z 000000014006db50 f i libvcruntimed:frame.obj
 0001:0006cd50       ??$TypeMatchHelper@V__FrameHandler4@@@@YAHPEAUHandlerType4@FH4@@PEBU_s_CatchableType@@PEBU_s_ThrowInfo@@@Z 000000014006dd50 f i libvcruntimed:frame.obj
 0001:0006cf60       ??$__InternalCxxFrameHandler@V__FrameHandler3@@@@YA?AW4_EXCEPTION_DISPOSITION@@PEAUEHExceptionRecord@@PEA_KPEAU_CONTEXT@@PEAU_xDISPATCHER_CONTEXT@@PEBU_s_FuncInfo@@H1E@Z 000000014006df60 f i libvcruntimed:frame.obj
 0001:0006d3d0       ??$__InternalCxxFrameHandler@V__FrameHandler4@@@@YA?AW4_EXCEPTION_DISPOSITION@@PEAUEHExceptionRecord@@PEA_KPEAU_CONTEXT@@PEAU_xDISPATCHER_CONTEXT@@PEAUFuncInfo4@FH4@@H1E@Z 000000014006e3d0 f i libvcruntimed:frame.obj
 0001:0006d860       ??$__InternalCxxFrameHandlerWrapper@V__FrameHandler3@@@@YA?AW4_EXCEPTION_DISPOSITION@@PEAUEHExceptionRecord@@PEA_KPEAU_CONTEXT@@PEAU_xDISPATCHER_CONTEXT@@PEBU_s_FuncInfo@@H1E@Z 000000014006e860 f i libvcruntimed:frame.obj
 0001:0006d8d0       ??$__InternalCxxFrameHandlerWrapper@V__FrameHandler4@@@@YA?AW4_EXCEPTION_DISPOSITION@@PEAUEHExceptionRecord@@PEA_KPEAU_CONTEXT@@PEAU_xDISPATCHER_CONTEXT@@PEAUFuncInfo4@FH4@@H1E@Z 000000014006e8d0 f i libvcruntimed:frame.obj
 0001:0006d960       ??0HandlerMap4@FH4@@QEAA@PEBUTryBlockMapEntry4@1@_KH@Z 000000014006e960 f i libvcruntimed:frame.obj
 0001:0006da40       ??0HandlerMap@__FrameHandler3@@QEAA@PEBU_s_TryBlockMapEntry@@_KI@Z 000000014006ea40 f i libvcruntimed:frame.obj
 0001:0006da90       ??0HandlerType4@FH4@@QEAA@XZ 000000014006ea90 f i libvcruntimed:frame.obj
 0001:0006dab0       ??0TryBlockMap4@FH4@@QEAA@PEBUFuncInfo4@1@_K@Z 000000014006eab0 f i libvcruntimed:frame.obj
 0001:0006db70       ??0TryBlockMap@__FrameHandler3@@QEAA@PEBU_s_FuncInfo@@_K@Z 000000014006eb70 f i libvcruntimed:frame.obj
 0001:0006dba0       ??0UWMap4@FH4@@QEAA@PEBUFuncInfo4@1@_K@Z 000000014006eba0 f i libvcruntimed:frame.obj
 0001:0006dc30       ??0bad_exception@std@@QEAA@AEBV01@@Z 000000014006ec30 f i libvcruntimed:frame.obj
 0001:0006dc70       ??0bad_exception@std@@QEAA@XZ 000000014006ec70 f i libvcruntimed:frame.obj
 0001:0006dcb0       ??0exception@std@@QEAA@AEBV01@@Z 000000014006ecb0 f i libvcruntimed:frame.obj
 0001:0006dd10       ??0exception@std@@QEAA@QEBDH@Z 000000014006ed10 f i libvcruntimed:frame.obj
 0001:0006dd60       ??0iterator@HandlerMap4@FH4@@QEAA@AEAV12@I@Z 000000014006ed60 f i libvcruntimed:frame.obj
 0001:0006dd90       ??0iterator@HandlerMap@__FrameHandler3@@QEAA@AEAV12@I@Z 000000014006ed90 f i libvcruntimed:frame.obj
 0001:0006ddc0       ??0iterator@UWMap4@FH4@@QEAA@AEAV12@PEAE@Z 000000014006edc0 f i libvcruntimed:frame.obj
 0001:0006ddf0       ??1bad_exception@std@@UEAA@XZ 000000014006edf0 f i libvcruntimed:frame.obj
 0001:0006de10       ??1exception@std@@UEAA@XZ  000000014006ee10 f i libvcruntimed:frame.obj
 0001:0006de40       ??4iterator@UWMap4@FH4@@QEAAAEAV012@AEBV012@@Z 000000014006ee40 f i libvcruntimed:frame.obj
 0001:0006de90       ??8iterator@HandlerMap4@FH4@@QEBA_NAEBV012@@Z 000000014006ee90 f i libvcruntimed:frame.obj
 0001:0006ded0       ??8iterator@HandlerMap@__FrameHandler3@@QEBA_NAEBV012@@Z 000000014006eed0 f i libvcruntimed:frame.obj
 0001:0006df10       ??8type_info@@QEBA_NAEBV0@@Z 000000014006ef10 f i libvcruntimed:frame.obj
 0001:0006df90       ??9iterator@HandlerMap4@FH4@@QEBA_NAEBV012@@Z 000000014006ef90 f i libvcruntimed:frame.obj
 0001:0006dfd0       ??9iterator@HandlerMap@__FrameHandler3@@QEBA_NAEBV012@@Z 000000014006efd0 f i libvcruntimed:frame.obj
 0001:0006e010       ??Diterator@HandlerMap4@FH4@@QEAA?AUHandlerType4@2@XZ 000000014006f010 f i libvcruntimed:frame.obj
 0001:0006e040       ??Diterator@HandlerMap@__FrameHandler3@@QEAA?BU_s_HandlerType@@XZ 000000014006f040 f i libvcruntimed:frame.obj
 0001:0006e080       ??Diterator@TryBlockMap@__FrameHandler3@@QEAA?BU_s_TryBlockMapEntry@@XZ 000000014006f080 f i libvcruntimed:frame.obj
 0001:0006e0d0       ??Diterator@UWMap4@FH4@@QEAA?AUUnwindMapEntry4@2@XZ 000000014006f0d0 f i libvcruntimed:frame.obj
 0001:0006e150       ??Eiterator@HandlerMap4@FH4@@QEAAAEAV012@XZ 000000014006f150 f i libvcruntimed:frame.obj
 0001:0006e190       ??Eiterator@HandlerMap@__FrameHandler3@@QEAAAEAV012@XZ 000000014006f190 f i libvcruntimed:frame.obj
 0001:0006e1b0       ??Eiterator@TryBlockMap@__FrameHandler3@@QEAAAEAV012@XZ 000000014006f1b0 f i libvcruntimed:frame.obj
 0001:0006e1d0       ??Eiterator@UWMap4@FH4@@QEAAAEAV012@XZ 000000014006f1d0 f i libvcruntimed:frame.obj
 0001:0006e210       ??Giterator@UWMap4@FH4@@QEBA_JAEBV012@@Z 000000014006f210 f i libvcruntimed:frame.obj
 0001:0006e230       ??Miterator@TryBlockMap4@FH4@@QEBA_NAEBV012@@Z 000000014006f230 f i libvcruntimed:frame.obj
 0001:0006e270       ??Miterator@TryBlockMap@__FrameHandler3@@QEBA_NAEBV012@@Z 000000014006f270 f i libvcruntimed:frame.obj
 0001:0006e2b0       ??Oiterator@UWMap4@FH4@@QEBA_NAEBV012@@Z 000000014006f2b0 f i libvcruntimed:frame.obj
 0001:0006e2f0       ??Piterator@UWMap4@FH4@@QEBA_NAEBV012@@Z 000000014006f2f0 f i libvcruntimed:frame.obj
 0001:0006e330       ??_Ebad_exception@std@@UEAAPEAXI@Z 000000014006f330 f i libvcruntimed:frame.obj
 0001:0006e330       ??_Gbad_exception@std@@UEAAPEAXI@Z 000000014006f330 f i libvcruntimed:frame.obj
 0001:0006e370       ??_Eexception@std@@UEAAPEAXI@Z 000000014006f370 f i libvcruntimed:frame.obj
 0001:0006e370       ??_Gexception@std@@UEAAPEAXI@Z 000000014006f370 f i libvcruntimed:frame.obj
 0001:0006e3b0       ?BuildCatchObject@__FrameHandler3@@SAXPEAUEHExceptionRecord@@PEAXPEBU_s_HandlerType@@PEBU_s_CatchableType@@@Z 000000014006f3b0 f   libvcruntimed:frame.obj
 0001:0006e3f0       ?BuildCatchObject@__FrameHandler4@@SAXPEAUEHExceptionRecord@@PEAXPEAUHandlerType4@FH4@@PEBU_s_CatchableType@@@Z 000000014006f3f0 f   libvcruntimed:frame.obj
 0001:0006e430       ?BuildCatchObjectHelper@__FrameHandler3@@SAHPEAUEHExceptionRecord@@PEAXPEBU_s_HandlerType@@PEBU_s_CatchableType@@@Z 000000014006f430 f   libvcruntimed:frame.obj
 0001:0006e470       ?BuildCatchObjectHelper@__FrameHandler4@@SAHPEAUEHExceptionRecord@@PEAXPEAUHandlerType4@FH4@@PEBU_s_CatchableType@@@Z 000000014006f470 f   libvcruntimed:frame.obj
 0001:0006e4b0       ?CxxCallCatchBlock@__FrameHandler3@@SAPEAXPEAU_EXCEPTION_RECORD@@@Z 000000014006f4b0 f   libvcruntimed:frame.obj
 0001:0006e710       ?CxxCallCatchBlock@__FrameHandler4@@SAPEAXPEAU_EXCEPTION_RECORD@@@Z 000000014006f710 f   libvcruntimed:frame.obj
 0001:0006ea40       ?DecompHandler@HandlerMap4@FH4@@AEAAXXZ 000000014006fa40 f i libvcruntimed:frame.obj
 0001:0006ee10       ?FrameUnwindToState@__FrameHandler3@@SAXPEA_KPEAU_xDISPATCHER_CONTEXT@@PEBU_s_FuncInfo@@H@Z 000000014006fe10 f   libvcruntimed:frame.obj
 0001:0006f060       ?FrameUnwindToState@__FrameHandler4@@SAXPEA_KPEAU_xDISPATCHER_CONTEXT@@PEAUFuncInfo4@FH4@@H@Z 0000000140070060 f   libvcruntimed:frame.obj
 0001:0006f370       ?GetHandlerSearchState@__FrameHandler3@@SAHPEA_KPEAU_xDISPATCHER_CONTEXT@@PEBU_s_FuncInfo@@@Z 0000000140070370 f i libvcruntimed:frame.obj
 0001:0006f420       ?GetHandlerSearchState@__FrameHandler4@@SAHPEA_KPEAU_xDISPATCHER_CONTEXT@@PEAUFuncInfo4@FH4@@@Z 0000000140070420 f i libvcruntimed:frame.obj
 0001:0006f4a0       ?GetMaxState@__FrameHandler3@@SAHPEAU_xDISPATCHER_CONTEXT@@PEBU_s_FuncInfo@@@Z 00000001400704a0 f i libvcruntimed:frame.obj
 0001:0006f4c0       ?GetMaxState@__FrameHandler4@@SAHPEAU_xDISPATCHER_CONTEXT@@PEAUFuncInfo4@FH4@@@Z 00000001400704c0 f i libvcruntimed:frame.obj
 0001:0006f6f0       ?ReadEntry@UWMap4@FH4@@AEAAXPEAPEAE@Z 00000001400706f0 f i libvcruntimed:frame.obj
 0001:0006f7a0       ?TypeMatch@__FrameHandler3@@SAHPEBU_s_HandlerType@@PEBU_s_CatchableType@@PEBU_s_ThrowInfo@@@Z 00000001400707a0 f   libvcruntimed:frame.obj
 0001:0006f7d0       ?TypeMatch@__FrameHandler4@@SAHPEAUHandlerType4@FH4@@PEBU_s_CatchableType@@PEBU_s_ThrowInfo@@@Z 00000001400707d0 f   libvcruntimed:frame.obj
 0001:0006f800       ?WalkBack@UWMap4@FH4@@AEAAXPEAPEAE@Z 0000000140070800 f i libvcruntimed:frame.obj
 0001:0006f850       ?WalkBack@iterator@UWMap4@FH4@@QEAAXXZ 0000000140070850 f i libvcruntimed:frame.obj
 0001:0006f890       ?WalkForward@UWMap4@FH4@@AEAAXPEAPEAE@Z 0000000140070890 f i libvcruntimed:frame.obj
 0001:0006f8c0       ?_CallMemberFunction1@@YAXQEAX00@Z 00000001400708c0 f i libvcruntimed:frame.obj
 0001:0006f900       ?_CallMemberFunction2@@YAXQEAX00H@Z 0000000140070900 f i libvcruntimed:frame.obj
 0001:0006f990       ?begin@HandlerMap4@FH4@@QEAA?AViterator@12@XZ 0000000140070990 f i libvcruntimed:frame.obj
 0001:0006f9c0       ?begin@HandlerMap@__FrameHandler3@@QEAA?AViterator@12@XZ 00000001400709c0 f i libvcruntimed:frame.obj
 0001:0006f9f0       ?begin@UWMap4@FH4@@QEAA?AViterator@12@XZ 00000001400709f0 f i libvcruntimed:frame.obj
 0001:0006fa20       ?end@HandlerMap4@FH4@@QEAA?AViterator@12@XZ 0000000140070a20 f i libvcruntimed:frame.obj
 0001:0006fa50       ?end@HandlerMap@__FrameHandler3@@QEAA?AViterator@12@XZ 0000000140070a50 f i libvcruntimed:frame.obj
 0001:0006fa80       ?getESTypes@__FrameHandler3@@SAPEBU_s_ESTypeList@@PEBU_s_FuncInfo@@@Z 0000000140070a80 f i libvcruntimed:frame.obj
 0001:0006fac0       ?getESTypes@__FrameHandler4@@SAPEBU_s_ESTypeList@@PEAUFuncInfo4@FH4@@@Z 0000000140070ac0 f i libvcruntimed:frame.obj
 0001:0006fad0       ?getLastEntry@HandlerMap4@FH4@@QEAAPEAUHandlerType4@2@XZ 0000000140070ad0 f i libvcruntimed:frame.obj
 0001:0006fb10       ?getLastEntry@HandlerMap@__FrameHandler3@@QEAAPEBU_s_HandlerType@@XZ 0000000140070b10 f i libvcruntimed:frame.obj
 0001:0006fb30       ?getMagicNum@__FrameHandler3@@SAIPEBU_s_FuncInfo@@@Z 0000000140070b30 f i libvcruntimed:frame.obj
 0001:0006fb50       ?getMagicNum@__FrameHandler4@@SAIPEAUFuncInfo4@FH4@@@Z 0000000140070b50 f i libvcruntimed:frame.obj
 0001:0006fb60       ?getNumTryBlocks@TryBlockMap4@FH4@@QEAAIXZ 0000000140070b60 f i libvcruntimed:frame.obj
 0001:0006fb70       ?getNumTryBlocks@TryBlockMap@__FrameHandler3@@QEAAIXZ 0000000140070b70 f i libvcruntimed:frame.obj
 0001:0006fb90       ?getStartStop@UWMap4@FH4@@QEAAXHHAEAViterator@12@0@Z 0000000140070b90 f i libvcruntimed:frame.obj
 0001:0006fcb0       ?getStateFromIterators@UWMap4@FH4@@SAHAEBViterator@12@H0H0@Z 0000000140070cb0 f i libvcruntimed:frame.obj
 0001:0006fdf0       ?isEHs@__FrameHandler3@@SA_NPEBU_s_FuncInfo@@@Z 0000000140070df0 f i libvcruntimed:frame.obj
 0001:0006fe30       ?isEHs@__FrameHandler4@@SA_NPEAUFuncInfo4@FH4@@@Z 0000000140070e30 f i libvcruntimed:frame.obj
 0001:0006fe50       ?isNoExcept@__FrameHandler3@@SA_NPEBU_s_FuncInfo@@@Z 0000000140070e50 f i libvcruntimed:frame.obj
 0001:0006fe90       ?isNoExcept@__FrameHandler4@@SA_NPEAUFuncInfo4@FH4@@@Z 0000000140070e90 f i libvcruntimed:frame.obj
 0001:0006feb0       ?reset@HandlerType4@FH4@@QEAAXXZ 0000000140070eb0 f i libvcruntimed:frame.obj
 0001:0006ff10       ?resetBuffer@HandlerMap4@FH4@@QEAAXXZ 0000000140070f10 f i libvcruntimed:frame.obj
 0001:0006ff30       ?setBuffer@HandlerMap4@FH4@@QEAAXI@Z 0000000140070f30 f i libvcruntimed:frame.obj
 0001:0006ff90       ?what@exception@std@@UEBAPEBDXZ 0000000140070f90 f i libvcruntimed:frame.obj
 0001:0006ffd0       __BuildCatchObject         0000000140070fd0 f   libvcruntimed:frame.obj
 0001:00070010       __BuildCatchObjectHelper   0000000140071010 f   libvcruntimed:frame.obj
 0001:00070050       __TypeMatch                0000000140071050 f   libvcruntimed:frame.obj
 0001:00070080       __vcrt_EncodePointer       0000000140071080 f i libvcruntimed:frame.obj
 0001:000700e0       _CallSettingFrame          00000001400710e0 f   libvcruntimed:handlers.obj
 0001:00070120       _CallSettingFrame_LookupContinuationIndex 0000000140071120 f   libvcruntimed:handlers.obj
 0001:00070150       _CallSettingFrame_NotifyContinuationAddr 0000000140071150 f   libvcruntimed:handlers.obj
 0001:00070180       _CallSettingFrameEncoded   0000000140071180 f   libvcruntimed:handlers.obj
 0001:000701d0       ??$?RD@__crt_public_free_policy@@QEBAXQEBD@Z 00000001400711d0 f i libvcruntimed:std_exception.obj
 0001:000701f0       ??0?$__crt_unique_heap_ptr@DU__crt_public_free_policy@@@@QEAA@QEAD@Z 00000001400711f0 f i libvcruntimed:std_exception.obj
 0001:00070210       ??1?$__crt_unique_heap_ptr@DU__crt_public_free_policy@@@@QEAA@XZ 0000000140071210 f i libvcruntimed:std_exception.obj
 0001:00070230       ??B?$__crt_unique_heap_ptr@DU__crt_public_free_policy@@@@QEBA_NXZ 0000000140071230 f i libvcruntimed:std_exception.obj
 0001:00070250       ?detach@?$__crt_unique_heap_ptr@DU__crt_public_free_policy@@@@QEAAPEADXZ 0000000140071250 f i libvcruntimed:std_exception.obj
 0001:00070280       ?get@?$__crt_unique_heap_ptr@DU__crt_public_free_policy@@@@QEBAPEADXZ 0000000140071280 f i libvcruntimed:std_exception.obj
 0001:00070290       ?is_valid@?$__crt_unique_heap_ptr@DU__crt_public_free_policy@@@@QEBA_NXZ 0000000140071290 f i libvcruntimed:std_exception.obj
 0001:000702c0       ?release@?$__crt_unique_heap_ptr@DU__crt_public_free_policy@@@@QEAAXXZ 00000001400712c0 f i libvcruntimed:std_exception.obj
 0001:000702f0       __std_exception_copy       00000001400712f0 f   libvcruntimed:std_exception.obj
 0001:00070430       __std_exception_destroy    0000000140071430 f   libvcruntimed:std_exception.obj
 0001:00070470       _CxxThrowException         0000000140071470 f   libvcruntimed:throw.obj
 0001:000705b0       _aligned_free              00000001400715b0 f   libucrtd:align.obj
 0001:000705d0       _aligned_malloc            00000001400715d0 f   libucrtd:align.obj
 0001:00070600       _aligned_msize             0000000140071600 f   libucrtd:align.obj
 0001:00070630       _aligned_offset_malloc     0000000140071630 f   libucrtd:align.obj
 0001:00070670       _aligned_offset_realloc    0000000140071670 f   libucrtd:align.obj
 0001:000706c0       _aligned_offset_recalloc   00000001400716c0 f   libucrtd:align.obj
 0001:00070720       _aligned_realloc           0000000140071720 f   libucrtd:align.obj
 0001:00070760       _aligned_recalloc          0000000140071760 f   libucrtd:align.obj
 0001:000707b0       ??$?RPEAU__crt_stdio_stream_data@@@__crt_internal_free_policy@@QEBAXQEBQEAU__crt_stdio_stream_data@@@Z 00000001400717b0 f i libucrtd:_file.obj
 0001:000707e0       ??0?$__crt_unique_heap_ptr@PEAU__crt_stdio_stream_data@@U__crt_internal_free_policy@@@@QEAA@QEAPEAU__crt_stdio_stream_data@@@Z 00000001400717e0 f i libucrtd:_file.obj
 0001:00070800       ??0__crt_stdio_stream@@QEAA@QEAU_iobuf@@@Z 0000000140071800 f i libucrtd:_file.obj
 0001:00070820       ??1?$__crt_unique_heap_ptr@PEAU__crt_stdio_stream_data@@U__crt_internal_free_policy@@@@QEAA@XZ 0000000140071820 f i libucrtd:_file.obj
 0001:00070840       ??C__crt_stdio_stream@@QEBAPEAU__crt_stdio_stream_data@@XZ 0000000140071840 f i libucrtd:_file.obj
 0001:00070850       ?detach@?$__crt_unique_heap_ptr@PEAU__crt_stdio_stream_data@@U__crt_internal_free_policy@@@@QEAAPEAPEAU__crt_stdio_stream_data@@XZ 0000000140071850 f i libucrtd:_file.obj
 0001:00070880       ?release@?$__crt_unique_heap_ptr@PEAU__crt_stdio_stream_data@@U__crt_internal_free_policy@@@@QEAAXXZ 0000000140071880 f i libucrtd:_file.obj
 0001:000708b0       __acrt_initialize_stdio    00000001400718b0 f   libucrtd:_file.obj
 0001:00070aa0       __acrt_iob_func            0000000140071aa0 f   libucrtd:_file.obj
 0001:00070ac0       __acrt_uninitialize_stdio  0000000140071ac0 f   libucrtd:_file.obj
 0001:00070b50       _get_stream_buffer_pointers 0000000140071b50 f   libucrtd:_file.obj
 0001:00070c80       _lock_file                 0000000140071c80 f   libucrtd:_file.obj
 0001:00070cc0       _unlock_file               0000000140071cc0 f   libucrtd:_file.obj
 0001:00070d00       ??$?0AEBV?$stream_output_adapter@D@__crt_stdio_output@@AEB_KAEBQEBDAEAV__crt_cached_ptd_host@@AEBQEAD@?$format_validation_base@DV?$stream_output_adapter@D@__crt_stdio_output@@@__crt_stdio_output@@IEAA@AEBV?$stream_output_adapter@D@1@AEB_KAEBQEBDAEAV__crt_cached_ptd_host@@AEBQEAD@Z 0000000140071d00 f i libucrtd:output.obj
 0001:00070d50       ??$?0AEBV?$stream_output_adapter@D@__crt_stdio_output@@AEB_KAEBQEBDAEAV__crt_cached_ptd_host@@AEBQEAD@?$positional_parameter_base@DV?$stream_output_adapter@D@__crt_stdio_output@@@__crt_stdio_output@@IEAA@AEBV?$stream_output_adapter@D@1@AEB_KAEBQEBDAEAV__crt_cached_ptd_host@@AEBQEAD@Z 0000000140071d50 f i libucrtd:output.obj
 0001:00070df0       ??$?0AEBV?$stream_output_adapter@D@__crt_stdio_output@@AEB_KAEBQEBDAEAV__crt_cached_ptd_host@@AEBQEAD@?$standard_base@DV?$stream_output_adapter@D@__crt_stdio_output@@@__crt_stdio_output@@IEAA@AEBV?$stream_output_adapter@D@1@AEB_KAEBQEBDAEAV__crt_cached_ptd_host@@AEBQEAD@Z 0000000140071df0 f i libucrtd:output.obj
 0001:00070e60       ??$?0AEBV?$stream_output_adapter@_W@__crt_stdio_output@@AEB_KAEBQEB_WAEAV__crt_cached_ptd_host@@AEBQEAD@?$format_validation_base@_WV?$stream_output_adapter@_W@__crt_stdio_output@@@__crt_stdio_output@@IEAA@AEBV?$stream_output_adapter@_W@1@AEB_KAEBQEB_WAEAV__crt_cached_ptd_host@@AEBQEAD@Z 0000000140071e60 f i libucrtd:output.obj
 0001:00070eb0       ??$?0AEBV?$stream_output_adapter@_W@__crt_stdio_output@@AEB_KAEBQEB_WAEAV__crt_cached_ptd_host@@AEBQEAD@?$positional_parameter_base@_WV?$stream_output_adapter@_W@__crt_stdio_output@@@__crt_stdio_output@@IEAA@AEBV?$stream_output_adapter@_W@1@AEB_KAEBQEB_WAEAV__crt_cached_ptd_host@@AEBQEAD@Z 0000000140071eb0 f i libucrtd:output.obj
 0001:00070f50       ??$?0AEBV?$stream_output_adapter@_W@__crt_stdio_output@@AEB_KAEBQEB_WAEAV__crt_cached_ptd_host@@AEBQEAD@?$standard_base@_WV?$stream_output_adapter@_W@__crt_stdio_output@@@__crt_stdio_output@@IEAA@AEBV?$stream_output_adapter@_W@1@AEB_KAEBQEB_WAEAV__crt_cached_ptd_host@@AEBQEAD@Z 0000000140071f50 f i libucrtd:output.obj
 0001:00070fc0       ??$?0AEBV?$string_output_adapter@D@__crt_stdio_output@@AEB_KAEBQEBDAEAV__crt_cached_ptd_host@@AEBQEAD@?$format_validation_base@DV?$string_output_adapter@D@__crt_stdio_output@@@__crt_stdio_output@@IEAA@AEBV?$string_output_adapter@D@1@AEB_KAEBQEBDAEAV__crt_cached_ptd_host@@AEBQEAD@Z 0000000140071fc0 f i libucrtd:output.obj
 0001:00071010       ??$?0AEBV?$string_output_adapter@D@__crt_stdio_output@@AEB_KAEBQEBDAEAV__crt_cached_ptd_host@@AEBQEAD@?$positional_parameter_base@DV?$string_output_adapter@D@__crt_stdio_output@@@__crt_stdio_output@@IEAA@AEBV?$string_output_adapter@D@1@AEB_KAEBQEBDAEAV__crt_cached_ptd_host@@AEBQEAD@Z 0000000140072010 f i libucrtd:output.obj
 0001:000710b0       ??$?0AEBV?$string_output_adapter@D@__crt_stdio_output@@AEB_KAEBQEBDAEAV__crt_cached_ptd_host@@AEBQEAD@?$standard_base@DV?$string_output_adapter@D@__crt_stdio_output@@@__crt_stdio_output@@IEAA@AEBV?$string_output_adapter@D@1@AEB_KAEBQEBDAEAV__crt_cached_ptd_host@@AEBQEAD@Z 00000001400720b0 f i libucrtd:output.obj
 0001:00071120       ??$?0AEBV?$string_output_adapter@_W@__crt_stdio_output@@AEB_KAEBQEB_WAEAV__crt_cached_ptd_host@@AEBQEAD@?$format_validation_base@_WV?$string_output_adapter@_W@__crt_stdio_output@@@__crt_stdio_output@@IEAA@AEBV?$string_output_adapter@_W@1@AEB_KAEBQEB_WAEAV__crt_cached_ptd_host@@AEBQEAD@Z 0000000140072120 f i libucrtd:output.obj
 0001:00071170       ??$?0AEBV?$string_output_adapter@_W@__crt_stdio_output@@AEB_KAEBQEB_WAEAV__crt_cached_ptd_host@@AEBQEAD@?$positional_parameter_base@_WV?$string_output_adapter@_W@__crt_stdio_output@@@__crt_stdio_output@@IEAA@AEBV?$string_output_adapter@_W@1@AEB_KAEBQEB_WAEAV__crt_cached_ptd_host@@AEBQEAD@Z 0000000140072170 f i libucrtd:output.obj
 0001:00071210       ??$?0AEBV?$string_output_adapter@_W@__crt_stdio_output@@AEB_KAEBQEB_WAEAV__crt_cached_ptd_host@@AEBQEAD@?$standard_base@_WV?$string_output_adapter@_W@__crt_stdio_output@@@__crt_stdio_output@@IEAA@AEBV?$string_output_adapter@_W@1@AEB_KAEBQEB_WAEAV__crt_cached_ptd_host@@AEBQEAD@Z 0000000140072210 f i libucrtd:output.obj
 0001:000716a0       ??$__crt_interlocked_read@J@@YAJPEDJ@Z 00000001400726a0 f i libucrtd:output.obj
 0001:000716c0       ??$_tcstol_internal@DPEAPEAD$0A@@@YAJAEAV__crt_cached_ptd_host@@QEBDQEAPEADH@Z 00000001400726c0 f i libucrtd:output.obj
 0001:00071710       ??$_tcstol_internal@_WPEAPEA_W$0A@@@YAJAEAV__crt_cached_ptd_host@@QEB_WQEAPEA_WH@Z 0000000140072710 f i libucrtd:output.obj
 0001:00075730       ??$count@D@formatting_buffer@__crt_stdio_output@@QEBA_KXZ 0000000140076730 f i libucrtd:output.obj
 0001:00075780       ??$count@_W@formatting_buffer@__crt_stdio_output@@QEBA_KXZ 0000000140076780 f i libucrtd:output.obj
 0001:000757d0       ??$data@D@formatting_buffer@__crt_stdio_output@@QEAAPEADXZ 00000001400767d0 f i libucrtd:output.obj
 0001:00075820       ??$data@_W@formatting_buffer@__crt_stdio_output@@QEAAPEA_WXZ 0000000140076820 f i libucrtd:output.obj
 0001:00075870       ??$ensure_buffer_is_big_enough@D@formatting_buffer@__crt_stdio_output@@QEAA_N_KAEAV__crt_cached_ptd_host@@@Z 0000000140076870 f i libucrtd:output.obj
 0001:000759b0       ??$ensure_buffer_is_big_enough@_W@formatting_buffer@__crt_stdio_output@@QEAA_N_KAEAV__crt_cached_ptd_host@@@Z 00000001400769b0 f i libucrtd:output.obj
 0001:00075af0       ??$extract_argument_from_va_list@C_J@?$positional_parameter_base@DV?$stream_output_adapter@D@__crt_stdio_output@@@__crt_stdio_output@@IEAA_NAEA_J@Z 0000000140076af0 f i libucrtd:output.obj
 0001:00075cb0       ??$extract_argument_from_va_list@C_J@?$positional_parameter_base@DV?$string_output_adapter@D@__crt_stdio_output@@@__crt_stdio_output@@IEAA_NAEA_J@Z 0000000140076cb0 f i libucrtd:output.obj
 0001:00075e70       ??$extract_argument_from_va_list@C_J@?$positional_parameter_base@_WV?$stream_output_adapter@_W@__crt_stdio_output@@@__crt_stdio_output@@IEAA_NAEA_J@Z 0000000140076e70 f i libucrtd:output.obj
 0001:00076030       ??$extract_argument_from_va_list@C_J@?$positional_parameter_base@_WV?$string_output_adapter@_W@__crt_stdio_output@@@__crt_stdio_output@@IEAA_NAEA_J@Z 0000000140077030 f i libucrtd:output.obj
 0001:000761f0       ??$extract_argument_from_va_list@C_J@?$standard_base@DV?$stream_output_adapter@D@__crt_stdio_output@@@__crt_stdio_output@@IEAA_NAEA_J@Z 00000001400771f0 f i libucrtd:output.obj
 0001:00076230       ??$extract_argument_from_va_list@C_J@?$standard_base@DV?$string_output_adapter@D@__crt_stdio_output@@@__crt_stdio_output@@IEAA_NAEA_J@Z 0000000140077230 f i libucrtd:output.obj
 0001:00076270       ??$extract_argument_from_va_list@C_J@?$standard_base@_WV?$stream_output_adapter@_W@__crt_stdio_output@@@__crt_stdio_output@@IEAA_NAEA_J@Z 0000000140077270 f i libucrtd:output.obj
 0001:000762b0       ??$extract_argument_from_va_list@C_J@?$standard_base@_WV?$string_output_adapter@_W@__crt_stdio_output@@@__crt_stdio_output@@IEAA_NAEA_J@Z 00000001400772b0 f i libucrtd:output.obj
 0001:000762f0       ??$extract_argument_from_va_list@E_J@?$positional_parameter_base@DV?$stream_output_adapter@D@__crt_stdio_output@@@__crt_stdio_output@@IEAA_NAEA_J@Z 00000001400772f0 f i libucrtd:output.obj
 0001:000764b0       ??$extract_argument_from_va_list@E_J@?$positional_parameter_base@DV?$string_output_adapter@D@__crt_stdio_output@@@__crt_stdio_output@@IEAA_NAEA_J@Z 00000001400774b0 f i libucrtd:output.obj
 0001:00076670       ??$extract_argument_from_va_list@E_J@?$positional_parameter_base@_WV?$stream_output_adapter@_W@__crt_stdio_output@@@__crt_stdio_output@@IEAA_NAEA_J@Z 0000000140077670 f i libucrtd:output.obj
 0001:00076830       ??$extract_argument_from_va_list@E_J@?$positional_parameter_base@_WV?$string_output_adapter@_W@__crt_stdio_output@@@__crt_stdio_output@@IEAA_NAEA_J@Z 0000000140077830 f i libucrtd:output.obj
 0001:000769f0       ??$extract_argument_from_va_list@E_J@?$standard_base@DV?$stream_output_adapter@D@__crt_stdio_output@@@__crt_stdio_output@@IEAA_NAEA_J@Z 00000001400779f0 f i libucrtd:output.obj
 0001:00076a30       ??$extract_argument_from_va_list@E_J@?$standard_base@DV?$string_output_adapter@D@__crt_stdio_output@@@__crt_stdio_output@@IEAA_NAEA_J@Z 0000000140077a30 f i libucrtd:output.obj
 0001:00076a70       ??$extract_argument_from_va_list@E_J@?$standard_base@_WV?$stream_output_adapter@_W@__crt_stdio_output@@@__crt_stdio_output@@IEAA_NAEA_J@Z 0000000140077a70 f i libucrtd:output.obj
 0001:00076ab0       ??$extract_argument_from_va_list@E_J@?$standard_base@_WV?$string_output_adapter@_W@__crt_stdio_output@@@__crt_stdio_output@@IEAA_NAEA_J@Z 0000000140077ab0 f i libucrtd:output.obj
 0001:00076af0       ??$extract_argument_from_va_list@F_J@?$positional_parameter_base@DV?$stream_output_adapter@D@__crt_stdio_output@@@__crt_stdio_output@@IEAA_NAEA_J@Z 0000000140077af0 f i libucrtd:output.obj
 0001:00076cb0       ??$extract_argument_from_va_list@F_J@?$positional_parameter_base@DV?$string_output_adapter@D@__crt_stdio_output@@@__crt_stdio_output@@IEAA_NAEA_J@Z 0000000140077cb0 f i libucrtd:output.obj
 0001:00076e70       ??$extract_argument_from_va_list@F_J@?$positional_parameter_base@_WV?$stream_output_adapter@_W@__crt_stdio_output@@@__crt_stdio_output@@IEAA_NAEA_J@Z 0000000140077e70 f i libucrtd:output.obj
 0001:00077030       ??$extract_argument_from_va_list@F_J@?$positional_parameter_base@_WV?$string_output_adapter@_W@__crt_stdio_output@@@__crt_stdio_output@@IEAA_NAEA_J@Z 0000000140078030 f i libucrtd:output.obj
 0001:000771f0       ??$extract_argument_from_va_list@F_J@?$standard_base@DV?$stream_output_adapter@D@__crt_stdio_output@@@__crt_stdio_output@@IEAA_NAEA_J@Z 00000001400781f0 f i libucrtd:output.obj
 0001:00077230       ??$extract_argument_from_va_list@F_J@?$standard_base@DV?$string_output_adapter@D@__crt_stdio_output@@@__crt_stdio_output@@IEAA_NAEA_J@Z 0000000140078230 f i libucrtd:output.obj
 0001:00077270       ??$extract_argument_from_va_list@F_J@?$standard_base@_WV?$stream_output_adapter@_W@__crt_stdio_output@@@__crt_stdio_output@@IEAA_NAEA_J@Z 0000000140078270 f i libucrtd:output.obj
 0001:000772b0       ??$extract_argument_from_va_list@F_J@?$standard_base@_WV?$string_output_adapter@_W@__crt_stdio_output@@@__crt_stdio_output@@IEAA_NAEA_J@Z 00000001400782b0 f i libucrtd:output.obj
 0001:000772f0       ??$extract_argument_from_va_list@GD@?$positional_parameter_base@DV?$stream_output_adapter@D@__crt_stdio_output@@@__crt_stdio_output@@IEAA_NAEAD@Z 00000001400782f0 f i libucrtd:output.obj
 0001:000774b0       ??$extract_argument_from_va_list@GD@?$positional_parameter_base@DV?$string_output_adapter@D@__crt_stdio_output@@@__crt_stdio_output@@IEAA_NAEAD@Z 00000001400784b0 f i libucrtd:output.obj
 0001:00077670       ??$extract_argument_from_va_list@GD@?$standard_base@DV?$stream_output_adapter@D@__crt_stdio_output@@@__crt_stdio_output@@IEAA_NAEAD@Z 0000000140078670 f i libucrtd:output.obj
 0001:000776a0       ??$extract_argument_from_va_list@GD@?$standard_base@DV?$string_output_adapter@D@__crt_stdio_output@@@__crt_stdio_output@@IEAA_NAEAD@Z 00000001400786a0 f i libucrtd:output.obj
 0001:000776d0       ??$extract_argument_from_va_list@G_J@?$positional_parameter_base@DV?$stream_output_adapter@D@__crt_stdio_output@@@__crt_stdio_output@@IEAA_NAEA_J@Z 00000001400786d0 f i libucrtd:output.obj
 0001:00077890       ??$extract_argument_from_va_list@G_J@?$positional_parameter_base@DV?$string_output_adapter@D@__crt_stdio_output@@@__crt_stdio_output@@IEAA_NAEA_J@Z 0000000140078890 f i libucrtd:output.obj
 0001:00077a50       ??$extract_argument_from_va_list@G_J@?$positional_parameter_base@_WV?$stream_output_adapter@_W@__crt_stdio_output@@@__crt_stdio_output@@IEAA_NAEA_J@Z 0000000140078a50 f i libucrtd:output.obj
 0001:00077c10       ??$extract_argument_from_va_list@G_J@?$positional_parameter_base@_WV?$string_output_adapter@_W@__crt_stdio_output@@@__crt_stdio_output@@IEAA_NAEA_J@Z 0000000140078c10 f i libucrtd:output.obj
 0001:00077dd0       ??$extract_argument_from_va_list@G_J@?$standard_base@DV?$stream_output_adapter@D@__crt_stdio_output@@@__crt_stdio_output@@IEAA_NAEA_J@Z 0000000140078dd0 f i libucrtd:output.obj
 0001:00077e10       ??$extract_argument_from_va_list@G_J@?$standard_base@DV?$string_output_adapter@D@__crt_stdio_output@@@__crt_stdio_output@@IEAA_NAEA_J@Z 0000000140078e10 f i libucrtd:output.obj
 0001:00077e50       ??$extract_argument_from_va_list@G_J@?$standard_base@_WV?$stream_output_adapter@_W@__crt_stdio_output@@@__crt_stdio_output@@IEAA_NAEA_J@Z 0000000140078e50 f i libucrtd:output.obj
 0001:00077e90       ??$extract_argument_from_va_list@G_J@?$standard_base@_WV?$string_output_adapter@_W@__crt_stdio_output@@@__crt_stdio_output@@IEAA_NAEA_J@Z 0000000140078e90 f i libucrtd:output.obj
 0001:00077ed0       ??$extract_argument_from_va_list@H_J@?$positional_parameter_base@DV?$stream_output_adapter@D@__crt_stdio_output@@@__crt_stdio_output@@IEAA_NAEA_J@Z 0000000140078ed0 f i libucrtd:output.obj
 0001:00078090       ??$extract_argument_from_va_list@H_J@?$positional_parameter_base@DV?$string_output_adapter@D@__crt_stdio_output@@@__crt_stdio_output@@IEAA_NAEA_J@Z 0000000140079090 f i libucrtd:output.obj
 0001:00078250       ??$extract_argument_from_va_list@H_J@?$positional_parameter_base@_WV?$stream_output_adapter@_W@__crt_stdio_output@@@__crt_stdio_output@@IEAA_NAEA_J@Z 0000000140079250 f i libucrtd:output.obj
 0001:00078410       ??$extract_argument_from_va_list@H_J@?$positional_parameter_base@_WV?$string_output_adapter@_W@__crt_stdio_output@@@__crt_stdio_output@@IEAA_NAEA_J@Z 0000000140079410 f i libucrtd:output.obj
 0001:000785d0       ??$extract_argument_from_va_list@H_J@?$standard_base@DV?$stream_output_adapter@D@__crt_stdio_output@@@__crt_stdio_output@@IEAA_NAEA_J@Z 00000001400795d0 f i libucrtd:output.obj
 0001:00078600       ??$extract_argument_from_va_list@H_J@?$standard_base@DV?$string_output_adapter@D@__crt_stdio_output@@@__crt_stdio_output@@IEAA_NAEA_J@Z 0000000140079600 f i libucrtd:output.obj
 0001:00078630       ??$extract_argument_from_va_list@H_J@?$standard_base@_WV?$stream_output_adapter@_W@__crt_stdio_output@@@__crt_stdio_output@@IEAA_NAEA_J@Z 0000000140079630 f i libucrtd:output.obj
 0001:00078660       ??$extract_argument_from_va_list@H_J@?$standard_base@_WV?$string_output_adapter@_W@__crt_stdio_output@@@__crt_stdio_output@@IEAA_NAEA_J@Z 0000000140079660 f i libucrtd:output.obj
 0001:00078690       ??$extract_argument_from_va_list@I_J@?$positional_parameter_base@DV?$stream_output_adapter@D@__crt_stdio_output@@@__crt_stdio_output@@IEAA_NAEA_J@Z 0000000140079690 f i libucrtd:output.obj
 0001:00078850       ??$extract_argument_from_va_list@I_J@?$positional_parameter_base@DV?$string_output_adapter@D@__crt_stdio_output@@@__crt_stdio_output@@IEAA_NAEA_J@Z 0000000140079850 f i libucrtd:output.obj
 0001:00078a10       ??$extract_argument_from_va_list@I_J@?$positional_parameter_base@_WV?$stream_output_adapter@_W@__crt_stdio_output@@@__crt_stdio_output@@IEAA_NAEA_J@Z 0000000140079a10 f i libucrtd:output.obj
 0001:00078bd0       ??$extract_argument_from_va_list@I_J@?$positional_parameter_base@_WV?$string_output_adapter@_W@__crt_stdio_output@@@__crt_stdio_output@@IEAA_NAEA_J@Z 0000000140079bd0 f i libucrtd:output.obj
 0001:00078d90       ??$extract_argument_from_va_list@I_J@?$standard_base@DV?$stream_output_adapter@D@__crt_stdio_output@@@__crt_stdio_output@@IEAA_NAEA_J@Z 0000000140079d90 f i libucrtd:output.obj
 0001:00078dc0       ??$extract_argument_from_va_list@I_J@?$standard_base@DV?$string_output_adapter@D@__crt_stdio_output@@@__crt_stdio_output@@IEAA_NAEA_J@Z 0000000140079dc0 f i libucrtd:output.obj
 0001:00078df0       ??$extract_argument_from_va_list@I_J@?$standard_base@_WV?$stream_output_adapter@_W@__crt_stdio_output@@@__crt_stdio_output@@IEAA_NAEA_J@Z 0000000140079df0 f i libucrtd:output.obj
 0001:00078e20       ??$extract_argument_from_va_list@I_J@?$standard_base@_WV?$string_output_adapter@_W@__crt_stdio_output@@@__crt_stdio_output@@IEAA_NAEA_J@Z 0000000140079e20 f i libucrtd:output.obj
 0001:00078e50       ??$extract_argument_from_va_list@PEADPEAD@?$positional_parameter_base@DV?$stream_output_adapter@D@__crt_stdio_output@@@__crt_stdio_output@@IEAA_NAEAPEAD@Z 0000000140079e50 f i libucrtd:output.obj
 0001:00079010       ??$extract_argument_from_va_list@PEADPEAD@?$positional_parameter_base@DV?$string_output_adapter@D@__crt_stdio_output@@@__crt_stdio_output@@IEAA_NAEAPEAD@Z 000000014007a010 f i libucrtd:output.obj
 0001:000791d0       ??$extract_argument_from_va_list@PEADPEAD@?$positional_parameter_base@_WV?$stream_output_adapter@_W@__crt_stdio_output@@@__crt_stdio_output@@IEAA_NAEAPEAD@Z 000000014007a1d0 f i libucrtd:output.obj
 0001:00079390       ??$extract_argument_from_va_list@PEADPEAD@?$positional_parameter_base@_WV?$string_output_adapter@_W@__crt_stdio_output@@@__crt_stdio_output@@IEAA_NAEAPEAD@Z 000000014007a390 f i libucrtd:output.obj
 0001:00079550       ??$extract_argument_from_va_list@PEADPEAD@?$standard_base@DV?$stream_output_adapter@D@__crt_stdio_output@@@__crt_stdio_output@@IEAA_NAEAPEAD@Z 000000014007a550 f i libucrtd:output.obj
 0001:00079580       ??$extract_argument_from_va_list@PEADPEAD@?$standard_base@DV?$string_output_adapter@D@__crt_stdio_output@@@__crt_stdio_output@@IEAA_NAEAPEAD@Z 000000014007a580 f i libucrtd:output.obj
 0001:000795b0       ??$extract_argument_from_va_list@PEADPEAD@?$standard_base@_WV?$stream_output_adapter@_W@__crt_stdio_output@@@__crt_stdio_output@@IEAA_NAEAPEAD@Z 000000014007a5b0 f i libucrtd:output.obj
 0001:000795e0       ??$extract_argument_from_va_list@PEADPEAD@?$standard_base@_WV?$string_output_adapter@_W@__crt_stdio_output@@@__crt_stdio_output@@IEAA_NAEAPEAD@Z 000000014007a5e0 f i libucrtd:output.obj
 0001:00079610       ??$extract_argument_from_va_list@PEAUansi_string@?1??type_case_Z@?$output_processor@DV?$stream_output_adapter@D@__crt_stdio_output@@V?$format_validation_base@DV?$stream_output_adapter@D@__crt_stdio_output@@@2@@__crt_stdio_output@@AEAA_NXZ@PEAU1?1??234@AEAA_NXZ@@?$standard_base@DV?$stream_output_adapter@D@__crt_stdio_output@@@__crt_stdio_output@@IEAA_NAEAPEAUansi_string@?1??type_case_Z@?$output_processor@DV?$stream_output_adapter@D@__crt_stdio_output@@V?$format_validation_base@DV?$stream_output_adapter@D@__crt_stdio_output@@@2@@1@AEAA_NXZ@@Z 000000014007a610 f i libucrtd:output.obj
 0001:00079640       ??$extract_argument_from_va_list@PEAUansi_string@?1??type_case_Z@?$output_processor@DV?$stream_output_adapter@D@__crt_stdio_output@@V?$positional_parameter_base@DV?$stream_output_adapter@D@__crt_stdio_output@@@2@@__crt_stdio_output@@AEAA_NXZ@PEAU1?1??234@AEAA_NXZ@@?$positional_parameter_base@DV?$stream_output_adapter@D@__crt_stdio_output@@@__crt_stdio_output@@IEAA_NAEAPEAUansi_string@?1??type_case_Z@?$output_processor@DV?$stream_output_adapter@D@__crt_stdio_output@@V?$positional_parameter_base@DV?$stream_output_adapter@D@__crt_stdio_output@@@2@@1@AEAA_NXZ@@Z 000000014007a640 f i libucrtd:output.obj
 0001:00079800       ??$extract_argument_from_va_list@PEAUansi_string@?1??type_case_Z@?$output_processor@DV?$stream_output_adapter@D@__crt_stdio_output@@V?$positional_parameter_base@DV?$stream_output_adapter@D@__crt_stdio_output@@@2@@__crt_stdio_output@@AEAA_NXZ@PEAU1?1??234@AEAA_NXZ@@?$standard_base@DV?$stream_output_adapter@D@__crt_stdio_output@@@__crt_stdio_output@@IEAA_NAEAPEAUansi_string@?1??type_case_Z@?$output_processor@DV?$stream_output_adapter@D@__crt_stdio_output@@V?$positional_parameter_base@DV?$stream_output_adapter@D@__crt_stdio_output@@@2@@1@AEAA_NXZ@@Z 000000014007a800 f i libucrtd:output.obj
 0001:00079830       ??$extract_argument_from_va_list@PEAUansi_string@?1??type_case_Z@?$output_processor@DV?$stream_output_adapter@D@__crt_stdio_output@@V?$standard_base@DV?$stream_output_adapter@D@__crt_stdio_output@@@2@@__crt_stdio_output@@AEAA_NXZ@PEAU1?1??234@AEAA_NXZ@@?$standard_base@DV?$stream_output_adapter@D@__crt_stdio_output@@@__crt_stdio_output@@IEAA_NAEAPEAUansi_string@?1??type_case_Z@?$output_processor@DV?$stream_output_adapter@D@__crt_stdio_output@@V?$standard_base@DV?$stream_output_adapter@D@__crt_stdio_output@@@2@@1@AEAA_NXZ@@Z 000000014007a830 f i libucrtd:output.obj
 0001:00079860       ??$extract_argument_from_va_list@PEAUansi_string@?1??type_case_Z@?$output_processor@DV?$string_output_adapter@D@__crt_stdio_output@@V?$format_validation_base@DV?$string_output_adapter@D@__crt_stdio_output@@@2@@__crt_stdio_output@@AEAA_NXZ@PEAU1?1??234@AEAA_NXZ@@?$standard_base@DV?$string_output_adapter@D@__crt_stdio_output@@@__crt_stdio_output@@IEAA_NAEAPEAUansi_string@?1??type_case_Z@?$output_processor@DV?$string_output_adapter@D@__crt_stdio_output@@V?$format_validation_base@DV?$string_output_adapter@D@__crt_stdio_output@@@2@@1@AEAA_NXZ@@Z 000000014007a860 f i libucrtd:output.obj
 0001:00079890       ??$extract_argument_from_va_list@PEAUansi_string@?1??type_case_Z@?$output_processor@DV?$string_output_adapter@D@__crt_stdio_output@@V?$positional_parameter_base@DV?$string_output_adapter@D@__crt_stdio_output@@@2@@__crt_stdio_output@@AEAA_NXZ@PEAU1?1??234@AEAA_NXZ@@?$positional_parameter_base@DV?$string_output_adapter@D@__crt_stdio_output@@@__crt_stdio_output@@IEAA_NAEAPEAUansi_string@?1??type_case_Z@?$output_processor@DV?$string_output_adapter@D@__crt_stdio_output@@V?$positional_parameter_base@DV?$string_output_adapter@D@__crt_stdio_output@@@2@@1@AEAA_NXZ@@Z 000000014007a890 f i libucrtd:output.obj
 0001:00079a50       ??$extract_argument_from_va_list@PEAUansi_string@?1??type_case_Z@?$output_processor@DV?$string_output_adapter@D@__crt_stdio_output@@V?$positional_parameter_base@DV?$string_output_adapter@D@__crt_stdio_output@@@2@@__crt_stdio_output@@AEAA_NXZ@PEAU1?1??234@AEAA_NXZ@@?$standard_base@DV?$string_output_adapter@D@__crt_stdio_output@@@__crt_stdio_output@@IEAA_NAEAPEAUansi_string@?1??type_case_Z@?$output_processor@DV?$string_output_adapter@D@__crt_stdio_output@@V?$positional_parameter_base@DV?$string_output_adapter@D@__crt_stdio_output@@@2@@1@AEAA_NXZ@@Z 000000014007aa50 f i libucrtd:output.obj
 0001:00079a80       ??$extract_argument_from_va_list@PEAUansi_string@?1??type_case_Z@?$output_processor@DV?$string_output_adapter@D@__crt_stdio_output@@V?$standard_base@DV?$string_output_adapter@D@__crt_stdio_output@@@2@@__crt_stdio_output@@AEAA_NXZ@PEAU1?1??234@AEAA_NXZ@@?$standard_base@DV?$string_output_adapter@D@__crt_stdio_output@@@__crt_stdio_output@@IEAA_NAEAPEAUansi_string@?1??type_case_Z@?$output_processor@DV?$string_output_adapter@D@__crt_stdio_output@@V?$standard_base@DV?$string_output_adapter@D@__crt_stdio_output@@@2@@1@AEAA_NXZ@@Z 000000014007aa80 f i libucrtd:output.obj
 0001:00079ab0       ??$extract_argument_from_va_list@PEAUansi_string@?1??type_case_Z@?$output_processor@_WV?$stream_output_adapter@_W@__crt_stdio_output@@V?$format_validation_base@_WV?$stream_output_adapter@_W@__crt_stdio_output@@@2@@__crt_stdio_output@@AEAA_NXZ@PEAU1?1??234@AEAA_NXZ@@?$standard_base@_WV?$stream_output_adapter@_W@__crt_stdio_output@@@__crt_stdio_output@@IEAA_NAEAPEAUansi_string@?1??type_case_Z@?$output_processor@_WV?$stream_output_adapter@_W@__crt_stdio_output@@V?$format_validation_base@_WV?$stream_output_adapter@_W@__crt_stdio_output@@@2@@1@AEAA_NXZ@@Z 000000014007aab0 f i libucrtd:output.obj
 0001:00079ae0       ??$extract_argument_from_va_list@PEAUansi_string@?1??type_case_Z@?$output_processor@_WV?$stream_output_adapter@_W@__crt_stdio_output@@V?$positional_parameter_base@_WV?$stream_output_adapter@_W@__crt_stdio_output@@@2@@__crt_stdio_output@@AEAA_NXZ@PEAU1?1??234@AEAA_NXZ@@?$positional_parameter_base@_WV?$stream_output_adapter@_W@__crt_stdio_output@@@__crt_stdio_output@@IEAA_NAEAPEAUansi_string@?1??type_case_Z@?$output_processor@_WV?$stream_output_adapter@_W@__crt_stdio_output@@V?$positional_parameter_base@_WV?$stream_output_adapter@_W@__crt_stdio_output@@@2@@1@AEAA_NXZ@@Z 000000014007aae0 f i libucrtd:output.obj
 0001:00079ca0       ??$extract_argument_from_va_list@PEAUansi_string@?1??type_case_Z@?$output_processor@_WV?$stream_output_adapter@_W@__crt_stdio_output@@V?$positional_parameter_base@_WV?$stream_output_adapter@_W@__crt_stdio_output@@@2@@__crt_stdio_output@@AEAA_NXZ@PEAU1?1??234@AEAA_NXZ@@?$standard_base@_WV?$stream_output_adapter@_W@__crt_stdio_output@@@__crt_stdio_output@@IEAA_NAEAPEAUansi_string@?1??type_case_Z@?$output_processor@_WV?$stream_output_adapter@_W@__crt_stdio_output@@V?$positional_parameter_base@_WV?$stream_output_adapter@_W@__crt_stdio_output@@@2@@1@AEAA_NXZ@@Z 000000014007aca0 f i libucrtd:output.obj
 0001:00079cd0       ??$extract_argument_from_va_list@PEAUansi_string@?1??type_case_Z@?$output_processor@_WV?$stream_output_adapter@_W@__crt_stdio_output@@V?$standard_base@_WV?$stream_output_adapter@_W@__crt_stdio_output@@@2@@__crt_stdio_output@@AEAA_NXZ@PEAU1?1??234@AEAA_NXZ@@?$standard_base@_WV?$stream_output_adapter@_W@__crt_stdio_output@@@__crt_stdio_output@@IEAA_NAEAPEAUansi_string@?1??type_case_Z@?$output_processor@_WV?$stream_output_adapter@_W@__crt_stdio_output@@V?$standard_base@_WV?$stream_output_adapter@_W@__crt_stdio_output@@@2@@1@AEAA_NXZ@@Z 000000014007acd0 f i libucrtd:output.obj
 0001:00079d00       ??$extract_argument_from_va_list@PEAUansi_string@?1??type_case_Z@?$output_processor@_WV?$string_output_adapter@_W@__crt_stdio_output@@V?$format_validation_base@_WV?$string_output_adapter@_W@__crt_stdio_output@@@2@@__crt_stdio_output@@AEAA_NXZ@PEAU1?1??234@AEAA_NXZ@@?$standard_base@_WV?$string_output_adapter@_W@__crt_stdio_output@@@__crt_stdio_output@@IEAA_NAEAPEAUansi_string@?1??type_case_Z@?$output_processor@_WV?$string_output_adapter@_W@__crt_stdio_output@@V?$format_validation_base@_WV?$string_output_adapter@_W@__crt_stdio_output@@@2@@1@AEAA_NXZ@@Z 000000014007ad00 f i libucrtd:output.obj
 0001:00079d30       ??$extract_argument_from_va_list@PEAUansi_string@?1??type_case_Z@?$output_processor@_WV?$string_output_adapter@_W@__crt_stdio_output@@V?$positional_parameter_base@_WV?$string_output_adapter@_W@__crt_stdio_output@@@2@@__crt_stdio_output@@AEAA_NXZ@PEAU1?1??234@AEAA_NXZ@@?$positional_parameter_base@_WV?$string_output_adapter@_W@__crt_stdio_output@@@__crt_stdio_output@@IEAA_NAEAPEAUansi_string@?1??type_case_Z@?$output_processor@_WV?$string_output_adapter@_W@__crt_stdio_output@@V?$positional_parameter_base@_WV?$string_output_adapter@_W@__crt_stdio_output@@@2@@1@AEAA_NXZ@@Z 000000014007ad30 f i libucrtd:output.obj
 0001:00079ef0       ??$extract_argument_from_va_list@PEAUansi_string@?1??type_case_Z@?$output_processor@_WV?$string_output_adapter@_W@__crt_stdio_output@@V?$positional_parameter_base@_WV?$string_output_adapter@_W@__crt_stdio_output@@@2@@__crt_stdio_output@@AEAA_NXZ@PEAU1?1??234@AEAA_NXZ@@?$standard_base@_WV?$string_output_adapter@_W@__crt_stdio_output@@@__crt_stdio_output@@IEAA_NAEAPEAUansi_string@?1??type_case_Z@?$output_processor@_WV?$string_output_adapter@_W@__crt_stdio_output@@V?$positional_parameter_base@_WV?$string_output_adapter@_W@__crt_stdio_output@@@2@@1@AEAA_NXZ@@Z 000000014007aef0 f i libucrtd:output.obj
 0001:00079f20       ??$extract_argument_from_va_list@PEAUansi_string@?1??type_case_Z@?$output_processor@_WV?$string_output_adapter@_W@__crt_stdio_output@@V?$standard_base@_WV?$string_output_adapter@_W@__crt_stdio_output@@@2@@__crt_stdio_output@@AEAA_NXZ@PEAU1?1??234@AEAA_NXZ@@?$standard_base@_WV?$string_output_adapter@_W@__crt_stdio_output@@@__crt_stdio_output@@IEAA_NAEAPEAUansi_string@?1??type_case_Z@?$output_processor@_WV?$string_output_adapter@_W@__crt_stdio_output@@V?$standard_base@_WV?$string_output_adapter@_W@__crt_stdio_output@@@2@@1@AEAA_NXZ@@Z 000000014007af20 f i libucrtd:output.obj
 0001:00079f50       ??$extract_argument_from_va_list@PEAXPEAX@?$positional_parameter_base@DV?$stream_output_adapter@D@__crt_stdio_output@@@__crt_stdio_output@@IEAA_NAEAPEAX@Z 000000014007af50 f i libucrtd:output.obj
 0001:0007a110       ??$extract_argument_from_va_list@PEAXPEAX@?$positional_parameter_base@DV?$string_output_adapter@D@__crt_stdio_output@@@__crt_stdio_output@@IEAA_NAEAPEAX@Z 000000014007b110 f i libucrtd:output.obj
 0001:0007a2d0       ??$extract_argument_from_va_list@PEAXPEAX@?$positional_parameter_base@_WV?$stream_output_adapter@_W@__crt_stdio_output@@@__crt_stdio_output@@IEAA_NAEAPEAX@Z 000000014007b2d0 f i libucrtd:output.obj
 0001:0007a490       ??$extract_argument_from_va_list@PEAXPEAX@?$positional_parameter_base@_WV?$string_output_adapter@_W@__crt_stdio_output@@@__crt_stdio_output@@IEAA_NAEAPEAX@Z 000000014007b490 f i libucrtd:output.obj
 0001:0007a650       ??$extract_argument_from_va_list@PEAXPEAX@?$standard_base@DV?$stream_output_adapter@D@__crt_stdio_output@@@__crt_stdio_output@@IEAA_NAEAPEAX@Z 000000014007b650 f i libucrtd:output.obj
 0001:0007a680       ??$extract_argument_from_va_list@PEAXPEAX@?$standard_base@DV?$string_output_adapter@D@__crt_stdio_output@@@__crt_stdio_output@@IEAA_NAEAPEAX@Z 000000014007b680 f i libucrtd:output.obj
 0001:0007a6b0       ??$extract_argument_from_va_list@PEAXPEAX@?$standard_base@_WV?$stream_output_adapter@_W@__crt_stdio_output@@@__crt_stdio_output@@IEAA_NAEAPEAX@Z 000000014007b6b0 f i libucrtd:output.obj
 0001:0007a6e0       ??$extract_argument_from_va_list@PEAXPEAX@?$standard_base@_WV?$string_output_adapter@_W@__crt_stdio_output@@@__crt_stdio_output@@IEAA_NAEAPEAX@Z 000000014007b6e0 f i libucrtd:output.obj
 0001:0007a710       ??$extract_argument_from_va_list@U_CRT_DOUBLE@@U1@@?$positional_parameter_base@DV?$stream_output_adapter@D@__crt_stdio_output@@@__crt_stdio_output@@IEAA_NAEAU_CRT_DOUBLE@@@Z 000000014007b710 f i libucrtd:output.obj
 0001:0007a930       ??$extract_argument_from_va_list@U_CRT_DOUBLE@@U1@@?$positional_parameter_base@DV?$string_output_adapter@D@__crt_stdio_output@@@__crt_stdio_output@@IEAA_NAEAU_CRT_DOUBLE@@@Z 000000014007b930 f i libucrtd:output.obj
 0001:0007ab50       ??$extract_argument_from_va_list@U_CRT_DOUBLE@@U1@@?$positional_parameter_base@_WV?$stream_output_adapter@_W@__crt_stdio_output@@@__crt_stdio_output@@IEAA_NAEAU_CRT_DOUBLE@@@Z 000000014007bb50 f i libucrtd:output.obj
 0001:0007ad70       ??$extract_argument_from_va_list@U_CRT_DOUBLE@@U1@@?$positional_parameter_base@_WV?$string_output_adapter@_W@__crt_stdio_output@@@__crt_stdio_output@@IEAA_NAEAU_CRT_DOUBLE@@@Z 000000014007bd70 f i libucrtd:output.obj
 0001:0007af90       ??$extract_argument_from_va_list@U_CRT_DOUBLE@@U1@@?$standard_base@DV?$stream_output_adapter@D@__crt_stdio_output@@@__crt_stdio_output@@IEAA_NAEAU_CRT_DOUBLE@@@Z 000000014007bf90 f i libucrtd:output.obj
 0001:0007afe0       ??$extract_argument_from_va_list@U_CRT_DOUBLE@@U1@@?$standard_base@DV?$string_output_adapter@D@__crt_stdio_output@@@__crt_stdio_output@@IEAA_NAEAU_CRT_DOUBLE@@@Z 000000014007bfe0 f i libucrtd:output.obj
 0001:0007b030       ??$extract_argument_from_va_list@U_CRT_DOUBLE@@U1@@?$standard_base@_WV?$stream_output_adapter@_W@__crt_stdio_output@@@__crt_stdio_output@@IEAA_NAEAU_CRT_DOUBLE@@@Z 000000014007c030 f i libucrtd:output.obj
 0001:0007b080       ??$extract_argument_from_va_list@U_CRT_DOUBLE@@U1@@?$standard_base@_WV?$string_output_adapter@_W@__crt_stdio_output@@@__crt_stdio_output@@IEAA_NAEAU_CRT_DOUBLE@@@Z 000000014007c080 f i libucrtd:output.obj
 0001:0007b0d0       ??$extract_argument_from_va_list@_J_J@?$positional_parameter_base@DV?$stream_output_adapter@D@__crt_stdio_output@@@__crt_stdio_output@@IEAA_NAEA_J@Z 000000014007c0d0 f i libucrtd:output.obj
 0001:0007b290       ??$extract_argument_from_va_list@_J_J@?$positional_parameter_base@DV?$string_output_adapter@D@__crt_stdio_output@@@__crt_stdio_output@@IEAA_NAEA_J@Z 000000014007c290 f i libucrtd:output.obj
 0001:0007b450       ??$extract_argument_from_va_list@_J_J@?$positional_parameter_base@_WV?$stream_output_adapter@_W@__crt_stdio_output@@@__crt_stdio_output@@IEAA_NAEA_J@Z 000000014007c450 f i libucrtd:output.obj
 0001:0007b610       ??$extract_argument_from_va_list@_J_J@?$positional_parameter_base@_WV?$string_output_adapter@_W@__crt_stdio_output@@@__crt_stdio_output@@IEAA_NAEA_J@Z 000000014007c610 f i libucrtd:output.obj
 0001:0007b7d0       ??$extract_argument_from_va_list@_J_J@?$standard_base@DV?$stream_output_adapter@D@__crt_stdio_output@@@__crt_stdio_output@@IEAA_NAEA_J@Z 000000014007c7d0 f i libucrtd:output.obj
 0001:0007b800       ??$extract_argument_from_va_list@_J_J@?$standard_base@DV?$string_output_adapter@D@__crt_stdio_output@@@__crt_stdio_output@@IEAA_NAEA_J@Z 000000014007c800 f i libucrtd:output.obj
 0001:0007b830       ??$extract_argument_from_va_list@_J_J@?$standard_base@_WV?$stream_output_adapter@_W@__crt_stdio_output@@@__crt_stdio_output@@IEAA_NAEA_J@Z 000000014007c830 f i libucrtd:output.obj
 0001:0007b860       ??$extract_argument_from_va_list@_J_J@?$standard_base@_WV?$string_output_adapter@_W@__crt_stdio_output@@@__crt_stdio_output@@IEAA_NAEA_J@Z 000000014007c860 f i libucrtd:output.obj
 0001:0007b890       ??$extract_argument_from_va_list@_K_J@?$positional_parameter_base@DV?$stream_output_adapter@D@__crt_stdio_output@@@__crt_stdio_output@@IEAA_NAEA_J@Z 000000014007c890 f i libucrtd:output.obj
 0001:0007ba50       ??$extract_argument_from_va_list@_K_J@?$positional_parameter_base@DV?$string_output_adapter@D@__crt_stdio_output@@@__crt_stdio_output@@IEAA_NAEA_J@Z 000000014007ca50 f i libucrtd:output.obj
 0001:0007bc10       ??$extract_argument_from_va_list@_K_J@?$positional_parameter_base@_WV?$stream_output_adapter@_W@__crt_stdio_output@@@__crt_stdio_output@@IEAA_NAEA_J@Z 000000014007cc10 f i libucrtd:output.obj
 0001:0007bdd0       ??$extract_argument_from_va_list@_K_J@?$positional_parameter_base@_WV?$string_output_adapter@_W@__crt_stdio_output@@@__crt_stdio_output@@IEAA_NAEA_J@Z 000000014007cdd0 f i libucrtd:output.obj
 0001:0007bf90       ??$extract_argument_from_va_list@_K_J@?$standard_base@DV?$stream_output_adapter@D@__crt_stdio_output@@@__crt_stdio_output@@IEAA_NAEA_J@Z 000000014007cf90 f i libucrtd:output.obj
 0001:0007bfc0       ??$extract_argument_from_va_list@_K_J@?$standard_base@DV?$string_output_adapter@D@__crt_stdio_output@@@__crt_stdio_output@@IEAA_NAEA_J@Z 000000014007cfc0 f i libucrtd:output.obj
 0001:0007bff0       ??$extract_argument_from_va_list@_K_J@?$standard_base@_WV?$stream_output_adapter@_W@__crt_stdio_output@@@__crt_stdio_output@@IEAA_NAEA_J@Z 000000014007cff0 f i libucrtd:output.obj
 0001:0007c020       ??$extract_argument_from_va_list@_K_J@?$standard_base@_WV?$string_output_adapter@_W@__crt_stdio_output@@@__crt_stdio_output@@IEAA_NAEA_J@Z 000000014007d020 f i libucrtd:output.obj
 0001:0007c050       ??$extract_argument_from_va_list@_W_W@?$positional_parameter_base@DV?$stream_output_adapter@D@__crt_stdio_output@@@__crt_stdio_output@@IEAA_NAEA_W@Z 000000014007d050 f i libucrtd:output.obj
 0001:0007c210       ??$extract_argument_from_va_list@_W_W@?$positional_parameter_base@DV?$string_output_adapter@D@__crt_stdio_output@@@__crt_stdio_output@@IEAA_NAEA_W@Z 000000014007d210 f i libucrtd:output.obj
 0001:0007c3d0       ??$extract_argument_from_va_list@_W_W@?$positional_parameter_base@_WV?$stream_output_adapter@_W@__crt_stdio_output@@@__crt_stdio_output@@IEAA_NAEA_W@Z 000000014007d3d0 f i libucrtd:output.obj
 0001:0007c590       ??$extract_argument_from_va_list@_W_W@?$positional_parameter_base@_WV?$string_output_adapter@_W@__crt_stdio_output@@@__crt_stdio_output@@IEAA_NAEA_W@Z 000000014007d590 f i libucrtd:output.obj
 0001:0007c750       ??$extract_argument_from_va_list@_W_W@?$standard_base@DV?$stream_output_adapter@D@__crt_stdio_output@@@__crt_stdio_output@@IEAA_NAEA_W@Z 000000014007d750 f i libucrtd:output.obj
 0001:0007c780       ??$extract_argument_from_va_list@_W_W@?$standard_base@DV?$string_output_adapter@D@__crt_stdio_output@@@__crt_stdio_output@@IEAA_NAEA_W@Z 000000014007d780 f i libucrtd:output.obj
 0001:0007c7b0       ??$extract_argument_from_va_list@_W_W@?$standard_base@_WV?$stream_output_adapter@_W@__crt_stdio_output@@@__crt_stdio_output@@IEAA_NAEA_W@Z 000000014007d7b0 f i libucrtd:output.obj
 0001:0007c7e0       ??$extract_argument_from_va_list@_W_W@?$standard_base@_WV?$string_output_adapter@_W@__crt_stdio_output@@@__crt_stdio_output@@IEAA_NAEA_W@Z 000000014007d7e0 f i libucrtd:output.obj
 0001:0007c810       ??$get_parameter_type@D@?$positional_parameter_base@DV?$stream_output_adapter@D@__crt_stdio_output@@@__crt_stdio_output@@CA?AW4parameter_type@01@PEAD@Z 000000014007d810 f i libucrtd:output.obj
 0001:0007c820       ??$get_parameter_type@D@?$positional_parameter_base@DV?$string_output_adapter@D@__crt_stdio_output@@@__crt_stdio_output@@CA?AW4parameter_type@01@PEAD@Z 000000014007d820 f i libucrtd:output.obj
 0001:0007c830       ??$get_parameter_type@D@?$positional_parameter_base@_WV?$stream_output_adapter@_W@__crt_stdio_output@@@__crt_stdio_output@@CA?AW4parameter_type@01@PEAD@Z 000000014007d830 f i libucrtd:output.obj
 0001:0007c840       ??$get_parameter_type@D@?$positional_parameter_base@_WV?$string_output_adapter@_W@__crt_stdio_output@@@__crt_stdio_output@@CA?AW4parameter_type@01@PEAD@Z 000000014007d840 f i libucrtd:output.obj
 0001:0007c850       ??$get_parameter_type@Uansi_string@?1??type_case_Z@?$output_processor@DV?$stream_output_adapter@D@__crt_stdio_output@@V?$positional_parameter_base@DV?$stream_output_adapter@D@__crt_stdio_output@@@2@@__crt_stdio_output@@AEAA_NXZ@@?$positional_parameter_base@DV?$stream_output_adapter@D@__crt_stdio_output@@@__crt_stdio_output@@CA?AW4parameter_type@01@PEAUansi_string@?1??type_case_Z@?$output_processor@DV?$stream_output_adapter@D@__crt_stdio_output@@V?$positional_parameter_base@DV?$stream_output_adapter@D@__crt_stdio_output@@@2@@1@AEAA_NXZ@@Z 000000014007d850 f i libucrtd:output.obj
 0001:0007c860       ??$get_parameter_type@Uansi_string@?1??type_case_Z@?$output_processor@DV?$string_output_adapter@D@__crt_stdio_output@@V?$positional_parameter_base@DV?$string_output_adapter@D@__crt_stdio_output@@@2@@__crt_stdio_output@@AEAA_NXZ@@?$positional_parameter_base@DV?$string_output_adapter@D@__crt_stdio_output@@@__crt_stdio_output@@CA?AW4parameter_type@01@PEAUansi_string@?1??type_case_Z@?$output_processor@DV?$string_output_adapter@D@__crt_stdio_output@@V?$positional_parameter_base@DV?$string_output_adapter@D@__crt_stdio_output@@@2@@1@AEAA_NXZ@@Z 000000014007d860 f i libucrtd:output.obj
 0001:0007c870       ??$get_parameter_type@Uansi_string@?1??type_case_Z@?$output_processor@_WV?$stream_output_adapter@_W@__crt_stdio_output@@V?$positional_parameter_base@_WV?$stream_output_adapter@_W@__crt_stdio_output@@@2@@__crt_stdio_output@@AEAA_NXZ@@?$positional_parameter_base@_WV?$stream_output_adapter@_W@__crt_stdio_output@@@__crt_stdio_output@@CA?AW4parameter_type@01@PEAUansi_string@?1??type_case_Z@?$output_processor@_WV?$stream_output_adapter@_W@__crt_stdio_output@@V?$positional_parameter_base@_WV?$stream_output_adapter@_W@__crt_stdio_output@@@2@@1@AEAA_NXZ@@Z 000000014007d870 f i libucrtd:output.obj
 0001:0007c880       ??$get_parameter_type@Uansi_string@?1??type_case_Z@?$output_processor@_WV?$string_output_adapter@_W@__crt_stdio_output@@V?$positional_parameter_base@_WV?$string_output_adapter@_W@__crt_stdio_output@@@2@@__crt_stdio_output@@AEAA_NXZ@@?$positional_parameter_base@_WV?$string_output_adapter@_W@__crt_stdio_output@@@__crt_stdio_output@@CA?AW4parameter_type@01@PEAUansi_string@?1??type_case_Z@?$output_processor@_WV?$string_output_adapter@_W@__crt_stdio_output@@V?$positional_parameter_base@_WV?$string_output_adapter@_W@__crt_stdio_output@@@2@@1@AEAA_NXZ@@Z 000000014007d880 f i libucrtd:output.obj
 0001:0007c890       ??$get_parameter_type@X@?$positional_parameter_base@DV?$stream_output_adapter@D@__crt_stdio_output@@@__crt_stdio_output@@CA?AW4parameter_type@01@PEAX@Z 000000014007d890 f i libucrtd:output.obj
 0001:0007c8a0       ??$get_parameter_type@X@?$positional_parameter_base@DV?$string_output_adapter@D@__crt_stdio_output@@@__crt_stdio_output@@CA?AW4parameter_type@01@PEAX@Z 000000014007d8a0 f i libucrtd:output.obj
 0001:0007c8b0       ??$get_parameter_type@X@?$positional_parameter_base@_WV?$stream_output_adapter@_W@__crt_stdio_output@@@__crt_stdio_output@@CA?AW4parameter_type@01@PEAX@Z 000000014007d8b0 f i libucrtd:output.obj
 0001:0007c8c0       ??$get_parameter_type@X@?$positional_parameter_base@_WV?$string_output_adapter@_W@__crt_stdio_output@@@__crt_stdio_output@@CA?AW4parameter_type@01@PEAX@Z 000000014007d8c0 f i libucrtd:output.obj
 0001:0007c8d0       ??$is_character_specifier@D@?$positional_parameter_base@DV?$stream_output_adapter@D@__crt_stdio_output@@@__crt_stdio_output@@CA_ND@Z 000000014007d8d0 f i libucrtd:output.obj
 0001:0007c910       ??$is_character_specifier@D@?$positional_parameter_base@DV?$string_output_adapter@D@__crt_stdio_output@@@__crt_stdio_output@@CA_ND@Z 000000014007d910 f i libucrtd:output.obj
 0001:0007c950       ??$is_character_specifier@_W@?$positional_parameter_base@_WV?$stream_output_adapter@_W@__crt_stdio_output@@@__crt_stdio_output@@CA_N_W@Z 000000014007d950 f i libucrtd:output.obj
 0001:0007c990       ??$is_character_specifier@_W@?$positional_parameter_base@_WV?$string_output_adapter@_W@__crt_stdio_output@@@__crt_stdio_output@@CA_N_W@Z 000000014007d990 f i libucrtd:output.obj
 0001:0007c9d0       ??$is_integral_specifier@D@?$positional_parameter_base@DV?$stream_output_adapter@D@__crt_stdio_output@@@__crt_stdio_output@@CA_ND@Z 000000014007d9d0 f i libucrtd:output.obj
 0001:0007ca40       ??$is_integral_specifier@D@?$positional_parameter_base@DV?$string_output_adapter@D@__crt_stdio_output@@@__crt_stdio_output@@CA_ND@Z 000000014007da40 f i libucrtd:output.obj
 0001:0007cab0       ??$is_integral_specifier@_W@?$positional_parameter_base@_WV?$stream_output_adapter@_W@__crt_stdio_output@@@__crt_stdio_output@@CA_N_W@Z 000000014007dab0 f i libucrtd:output.obj
 0001:0007cb20       ??$is_integral_specifier@_W@?$positional_parameter_base@_WV?$string_output_adapter@_W@__crt_stdio_output@@@__crt_stdio_output@@CA_N_W@Z 000000014007db20 f i libucrtd:output.obj
 0001:0007cb90       ??$is_overflow_condition@K@__crt_strtox@@YA_NIK@Z 000000014007db90 f i libucrtd:output.obj
 0001:0007cc00       ??$is_pointer_specifier@D@?$positional_parameter_base@DV?$stream_output_adapter@D@__crt_stdio_output@@@__crt_stdio_output@@CA_ND@Z 000000014007dc00 f i libucrtd:output.obj
 0001:0007cc30       ??$is_pointer_specifier@D@?$positional_parameter_base@DV?$string_output_adapter@D@__crt_stdio_output@@@__crt_stdio_output@@CA_ND@Z 000000014007dc30 f i libucrtd:output.obj
 0001:0007cc60       ??$is_pointer_specifier@_W@?$positional_parameter_base@_WV?$stream_output_adapter@_W@__crt_stdio_output@@@__crt_stdio_output@@CA_N_W@Z 000000014007dc60 f i libucrtd:output.obj
 0001:0007cc90       ??$is_pointer_specifier@_W@?$positional_parameter_base@_WV?$string_output_adapter@_W@__crt_stdio_output@@@__crt_stdio_output@@CA_N_W@Z 000000014007dc90 f i libucrtd:output.obj
 0001:0007ccc0       ??$is_string_specifier@D@?$positional_parameter_base@DV?$stream_output_adapter@D@__crt_stdio_output@@@__crt_stdio_output@@CA_ND@Z 000000014007dcc0 f i libucrtd:output.obj
 0001:0007cd00       ??$is_string_specifier@D@?$positional_parameter_base@DV?$string_output_adapter@D@__crt_stdio_output@@@__crt_stdio_output@@CA_ND@Z 000000014007dd00 f i libucrtd:output.obj
 0001:0007cd40       ??$is_string_specifier@_W@?$positional_parameter_base@_WV?$stream_output_adapter@_W@__crt_stdio_output@@@__crt_stdio_output@@CA_N_W@Z 000000014007dd40 f i libucrtd:output.obj
 0001:0007cd80       ??$is_string_specifier@_W@?$positional_parameter_base@_WV?$string_output_adapter@_W@__crt_stdio_output@@@__crt_stdio_output@@CA_N_W@Z 000000014007dd80 f i libucrtd:output.obj
 0001:0007cdc0       ??$is_wide_character_specifier@D@__crt_stdio_output@@YA_N_KDW4length_modifier@0@@Z 000000014007ddc0 f i libucrtd:output.obj
 0001:0007ce60       ??$is_wide_character_specifier@_W@__crt_stdio_output@@YA_N_K_WW4length_modifier@0@@Z 000000014007de60 f i libucrtd:output.obj
 0001:0007cf30       ??$make_c_string_character_source@DPEAPEAD@__crt_strtox@@YA?AV?$c_string_character_source@D@0@QEBDQEAPEAD@Z 000000014007df30 f i libucrtd:output.obj
 0001:0007cf70       ??$make_c_string_character_source@_WPEAPEA_W@__crt_strtox@@YA?AV?$c_string_character_source@_W@0@QEB_WQEAPEA_W@Z 000000014007df70 f i libucrtd:output.obj
 0001:0007cfb0       ??$parse_integer@KV?$c_string_character_source@D@__crt_strtox@@$0A@@__crt_strtox@@YAKAEAV__crt_cached_ptd_host@@V?$c_string_character_source@D@0@H_N@Z 000000014007dfb0 f i libucrtd:output.obj
 0001:0007d430       ??$parse_integer@KV?$c_string_character_source@_W@__crt_strtox@@$0A@@__crt_strtox@@YAKAEAV__crt_cached_ptd_host@@V?$c_string_character_source@_W@0@H_N@Z 000000014007e430 f i libucrtd:output.obj
 0001:0007d8b0       ??$peek_va_arg@C@__crt_stdio_output@@YACPEAD@Z 000000014007e8b0 f i libucrtd:output.obj
 0001:0007d910       ??$peek_va_arg@E@__crt_stdio_output@@YAEPEAD@Z 000000014007e910 f i libucrtd:output.obj
 0001:0007d970       ??$peek_va_arg@F@__crt_stdio_output@@YAFPEAD@Z 000000014007e970 f i libucrtd:output.obj
 0001:0007d9d0       ??$peek_va_arg@G@__crt_stdio_output@@YAGPEAD@Z 000000014007e9d0 f i libucrtd:output.obj
 0001:0007da30       ??$peek_va_arg@H@__crt_stdio_output@@YAHPEAD@Z 000000014007ea30 f i libucrtd:output.obj
 0001:0007da80       ??$peek_va_arg@I@__crt_stdio_output@@YAIPEAD@Z 000000014007ea80 f i libucrtd:output.obj
 0001:0007dad0       ??$peek_va_arg@PEAD@__crt_stdio_output@@YAPEADPEAD@Z 000000014007ead0 f i libucrtd:output.obj
 0001:0007db30       ??$peek_va_arg@PEAUansi_string@?1??type_case_Z@?$output_processor@DV?$stream_output_adapter@D@__crt_stdio_output@@V?$positional_parameter_base@DV?$stream_output_adapter@D@__crt_stdio_output@@@2@@__crt_stdio_output@@AEAA_NXZ@@__crt_stdio_output@@YAPEAUansi_string@?1??type_case_Z@?$output_processor@DV?$stream_output_adapter@D@__crt_stdio_output@@V?$positional_parameter_base@DV?$stream_output_adapter@D@__crt_stdio_output@@@2@@0@AEAA_NXZ@PEAD@Z 000000014007eb30 f i libucrtd:output.obj
 0001:0007db90       ??$peek_va_arg@PEAUansi_string@?1??type_case_Z@?$output_processor@DV?$string_output_adapter@D@__crt_stdio_output@@V?$positional_parameter_base@DV?$string_output_adapter@D@__crt_stdio_output@@@2@@__crt_stdio_output@@AEAA_NXZ@@__crt_stdio_output@@YAPEAUansi_string@?1??type_case_Z@?$output_processor@DV?$string_output_adapter@D@__crt_stdio_output@@V?$positional_parameter_base@DV?$string_output_adapter@D@__crt_stdio_output@@@2@@0@AEAA_NXZ@PEAD@Z 000000014007eb90 f i libucrtd:output.obj
 0001:0007dbf0       ??$peek_va_arg@PEAUansi_string@?1??type_case_Z@?$output_processor@_WV?$stream_output_adapter@_W@__crt_stdio_output@@V?$positional_parameter_base@_WV?$stream_output_adapter@_W@__crt_stdio_output@@@2@@__crt_stdio_output@@AEAA_NXZ@@__crt_stdio_output@@YAPEAUansi_string@?1??type_case_Z@?$output_processor@_WV?$stream_output_adapter@_W@__crt_stdio_output@@V?$positional_parameter_base@_WV?$stream_output_adapter@_W@__crt_stdio_output@@@2@@0@AEAA_NXZ@PEAD@Z 000000014007ebf0 f i libucrtd:output.obj
 0001:0007dc50       ??$peek_va_arg@PEAUansi_string@?1??type_case_Z@?$output_processor@_WV?$string_output_adapter@_W@__crt_stdio_output@@V?$positional_parameter_base@_WV?$string_output_adapter@_W@__crt_stdio_output@@@2@@__crt_stdio_output@@AEAA_NXZ@@__crt_stdio_output@@YAPEAUansi_string@?1??type_case_Z@?$output_processor@_WV?$string_output_adapter@_W@__crt_stdio_output@@V?$positional_parameter_base@_WV?$string_output_adapter@_W@__crt_stdio_output@@@2@@0@AEAA_NXZ@PEAD@Z 000000014007ec50 f i libucrtd:output.obj
 0001:0007dcb0       ??$peek_va_arg@PEAX@__crt_stdio_output@@YAPEAXPEAD@Z 000000014007ecb0 f i libucrtd:output.obj
 0001:0007dd10       ??$peek_va_arg@U_CRT_DOUBLE@@@__crt_stdio_output@@YA?AU_CRT_DOUBLE@@PEAD@Z 000000014007ed10 f i libucrtd:output.obj
 0001:0007dd70       ??$peek_va_arg@_J@__crt_stdio_output@@YA_JPEAD@Z 000000014007ed70 f i libucrtd:output.obj
 0001:0007ddd0       ??$peek_va_arg@_K@__crt_stdio_output@@YA_KPEAD@Z 000000014007edd0 f i libucrtd:output.obj
 0001:0007de30       ??$peek_va_arg@_W@__crt_stdio_output@@YA_WPEAD@Z 000000014007ee30 f i libucrtd:output.obj
 0001:0007de90       ??$puttc_nolock_internal@AEBDPEAU_iobuf@@AEAV__crt_cached_ptd_host@@@?$__crt_char_traits@D@@SAHAEBD$$QEAPEAU_iobuf@@AEAV__crt_cached_ptd_host@@@Z 000000014007ee90 f i libucrtd:output.obj
 0001:0007ded0       ??$puttc_nolock_internal@AEB_WPEAU_iobuf@@AEAV__crt_cached_ptd_host@@@?$__crt_char_traits@_W@@SAGAEB_W$$QEAPEAU_iobuf@@AEAV__crt_cached_ptd_host@@@Z 000000014007eed0 f i libucrtd:output.obj
 0001:0007df10       ??$read_va_arg@C@__crt_stdio_output@@YACAEAPEAD@Z 000000014007ef10 f i libucrtd:output.obj
 0001:0007df80       ??$read_va_arg@E@__crt_stdio_output@@YAEAEAPEAD@Z 000000014007ef80 f i libucrtd:output.obj
 0001:0007dff0       ??$read_va_arg@F@__crt_stdio_output@@YAFAEAPEAD@Z 000000014007eff0 f i libucrtd:output.obj
 0001:0007e060       ??$read_va_arg@G@__crt_stdio_output@@YAGAEAPEAD@Z 000000014007f060 f i libucrtd:output.obj
 0001:0007e0d0       ??$read_va_arg@H@__crt_stdio_output@@YAHAEAPEAD@Z 000000014007f0d0 f i libucrtd:output.obj
 0001:0007e130       ??$read_va_arg@I@__crt_stdio_output@@YAIAEAPEAD@Z 000000014007f130 f i libucrtd:output.obj
 0001:0007e190       ??$read_va_arg@PEAD@__crt_stdio_output@@YAPEADAEAPEAD@Z 000000014007f190 f i libucrtd:output.obj
 0001:0007e200       ??$read_va_arg@PEAUansi_string@?1??type_case_Z@?$output_processor@DV?$stream_output_adapter@D@__crt_stdio_output@@V?$format_validation_base@DV?$stream_output_adapter@D@__crt_stdio_output@@@2@@__crt_stdio_output@@AEAA_NXZ@@__crt_stdio_output@@YAPEAUansi_string@?1??type_case_Z@?$output_processor@DV?$stream_output_adapter@D@__crt_stdio_output@@V?$format_validation_base@DV?$stream_output_adapter@D@__crt_stdio_output@@@2@@0@AEAA_NXZ@AEAPEAD@Z 000000014007f200 f i libucrtd:output.obj
 0001:0007e270       ??$read_va_arg@PEAUansi_string@?1??type_case_Z@?$output_processor@DV?$stream_output_adapter@D@__crt_stdio_output@@V?$positional_parameter_base@DV?$stream_output_adapter@D@__crt_stdio_output@@@2@@__crt_stdio_output@@AEAA_NXZ@@__crt_stdio_output@@YAPEAUansi_string@?1??type_case_Z@?$output_processor@DV?$stream_output_adapter@D@__crt_stdio_output@@V?$positional_parameter_base@DV?$stream_output_adapter@D@__crt_stdio_output@@@2@@0@AEAA_NXZ@AEAPEAD@Z 000000014007f270 f i libucrtd:output.obj
 0001:0007e2e0       ??$read_va_arg@PEAUansi_string@?1??type_case_Z@?$output_processor@DV?$stream_output_adapter@D@__crt_stdio_output@@V?$standard_base@DV?$stream_output_adapter@D@__crt_stdio_output@@@2@@__crt_stdio_output@@AEAA_NXZ@@__crt_stdio_output@@YAPEAUansi_string@?1??type_case_Z@?$output_processor@DV?$stream_output_adapter@D@__crt_stdio_output@@V?$standard_base@DV?$stream_output_adapter@D@__crt_stdio_output@@@2@@0@AEAA_NXZ@AEAPEAD@Z 000000014007f2e0 f i libucrtd:output.obj
 0001:0007e350       ??$read_va_arg@PEAUansi_string@?1??type_case_Z@?$output_processor@DV?$string_output_adapter@D@__crt_stdio_output@@V?$format_validation_base@DV?$string_output_adapter@D@__crt_stdio_output@@@2@@__crt_stdio_output@@AEAA_NXZ@@__crt_stdio_output@@YAPEAUansi_string@?1??type_case_Z@?$output_processor@DV?$string_output_adapter@D@__crt_stdio_output@@V?$format_validation_base@DV?$string_output_adapter@D@__crt_stdio_output@@@2@@0@AEAA_NXZ@AEAPEAD@Z 000000014007f350 f i libucrtd:output.obj
 0001:0007e3c0       ??$read_va_arg@PEAUansi_string@?1??type_case_Z@?$output_processor@DV?$string_output_adapter@D@__crt_stdio_output@@V?$positional_parameter_base@DV?$string_output_adapter@D@__crt_stdio_output@@@2@@__crt_stdio_output@@AEAA_NXZ@@__crt_stdio_output@@YAPEAUansi_string@?1??type_case_Z@?$output_processor@DV?$string_output_adapter@D@__crt_stdio_output@@V?$positional_parameter_base@DV?$string_output_adapter@D@__crt_stdio_output@@@2@@0@AEAA_NXZ@AEAPEAD@Z 000000014007f3c0 f i libucrtd:output.obj
 0001:0007e430       ??$read_va_arg@PEAUansi_string@?1??type_case_Z@?$output_processor@DV?$string_output_adapter@D@__crt_stdio_output@@V?$standard_base@DV?$string_output_adapter@D@__crt_stdio_output@@@2@@__crt_stdio_output@@AEAA_NXZ@@__crt_stdio_output@@YAPEAUansi_string@?1??type_case_Z@?$output_processor@DV?$string_output_adapter@D@__crt_stdio_output@@V?$standard_base@DV?$string_output_adapter@D@__crt_stdio_output@@@2@@0@AEAA_NXZ@AEAPEAD@Z 000000014007f430 f i libucrtd:output.obj
 0001:0007e4a0       ??$read_va_arg@PEAUansi_string@?1??type_case_Z@?$output_processor@_WV?$stream_output_adapter@_W@__crt_stdio_output@@V?$format_validation_base@_WV?$stream_output_adapter@_W@__crt_stdio_output@@@2@@__crt_stdio_output@@AEAA_NXZ@@__crt_stdio_output@@YAPEAUansi_string@?1??type_case_Z@?$output_processor@_WV?$stream_output_adapter@_W@__crt_stdio_output@@V?$format_validation_base@_WV?$stream_output_adapter@_W@__crt_stdio_output@@@2@@0@AEAA_NXZ@AEAPEAD@Z 000000014007f4a0 f i libucrtd:output.obj
 0001:0007e510       ??$read_va_arg@PEAUansi_string@?1??type_case_Z@?$output_processor@_WV?$stream_output_adapter@_W@__crt_stdio_output@@V?$positional_parameter_base@_WV?$stream_output_adapter@_W@__crt_stdio_output@@@2@@__crt_stdio_output@@AEAA_NXZ@@__crt_stdio_output@@YAPEAUansi_string@?1??type_case_Z@?$output_processor@_WV?$stream_output_adapter@_W@__crt_stdio_output@@V?$positional_parameter_base@_WV?$stream_output_adapter@_W@__crt_stdio_output@@@2@@0@AEAA_NXZ@AEAPEAD@Z 000000014007f510 f i libucrtd:output.obj
 0001:0007e580       ??$read_va_arg@PEAUansi_string@?1??type_case_Z@?$output_processor@_WV?$stream_output_adapter@_W@__crt_stdio_output@@V?$standard_base@_WV?$stream_output_adapter@_W@__crt_stdio_output@@@2@@__crt_stdio_output@@AEAA_NXZ@@__crt_stdio_output@@YAPEAUansi_string@?1??type_case_Z@?$output_processor@_WV?$stream_output_adapter@_W@__crt_stdio_output@@V?$standard_base@_WV?$stream_output_adapter@_W@__crt_stdio_output@@@2@@0@AEAA_NXZ@AEAPEAD@Z 000000014007f580 f i libucrtd:output.obj
 0001:0007e5f0       ??$read_va_arg@PEAUansi_string@?1??type_case_Z@?$output_processor@_WV?$string_output_adapter@_W@__crt_stdio_output@@V?$format_validation_base@_WV?$string_output_adapter@_W@__crt_stdio_output@@@2@@__crt_stdio_output@@AEAA_NXZ@@__crt_stdio_output@@YAPEAUansi_string@?1??type_case_Z@?$output_processor@_WV?$string_output_adapter@_W@__crt_stdio_output@@V?$format_validation_base@_WV?$string_output_adapter@_W@__crt_stdio_output@@@2@@0@AEAA_NXZ@AEAPEAD@Z 000000014007f5f0 f i libucrtd:output.obj
 0001:0007e660       ??$read_va_arg@PEAUansi_string@?1??type_case_Z@?$output_processor@_WV?$string_output_adapter@_W@__crt_stdio_output@@V?$positional_parameter_base@_WV?$string_output_adapter@_W@__crt_stdio_output@@@2@@__crt_stdio_output@@AEAA_NXZ@@__crt_stdio_output@@YAPEAUansi_string@?1??type_case_Z@?$output_processor@_WV?$string_output_adapter@_W@__crt_stdio_output@@V?$positional_parameter_base@_WV?$string_output_adapter@_W@__crt_stdio_output@@@2@@0@AEAA_NXZ@AEAPEAD@Z 000000014007f660 f i libucrtd:output.obj
 0001:0007e6d0       ??$read_va_arg@PEAUansi_string@?1??type_case_Z@?$output_processor@_WV?$string_output_adapter@_W@__crt_stdio_output@@V?$standard_base@_WV?$string_output_adapter@_W@__crt_stdio_output@@@2@@__crt_stdio_output@@AEAA_NXZ@@__crt_stdio_output@@YAPEAUansi_string@?1??type_case_Z@?$output_processor@_WV?$string_output_adapter@_W@__crt_stdio_output@@V?$standard_base@_WV?$string_output_adapter@_W@__crt_stdio_output@@@2@@0@AEAA_NXZ@AEAPEAD@Z 000000014007f6d0 f i libucrtd:output.obj
 0001:0007e740       ??$read_va_arg@PEAX@__crt_stdio_output@@YAPEAXAEAPEAD@Z 000000014007f740 f i libucrtd:output.obj
 0001:0007e7b0       ??$read_va_arg@U_CRT_DOUBLE@@@__crt_stdio_output@@YA?AU_CRT_DOUBLE@@AEAPEAD@Z 000000014007f7b0 f i libucrtd:output.obj
 0001:0007e820       ??$read_va_arg@_J@__crt_stdio_output@@YA_JAEAPEAD@Z 000000014007f820 f i libucrtd:output.obj
 0001:0007e890       ??$read_va_arg@_K@__crt_stdio_output@@YA_KAEAPEAD@Z 000000014007f890 f i libucrtd:output.obj
 0001:0007e900       ??$read_va_arg@_W@__crt_stdio_output@@YA_WAEAPEAD@Z 000000014007f900 f i libucrtd:output.obj
 0001:0007e970       ??$scratch_count@D@formatting_buffer@__crt_stdio_output@@QEBA_KXZ 000000014007f970 f i libucrtd:output.obj
 0001:0007e990       ??$scratch_data@D@formatting_buffer@__crt_stdio_output@@QEAAPEADXZ 000000014007f990 f i libucrtd:output.obj
 0001:0007ea00       ??$type_case_integer@$07@?$output_processor@DV?$stream_output_adapter@D@__crt_stdio_output@@V?$format_validation_base@DV?$stream_output_adapter@D@__crt_stdio_output@@@2@@__crt_stdio_output@@AEAA_N_N@Z 000000014007fa00 f i libucrtd:output.obj
 0001:0007ee80       ??$type_case_integer@$07@?$output_processor@DV?$stream_output_adapter@D@__crt_stdio_output@@V?$positional_parameter_base@DV?$stream_output_adapter@D@__crt_stdio_output@@@2@@__crt_stdio_output@@AEAA_N_N@Z 000000014007fe80 f i libucrtd:output.obj
 0001:0007f300       ??$type_case_integer@$07@?$output_processor@DV?$stream_output_adapter@D@__crt_stdio_output@@V?$standard_base@DV?$stream_output_adapter@D@__crt_stdio_output@@@2@@__crt_stdio_output@@AEAA_N_N@Z 0000000140080300 f i libucrtd:output.obj
 0001:0007f780       ??$type_case_integer@$07@?$output_processor@DV?$string_output_adapter@D@__crt_stdio_output@@V?$format_validation_base@DV?$string_output_adapter@D@__crt_stdio_output@@@2@@__crt_stdio_output@@AEAA_N_N@Z 0000000140080780 f i libucrtd:output.obj
 0001:0007fc00       ??$type_case_integer@$07@?$output_processor@DV?$string_output_adapter@D@__crt_stdio_output@@V?$positional_parameter_base@DV?$string_output_adapter@D@__crt_stdio_output@@@2@@__crt_stdio_output@@AEAA_N_N@Z 0000000140080c00 f i libucrtd:output.obj
 0001:00080080       ??$type_case_integer@$07@?$output_processor@DV?$string_output_adapter@D@__crt_stdio_output@@V?$standard_base@DV?$string_output_adapter@D@__crt_stdio_output@@@2@@__crt_stdio_output@@AEAA_N_N@Z 0000000140081080 f i libucrtd:output.obj
 0001:00080500       ??$type_case_integer@$07@?$output_processor@_WV?$stream_output_adapter@_W@__crt_stdio_output@@V?$format_validation_base@_WV?$stream_output_adapter@_W@__crt_stdio_output@@@2@@__crt_stdio_output@@AEAA_N_N@Z 0000000140081500 f i libucrtd:output.obj
 0001:00080980       ??$type_case_integer@$07@?$output_processor@_WV?$stream_output_adapter@_W@__crt_stdio_output@@V?$positional_parameter_base@_WV?$stream_output_adapter@_W@__crt_stdio_output@@@2@@__crt_stdio_output@@AEAA_N_N@Z 0000000140081980 f i libucrtd:output.obj
 0001:00080e00       ??$type_case_integer@$07@?$output_processor@_WV?$stream_output_adapter@_W@__crt_stdio_output@@V?$standard_base@_WV?$stream_output_adapter@_W@__crt_stdio_output@@@2@@__crt_stdio_output@@AEAA_N_N@Z 0000000140081e00 f i libucrtd:output.obj
 0001:00081280       ??$type_case_integer@$07@?$output_processor@_WV?$string_output_adapter@_W@__crt_stdio_output@@V?$format_validation_base@_WV?$string_output_adapter@_W@__crt_stdio_output@@@2@@__crt_stdio_output@@AEAA_N_N@Z 0000000140082280 f i libucrtd:output.obj
 0001:00081700       ??$type_case_integer@$07@?$output_processor@_WV?$string_output_adapter@_W@__crt_stdio_output@@V?$positional_parameter_base@_WV?$string_output_adapter@_W@__crt_stdio_output@@@2@@__crt_stdio_output@@AEAA_N_N@Z 0000000140082700 f i libucrtd:output.obj
 0001:00081b80       ??$type_case_integer@$07@?$output_processor@_WV?$string_output_adapter@_W@__crt_stdio_output@@V?$standard_base@_WV?$string_output_adapter@_W@__crt_stdio_output@@@2@@__crt_stdio_output@@AEAA_N_N@Z 0000000140082b80 f i libucrtd:output.obj
 0001:00082000       ??$type_case_integer@$09@?$output_processor@DV?$stream_output_adapter@D@__crt_stdio_output@@V?$format_validation_base@DV?$stream_output_adapter@D@__crt_stdio_output@@@2@@__crt_stdio_output@@AEAA_N_N@Z 0000000140083000 f i libucrtd:output.obj
 0001:00082480       ??$type_case_integer@$09@?$output_processor@DV?$stream_output_adapter@D@__crt_stdio_output@@V?$positional_parameter_base@DV?$stream_output_adapter@D@__crt_stdio_output@@@2@@__crt_stdio_output@@AEAA_N_N@Z 0000000140083480 f i libucrtd:output.obj
 0001:00082900       ??$type_case_integer@$09@?$output_processor@DV?$stream_output_adapter@D@__crt_stdio_output@@V?$standard_base@DV?$stream_output_adapter@D@__crt_stdio_output@@@2@@__crt_stdio_output@@AEAA_N_N@Z 0000000140083900 f i libucrtd:output.obj
 0001:00082d80       ??$type_case_integer@$09@?$output_processor@DV?$string_output_adapter@D@__crt_stdio_output@@V?$format_validation_base@DV?$string_output_adapter@D@__crt_stdio_output@@@2@@__crt_stdio_output@@AEAA_N_N@Z 0000000140083d80 f i libucrtd:output.obj
 0001:00083200       ??$type_case_integer@$09@?$output_processor@DV?$string_output_adapter@D@__crt_stdio_output@@V?$positional_parameter_base@DV?$string_output_adapter@D@__crt_stdio_output@@@2@@__crt_stdio_output@@AEAA_N_N@Z 0000000140084200 f i libucrtd:output.obj
 0001:00083680       ??$type_case_integer@$09@?$output_processor@DV?$string_output_adapter@D@__crt_stdio_output@@V?$standard_base@DV?$string_output_adapter@D@__crt_stdio_output@@@2@@__crt_stdio_output@@AEAA_N_N@Z 0000000140084680 f i libucrtd:output.obj
 0001:00083b00       ??$type_case_integer@$09@?$output_processor@_WV?$stream_output_adapter@_W@__crt_stdio_output@@V?$format_validation_base@_WV?$stream_output_adapter@_W@__crt_stdio_output@@@2@@__crt_stdio_output@@AEAA_N_N@Z 0000000140084b00 f i libucrtd:output.obj
 0001:00083f80       ??$type_case_integer@$09@?$output_processor@_WV?$stream_output_adapter@_W@__crt_stdio_output@@V?$positional_parameter_base@_WV?$stream_output_adapter@_W@__crt_stdio_output@@@2@@__crt_stdio_output@@AEAA_N_N@Z 0000000140084f80 f i libucrtd:output.obj
 0001:00084400       ??$type_case_integer@$09@?$output_processor@_WV?$stream_output_adapter@_W@__crt_stdio_output@@V?$standard_base@_WV?$stream_output_adapter@_W@__crt_stdio_output@@@2@@__crt_stdio_output@@AEAA_N_N@Z 0000000140085400 f i libucrtd:output.obj
 0001:00084880       ??$type_case_integer@$09@?$output_processor@_WV?$string_output_adapter@_W@__crt_stdio_output@@V?$format_validation_base@_WV?$string_output_adapter@_W@__crt_stdio_output@@@2@@__crt_stdio_output@@AEAA_N_N@Z 0000000140085880 f i libucrtd:output.obj
 0001:00084d00       ??$type_case_integer@$09@?$output_processor@_WV?$string_output_adapter@_W@__crt_stdio_output@@V?$positional_parameter_base@_WV?$string_output_adapter@_W@__crt_stdio_output@@@2@@__crt_stdio_output@@AEAA_N_N@Z 0000000140085d00 f i libucrtd:output.obj
 0001:00085180       ??$type_case_integer@$09@?$output_processor@_WV?$string_output_adapter@_W@__crt_stdio_output@@V?$standard_base@_WV?$string_output_adapter@_W@__crt_stdio_output@@@2@@__crt_stdio_output@@AEAA_N_N@Z 0000000140086180 f i libucrtd:output.obj
 0001:00085600       ??$type_case_integer@$0BA@@?$output_processor@DV?$stream_output_adapter@D@__crt_stdio_output@@V?$format_validation_base@DV?$stream_output_adapter@D@__crt_stdio_output@@@2@@__crt_stdio_output@@AEAA_N_N@Z 0000000140086600 f i libucrtd:output.obj
 0001:00085a80       ??$type_case_integer@$0BA@@?$output_processor@DV?$stream_output_adapter@D@__crt_stdio_output@@V?$positional_parameter_base@DV?$stream_output_adapter@D@__crt_stdio_output@@@2@@__crt_stdio_output@@AEAA_N_N@Z 0000000140086a80 f i libucrtd:output.obj
 0001:00085f00       ??$type_case_integer@$0BA@@?$output_processor@DV?$stream_output_adapter@D@__crt_stdio_output@@V?$standard_base@DV?$stream_output_adapter@D@__crt_stdio_output@@@2@@__crt_stdio_output@@AEAA_N_N@Z 0000000140086f00 f i libucrtd:output.obj
 0001:00086380       ??$type_case_integer@$0BA@@?$output_processor@DV?$string_output_adapter@D@__crt_stdio_output@@V?$format_validation_base@DV?$string_output_adapter@D@__crt_stdio_output@@@2@@__crt_stdio_output@@AEAA_N_N@Z 0000000140087380 f i libucrtd:output.obj
 0001:00086800       ??$type_case_integer@$0BA@@?$output_processor@DV?$string_output_adapter@D@__crt_stdio_output@@V?$positional_parameter_base@DV?$string_output_adapter@D@__crt_stdio_output@@@2@@__crt_stdio_output@@AEAA_N_N@Z 0000000140087800 f i libucrtd:output.obj
 0001:00086c80       ??$type_case_integer@$0BA@@?$output_processor@DV?$string_output_adapter@D@__crt_stdio_output@@V?$standard_base@DV?$string_output_adapter@D@__crt_stdio_output@@@2@@__crt_stdio_output@@AEAA_N_N@Z 0000000140087c80 f i libucrtd:output.obj
 0001:00087100       ??$type_case_integer@$0BA@@?$output_processor@_WV?$stream_output_adapter@_W@__crt_stdio_output@@V?$format_validation_base@_WV?$stream_output_adapter@_W@__crt_stdio_output@@@2@@__crt_stdio_output@@AEAA_N_N@Z 0000000140088100 f i libucrtd:output.obj
 0001:00087580       ??$type_case_integer@$0BA@@?$output_processor@_WV?$stream_output_adapter@_W@__crt_stdio_output@@V?$positional_parameter_base@_WV?$stream_output_adapter@_W@__crt_stdio_output@@@2@@__crt_stdio_output@@AEAA_N_N@Z 0000000140088580 f i libucrtd:output.obj
 0001:00087a00       ??$type_case_integer@$0BA@@?$output_processor@_WV?$stream_output_adapter@_W@__crt_stdio_output@@V?$standard_base@_WV?$stream_output_adapter@_W@__crt_stdio_output@@@2@@__crt_stdio_output@@AEAA_N_N@Z 0000000140088a00 f i libucrtd:output.obj
 0001:00087e80       ??$type_case_integer@$0BA@@?$output_processor@_WV?$string_output_adapter@_W@__crt_stdio_output@@V?$format_validation_base@_WV?$string_output_adapter@_W@__crt_stdio_output@@@2@@__crt_stdio_output@@AEAA_N_N@Z 0000000140088e80 f i libucrtd:output.obj
 0001:00088300       ??$type_case_integer@$0BA@@?$output_processor@_WV?$string_output_adapter@_W@__crt_stdio_output@@V?$positional_parameter_base@_WV?$string_output_adapter@_W@__crt_stdio_output@@@2@@__crt_stdio_output@@AEAA_N_N@Z 0000000140089300 f i libucrtd:output.obj
 0001:00088780       ??$type_case_integer@$0BA@@?$output_processor@_WV?$string_output_adapter@_W@__crt_stdio_output@@V?$standard_base@_WV?$string_output_adapter@_W@__crt_stdio_output@@@2@@__crt_stdio_output@@AEAA_N_N@Z 0000000140089780 f i libucrtd:output.obj
 0001:00088c00       ??$type_case_integer_parse_into_buffer@I$07@?$output_processor@DV?$stream_output_adapter@D@__crt_stdio_output@@V?$format_validation_base@DV?$stream_output_adapter@D@__crt_stdio_output@@@2@@__crt_stdio_output@@AEAAXI_N@Z 0000000140089c00 f i libucrtd:output.obj
 0001:00088d30       ??$type_case_integer_parse_into_buffer@I$07@?$output_processor@DV?$stream_output_adapter@D@__crt_stdio_output@@V?$positional_parameter_base@DV?$stream_output_adapter@D@__crt_stdio_output@@@2@@__crt_stdio_output@@AEAAXI_N@Z 0000000140089d30 f i libucrtd:output.obj
 0001:00088e60       ??$type_case_integer_parse_into_buffer@I$07@?$output_processor@DV?$stream_output_adapter@D@__crt_stdio_output@@V?$standard_base@DV?$stream_output_adapter@D@__crt_stdio_output@@@2@@__crt_stdio_output@@AEAAXI_N@Z 0000000140089e60 f i libucrtd:output.obj
 0001:00088f90       ??$type_case_integer_parse_into_buffer@I$07@?$output_processor@DV?$string_output_adapter@D@__crt_stdio_output@@V?$format_validation_base@DV?$string_output_adapter@D@__crt_stdio_output@@@2@@__crt_stdio_output@@AEAAXI_N@Z 0000000140089f90 f i libucrtd:output.obj
 0001:000890c0       ??$type_case_integer_parse_into_buffer@I$07@?$output_processor@DV?$string_output_adapter@D@__crt_stdio_output@@V?$positional_parameter_base@DV?$string_output_adapter@D@__crt_stdio_output@@@2@@__crt_stdio_output@@AEAAXI_N@Z 000000014008a0c0 f i libucrtd:output.obj
 0001:000891f0       ??$type_case_integer_parse_into_buffer@I$07@?$output_processor@DV?$string_output_adapter@D@__crt_stdio_output@@V?$standard_base@DV?$string_output_adapter@D@__crt_stdio_output@@@2@@__crt_stdio_output@@AEAAXI_N@Z 000000014008a1f0 f i libucrtd:output.obj
 0001:00089320       ??$type_case_integer_parse_into_buffer@I$07@?$output_processor@_WV?$stream_output_adapter@_W@__crt_stdio_output@@V?$format_validation_base@_WV?$stream_output_adapter@_W@__crt_stdio_output@@@2@@__crt_stdio_output@@AEAAXI_N@Z 000000014008a320 f i libucrtd:output.obj
 0001:00089460       ??$type_case_integer_parse_into_buffer@I$07@?$output_processor@_WV?$stream_output_adapter@_W@__crt_stdio_output@@V?$positional_parameter_base@_WV?$stream_output_adapter@_W@__crt_stdio_output@@@2@@__crt_stdio_output@@AEAAXI_N@Z 000000014008a460 f i libucrtd:output.obj
 0001:000895a0       ??$type_case_integer_parse_into_buffer@I$07@?$output_processor@_WV?$stream_output_adapter@_W@__crt_stdio_output@@V?$standard_base@_WV?$stream_output_adapter@_W@__crt_stdio_output@@@2@@__crt_stdio_output@@AEAAXI_N@Z 000000014008a5a0 f i libucrtd:output.obj
 0001:000896e0       ??$type_case_integer_parse_into_buffer@I$07@?$output_processor@_WV?$string_output_adapter@_W@__crt_stdio_output@@V?$format_validation_base@_WV?$string_output_adapter@_W@__crt_stdio_output@@@2@@__crt_stdio_output@@AEAAXI_N@Z 000000014008a6e0 f i libucrtd:output.obj
 0001:00089820       ??$type_case_integer_parse_into_buffer@I$07@?$output_processor@_WV?$string_output_adapter@_W@__crt_stdio_output@@V?$positional_parameter_base@_WV?$string_output_adapter@_W@__crt_stdio_output@@@2@@__crt_stdio_output@@AEAAXI_N@Z 000000014008a820 f i libucrtd:output.obj
 0001:00089960       ??$type_case_integer_parse_into_buffer@I$07@?$output_processor@_WV?$string_output_adapter@_W@__crt_stdio_output@@V?$standard_base@_WV?$string_output_adapter@_W@__crt_stdio_output@@@2@@__crt_stdio_output@@AEAAXI_N@Z 000000014008a960 f i libucrtd:output.obj
 0001:00089aa0       ??$type_case_integer_parse_into_buffer@I$09@?$output_processor@DV?$stream_output_adapter@D@__crt_stdio_output@@V?$format_validation_base@DV?$stream_output_adapter@D@__crt_stdio_output@@@2@@__crt_stdio_output@@AEAAXI_N@Z 000000014008aaa0 f i libucrtd:output.obj
 0001:00089bd0       ??$type_case_integer_parse_into_buffer@I$09@?$output_processor@DV?$stream_output_adapter@D@__crt_stdio_output@@V?$positional_parameter_base@DV?$stream_output_adapter@D@__crt_stdio_output@@@2@@__crt_stdio_output@@AEAAXI_N@Z 000000014008abd0 f i libucrtd:output.obj
 0001:00089d00       ??$type_case_integer_parse_into_buffer@I$09@?$output_processor@DV?$stream_output_adapter@D@__crt_stdio_output@@V?$standard_base@DV?$stream_output_adapter@D@__crt_stdio_output@@@2@@__crt_stdio_output@@AEAAXI_N@Z 000000014008ad00 f i libucrtd:output.obj
 0001:00089e30       ??$type_case_integer_parse_into_buffer@I$09@?$output_processor@DV?$string_output_adapter@D@__crt_stdio_output@@V?$format_validation_base@DV?$string_output_adapter@D@__crt_stdio_output@@@2@@__crt_stdio_output@@AEAAXI_N@Z 000000014008ae30 f i libucrtd:output.obj
 0001:00089f60       ??$type_case_integer_parse_into_buffer@I$09@?$output_processor@DV?$string_output_adapter@D@__crt_stdio_output@@V?$positional_parameter_base@DV?$string_output_adapter@D@__crt_stdio_output@@@2@@__crt_stdio_output@@AEAAXI_N@Z 000000014008af60 f i libucrtd:output.obj
 0001:0008a090       ??$type_case_integer_parse_into_buffer@I$09@?$output_processor@DV?$string_output_adapter@D@__crt_stdio_output@@V?$standard_base@DV?$string_output_adapter@D@__crt_stdio_output@@@2@@__crt_stdio_output@@AEAAXI_N@Z 000000014008b090 f i libucrtd:output.obj
 0001:0008a1c0       ??$type_case_integer_parse_into_buffer@I$09@?$output_processor@_WV?$stream_output_adapter@_W@__crt_stdio_output@@V?$format_validation_base@_WV?$stream_output_adapter@_W@__crt_stdio_output@@@2@@__crt_stdio_output@@AEAAXI_N@Z 000000014008b1c0 f i libucrtd:output.obj
 0001:0008a300       ??$type_case_integer_parse_into_buffer@I$09@?$output_processor@_WV?$stream_output_adapter@_W@__crt_stdio_output@@V?$positional_parameter_base@_WV?$stream_output_adapter@_W@__crt_stdio_output@@@2@@__crt_stdio_output@@AEAAXI_N@Z 000000014008b300 f i libucrtd:output.obj
 0001:0008a440       ??$type_case_integer_parse_into_buffer@I$09@?$output_processor@_WV?$stream_output_adapter@_W@__crt_stdio_output@@V?$standard_base@_WV?$stream_output_adapter@_W@__crt_stdio_output@@@2@@__crt_stdio_output@@AEAAXI_N@Z 000000014008b440 f i libucrtd:output.obj
 0001:0008a580       ??$type_case_integer_parse_into_buffer@I$09@?$output_processor@_WV?$string_output_adapter@_W@__crt_stdio_output@@V?$format_validation_base@_WV?$string_output_adapter@_W@__crt_stdio_output@@@2@@__crt_stdio_output@@AEAAXI_N@Z 000000014008b580 f i libucrtd:output.obj
 0001:0008a6c0       ??$type_case_integer_parse_into_buffer@I$09@?$output_processor@_WV?$string_output_adapter@_W@__crt_stdio_output@@V?$positional_parameter_base@_WV?$string_output_adapter@_W@__crt_stdio_output@@@2@@__crt_stdio_output@@AEAAXI_N@Z 000000014008b6c0 f i libucrtd:output.obj
 0001:0008a800       ??$type_case_integer_parse_into_buffer@I$09@?$output_processor@_WV?$string_output_adapter@_W@__crt_stdio_output@@V?$standard_base@_WV?$string_output_adapter@_W@__crt_stdio_output@@@2@@__crt_stdio_output@@AEAAXI_N@Z 000000014008b800 f i libucrtd:output.obj
 0001:0008a940       ??$type_case_integer_parse_into_buffer@I$0BA@@?$output_processor@DV?$stream_output_adapter@D@__crt_stdio_output@@V?$format_validation_base@DV?$stream_output_adapter@D@__crt_stdio_output@@@2@@__crt_stdio_output@@AEAAXI_N@Z 000000014008b940 f i libucrtd:output.obj
 0001:0008aa70       ??$type_case_integer_parse_into_buffer@I$0BA@@?$output_processor@DV?$stream_output_adapter@D@__crt_stdio_output@@V?$positional_parameter_base@DV?$stream_output_adapter@D@__crt_stdio_output@@@2@@__crt_stdio_output@@AEAAXI_N@Z 000000014008ba70 f i libucrtd:output.obj
 0001:0008aba0       ??$type_case_integer_parse_into_buffer@I$0BA@@?$output_processor@DV?$stream_output_adapter@D@__crt_stdio_output@@V?$standard_base@DV?$stream_output_adapter@D@__crt_stdio_output@@@2@@__crt_stdio_output@@AEAAXI_N@Z 000000014008bba0 f i libucrtd:output.obj
 0001:0008acd0       ??$type_case_integer_parse_into_buffer@I$0BA@@?$output_processor@DV?$string_output_adapter@D@__crt_stdio_output@@V?$format_validation_base@DV?$string_output_adapter@D@__crt_stdio_output@@@2@@__crt_stdio_output@@AEAAXI_N@Z 000000014008bcd0 f i libucrtd:output.obj
 0001:0008ae00       ??$type_case_integer_parse_into_buffer@I$0BA@@?$output_processor@DV?$string_output_adapter@D@__crt_stdio_output@@V?$positional_parameter_base@DV?$string_output_adapter@D@__crt_stdio_output@@@2@@__crt_stdio_output@@AEAAXI_N@Z 000000014008be00 f i libucrtd:output.obj
 0001:0008af30       ??$type_case_integer_parse_into_buffer@I$0BA@@?$output_processor@DV?$string_output_adapter@D@__crt_stdio_output@@V?$standard_base@DV?$string_output_adapter@D@__crt_stdio_output@@@2@@__crt_stdio_output@@AEAAXI_N@Z 000000014008bf30 f i libucrtd:output.obj
 0001:0008b060       ??$type_case_integer_parse_into_buffer@I$0BA@@?$output_processor@_WV?$stream_output_adapter@_W@__crt_stdio_output@@V?$format_validation_base@_WV?$stream_output_adapter@_W@__crt_stdio_output@@@2@@__crt_stdio_output@@AEAAXI_N@Z 000000014008c060 f i libucrtd:output.obj
 0001:0008b1a0       ??$type_case_integer_parse_into_buffer@I$0BA@@?$output_processor@_WV?$stream_output_adapter@_W@__crt_stdio_output@@V?$positional_parameter_base@_WV?$stream_output_adapter@_W@__crt_stdio_output@@@2@@__crt_stdio_output@@AEAAXI_N@Z 000000014008c1a0 f i libucrtd:output.obj
 0001:0008b2e0       ??$type_case_integer_parse_into_buffer@I$0BA@@?$output_processor@_WV?$stream_output_adapter@_W@__crt_stdio_output@@V?$standard_base@_WV?$stream_output_adapter@_W@__crt_stdio_output@@@2@@__crt_stdio_output@@AEAAXI_N@Z 000000014008c2e0 f i libucrtd:output.obj
 0001:0008b420       ??$type_case_integer_parse_into_buffer@I$0BA@@?$output_processor@_WV?$string_output_adapter@_W@__crt_stdio_output@@V?$format_validation_base@_WV?$string_output_adapter@_W@__crt_stdio_output@@@2@@__crt_stdio_output@@AEAAXI_N@Z 000000014008c420 f i libucrtd:output.obj
 0001:0008b560       ??$type_case_integer_parse_into_buffer@I$0BA@@?$output_processor@_WV?$string_output_adapter@_W@__crt_stdio_output@@V?$positional_parameter_base@_WV?$string_output_adapter@_W@__crt_stdio_output@@@2@@__crt_stdio_output@@AEAAXI_N@Z 000000014008c560 f i libucrtd:output.obj
 0001:0008b6a0       ??$type_case_integer_parse_into_buffer@I$0BA@@?$output_processor@_WV?$string_output_adapter@_W@__crt_stdio_output@@V?$standard_base@_WV?$string_output_adapter@_W@__crt_stdio_output@@@2@@__crt_stdio_output@@AEAAXI_N@Z 000000014008c6a0 f i libucrtd:output.obj
 0001:0008b7e0       ??$type_case_integer_parse_into_buffer@_K$07@?$output_processor@DV?$stream_output_adapter@D@__crt_stdio_output@@V?$format_validation_base@DV?$stream_output_adapter@D@__crt_stdio_output@@@2@@__crt_stdio_output@@AEAAX_K_N@Z 000000014008c7e0 f i libucrtd:output.obj
 0001:0008b920       ??$type_case_integer_parse_into_buffer@_K$07@?$output_processor@DV?$stream_output_adapter@D@__crt_stdio_output@@V?$positional_parameter_base@DV?$stream_output_adapter@D@__crt_stdio_output@@@2@@__crt_stdio_output@@AEAAX_K_N@Z 000000014008c920 f i libucrtd:output.obj
 0001:0008ba60       ??$type_case_integer_parse_into_buffer@_K$07@?$output_processor@DV?$stream_output_adapter@D@__crt_stdio_output@@V?$standard_base@DV?$stream_output_adapter@D@__crt_stdio_output@@@2@@__crt_stdio_output@@AEAAX_K_N@Z 000000014008ca60 f i libucrtd:output.obj
 0001:0008bba0       ??$type_case_integer_parse_into_buffer@_K$07@?$output_processor@DV?$string_output_adapter@D@__crt_stdio_output@@V?$format_validation_base@DV?$string_output_adapter@D@__crt_stdio_output@@@2@@__crt_stdio_output@@AEAAX_K_N@Z 000000014008cba0 f i libucrtd:output.obj
 0001:0008bce0       ??$type_case_integer_parse_into_buffer@_K$07@?$output_processor@DV?$string_output_adapter@D@__crt_stdio_output@@V?$positional_parameter_base@DV?$string_output_adapter@D@__crt_stdio_output@@@2@@__crt_stdio_output@@AEAAX_K_N@Z 000000014008cce0 f i libucrtd:output.obj
 0001:0008be20       ??$type_case_integer_parse_into_buffer@_K$07@?$output_processor@DV?$string_output_adapter@D@__crt_stdio_output@@V?$standard_base@DV?$string_output_adapter@D@__crt_stdio_output@@@2@@__crt_stdio_output@@AEAAX_K_N@Z 000000014008ce20 f i libucrtd:output.obj
 0001:0008bf60       ??$type_case_integer_parse_into_buffer@_K$07@?$output_processor@_WV?$stream_output_adapter@_W@__crt_stdio_output@@V?$format_validation_base@_WV?$stream_output_adapter@_W@__crt_stdio_output@@@2@@__crt_stdio_output@@AEAAX_K_N@Z 000000014008cf60 f i libucrtd:output.obj
 0001:0008c0a0       ??$type_case_integer_parse_into_buffer@_K$07@?$output_processor@_WV?$stream_output_adapter@_W@__crt_stdio_output@@V?$positional_parameter_base@_WV?$stream_output_adapter@_W@__crt_stdio_output@@@2@@__crt_stdio_output@@AEAAX_K_N@Z 000000014008d0a0 f i libucrtd:output.obj
 0001:0008c1e0       ??$type_case_integer_parse_into_buffer@_K$07@?$output_processor@_WV?$stream_output_adapter@_W@__crt_stdio_output@@V?$standard_base@_WV?$stream_output_adapter@_W@__crt_stdio_output@@@2@@__crt_stdio_output@@AEAAX_K_N@Z 000000014008d1e0 f i libucrtd:output.obj
 0001:0008c320       ??$type_case_integer_parse_into_buffer@_K$07@?$output_processor@_WV?$string_output_adapter@_W@__crt_stdio_output@@V?$format_validation_base@_WV?$string_output_adapter@_W@__crt_stdio_output@@@2@@__crt_stdio_output@@AEAAX_K_N@Z 000000014008d320 f i libucrtd:output.obj
 0001:0008c460       ??$type_case_integer_parse_into_buffer@_K$07@?$output_processor@_WV?$string_output_adapter@_W@__crt_stdio_output@@V?$positional_parameter_base@_WV?$string_output_adapter@_W@__crt_stdio_output@@@2@@__crt_stdio_output@@AEAAX_K_N@Z 000000014008d460 f i libucrtd:output.obj
 0001:0008c5a0       ??$type_case_integer_parse_into_buffer@_K$07@?$output_processor@_WV?$string_output_adapter@_W@__crt_stdio_output@@V?$standard_base@_WV?$string_output_adapter@_W@__crt_stdio_output@@@2@@__crt_stdio_output@@AEAAX_K_N@Z 000000014008d5a0 f i libucrtd:output.obj
 0001:0008c6e0       ??$type_case_integer_parse_into_buffer@_K$09@?$output_processor@DV?$stream_output_adapter@D@__crt_stdio_output@@V?$format_validation_base@DV?$stream_output_adapter@D@__crt_stdio_output@@@2@@__crt_stdio_output@@AEAAX_K_N@Z 000000014008d6e0 f i libucrtd:output.obj
 0001:0008c820       ??$type_case_integer_parse_into_buffer@_K$09@?$output_processor@DV?$stream_output_adapter@D@__crt_stdio_output@@V?$positional_parameter_base@DV?$stream_output_adapter@D@__crt_stdio_output@@@2@@__crt_stdio_output@@AEAAX_K_N@Z 000000014008d820 f i libucrtd:output.obj
 0001:0008c960       ??$type_case_integer_parse_into_buffer@_K$09@?$output_processor@DV?$stream_output_adapter@D@__crt_stdio_output@@V?$standard_base@DV?$stream_output_adapter@D@__crt_stdio_output@@@2@@__crt_stdio_output@@AEAAX_K_N@Z 000000014008d960 f i libucrtd:output.obj
 0001:0008caa0       ??$type_case_integer_parse_into_buffer@_K$09@?$output_processor@DV?$string_output_adapter@D@__crt_stdio_output@@V?$format_validation_base@DV?$string_output_adapter@D@__crt_stdio_output@@@2@@__crt_stdio_output@@AEAAX_K_N@Z 000000014008daa0 f i libucrtd:output.obj
 0001:0008cbe0       ??$type_case_integer_parse_into_buffer@_K$09@?$output_processor@DV?$string_output_adapter@D@__crt_stdio_output@@V?$positional_parameter_base@DV?$string_output_adapter@D@__crt_stdio_output@@@2@@__crt_stdio_output@@AEAAX_K_N@Z 000000014008dbe0 f i libucrtd:output.obj
 0001:0008cd20       ??$type_case_integer_parse_into_buffer@_K$09@?$output_processor@DV?$string_output_adapter@D@__crt_stdio_output@@V?$standard_base@DV?$string_output_adapter@D@__crt_stdio_output@@@2@@__crt_stdio_output@@AEAAX_K_N@Z 000000014008dd20 f i libucrtd:output.obj
 0001:0008ce60       ??$type_case_integer_parse_into_buffer@_K$09@?$output_processor@_WV?$stream_output_adapter@_W@__crt_stdio_output@@V?$format_validation_base@_WV?$stream_output_adapter@_W@__crt_stdio_output@@@2@@__crt_stdio_output@@AEAAX_K_N@Z 000000014008de60 f i libucrtd:output.obj
 0001:0008cfa0       ??$type_case_integer_parse_into_buffer@_K$09@?$output_processor@_WV?$stream_output_adapter@_W@__crt_stdio_output@@V?$positional_parameter_base@_WV?$stream_output_adapter@_W@__crt_stdio_output@@@2@@__crt_stdio_output@@AEAAX_K_N@Z 000000014008dfa0 f i libucrtd:output.obj
 0001:0008d0e0       ??$type_case_integer_parse_into_buffer@_K$09@?$output_processor@_WV?$stream_output_adapter@_W@__crt_stdio_output@@V?$standard_base@_WV?$stream_output_adapter@_W@__crt_stdio_output@@@2@@__crt_stdio_output@@AEAAX_K_N@Z 000000014008e0e0 f i libucrtd:output.obj
 0001:0008d220       ??$type_case_integer_parse_into_buffer@_K$09@?$output_processor@_WV?$string_output_adapter@_W@__crt_stdio_output@@V?$format_validation_base@_WV?$string_output_adapter@_W@__crt_stdio_output@@@2@@__crt_stdio_output@@AEAAX_K_N@Z 000000014008e220 f i libucrtd:output.obj
 0001:0008d360       ??$type_case_integer_parse_into_buffer@_K$09@?$output_processor@_WV?$string_output_adapter@_W@__crt_stdio_output@@V?$positional_parameter_base@_WV?$string_output_adapter@_W@__crt_stdio_output@@@2@@__crt_stdio_output@@AEAAX_K_N@Z 000000014008e360 f i libucrtd:output.obj
 0001:0008d4a0       ??$type_case_integer_parse_into_buffer@_K$09@?$output_processor@_WV?$string_output_adapter@_W@__crt_stdio_output@@V?$standard_base@_WV?$string_output_adapter@_W@__crt_stdio_output@@@2@@__crt_stdio_output@@AEAAX_K_N@Z 000000014008e4a0 f i libucrtd:output.obj
 0001:0008d5e0       ??$type_case_integer_parse_into_buffer@_K$0BA@@?$output_processor@DV?$stream_output_adapter@D@__crt_stdio_output@@V?$format_validation_base@DV?$stream_output_adapter@D@__crt_stdio_output@@@2@@__crt_stdio_output@@AEAAX_K_N@Z 000000014008e5e0 f i libucrtd:output.obj
 0001:0008d720       ??$type_case_integer_parse_into_buffer@_K$0BA@@?$output_processor@DV?$stream_output_adapter@D@__crt_stdio_output@@V?$positional_parameter_base@DV?$stream_output_adapter@D@__crt_stdio_output@@@2@@__crt_stdio_output@@AEAAX_K_N@Z 000000014008e720 f i libucrtd:output.obj
 0001:0008d860       ??$type_case_integer_parse_into_buffer@_K$0BA@@?$output_processor@DV?$stream_output_adapter@D@__crt_stdio_output@@V?$standard_base@DV?$stream_output_adapter@D@__crt_stdio_output@@@2@@__crt_stdio_output@@AEAAX_K_N@Z 000000014008e860 f i libucrtd:output.obj
 0001:0008d9a0       ??$type_case_integer_parse_into_buffer@_K$0BA@@?$output_processor@DV?$string_output_adapter@D@__crt_stdio_output@@V?$format_validation_base@DV?$string_output_adapter@D@__crt_stdio_output@@@2@@__crt_stdio_output@@AEAAX_K_N@Z 000000014008e9a0 f i libucrtd:output.obj
 0001:0008dae0       ??$type_case_integer_parse_into_buffer@_K$0BA@@?$output_processor@DV?$string_output_adapter@D@__crt_stdio_output@@V?$positional_parameter_base@DV?$string_output_adapter@D@__crt_stdio_output@@@2@@__crt_stdio_output@@AEAAX_K_N@Z 000000014008eae0 f i libucrtd:output.obj
 0001:0008dc20       ??$type_case_integer_parse_into_buffer@_K$0BA@@?$output_processor@DV?$string_output_adapter@D@__crt_stdio_output@@V?$standard_base@DV?$string_output_adapter@D@__crt_stdio_output@@@2@@__crt_stdio_output@@AEAAX_K_N@Z 000000014008ec20 f i libucrtd:output.obj
 0001:0008dd60       ??$type_case_integer_parse_into_buffer@_K$0BA@@?$output_processor@_WV?$stream_output_adapter@_W@__crt_stdio_output@@V?$format_validation_base@_WV?$stream_output_adapter@_W@__crt_stdio_output@@@2@@__crt_stdio_output@@AEAAX_K_N@Z 000000014008ed60 f i libucrtd:output.obj
 0001:0008dea0       ??$type_case_integer_parse_into_buffer@_K$0BA@@?$output_processor@_WV?$stream_output_adapter@_W@__crt_stdio_output@@V?$positional_parameter_base@_WV?$stream_output_adapter@_W@__crt_stdio_output@@@2@@__crt_stdio_output@@AEAAX_K_N@Z 000000014008eea0 f i libucrtd:output.obj
 0001:0008dfe0       ??$type_case_integer_parse_into_buffer@_K$0BA@@?$output_processor@_WV?$stream_output_adapter@_W@__crt_stdio_output@@V?$standard_base@_WV?$stream_output_adapter@_W@__crt_stdio_output@@@2@@__crt_stdio_output@@AEAAX_K_N@Z 000000014008efe0 f i libucrtd:output.obj
 0001:0008e120       ??$type_case_integer_parse_into_buffer@_K$0BA@@?$output_processor@_WV?$string_output_adapter@_W@__crt_stdio_output@@V?$format_validation_base@_WV?$string_output_adapter@_W@__crt_stdio_output@@@2@@__crt_stdio_output@@AEAAX_K_N@Z 000000014008f120 f i libucrtd:output.obj
 0001:0008e260       ??$type_case_integer_parse_into_buffer@_K$0BA@@?$output_processor@_WV?$string_output_adapter@_W@__crt_stdio_output@@V?$positional_parameter_base@_WV?$string_output_adapter@_W@__crt_stdio_output@@@2@@__crt_stdio_output@@AEAAX_K_N@Z 000000014008f260 f i libucrtd:output.obj
 0001:0008e3a0       ??$type_case_integer_parse_into_buffer@_K$0BA@@?$output_processor@_WV?$string_output_adapter@_W@__crt_stdio_output@@V?$standard_base@_WV?$string_output_adapter@_W@__crt_stdio_output@@@2@@__crt_stdio_output@@AEAAX_K_N@Z 000000014008f3a0 f i libucrtd:output.obj
 0001:0008e4e0       ??$write_multiple_characters@V?$stream_output_adapter@D@__crt_stdio_output@@D@__crt_stdio_output@@YAXAEBV?$stream_output_adapter@D@0@DHQEAHAEAV__crt_cached_ptd_host@@@Z 000000014008f4e0 f i libucrtd:output.obj
 0001:0008e550       ??$write_multiple_characters@V?$stream_output_adapter@_W@__crt_stdio_output@@D@__crt_stdio_output@@YAXAEBV?$stream_output_adapter@_W@0@DHQEAHAEAV__crt_cached_ptd_host@@@Z 000000014008f550 f i libucrtd:output.obj
 0001:0008e5c0       ??$write_multiple_characters@V?$string_output_adapter@D@__crt_stdio_output@@D@__crt_stdio_output@@YAXAEBV?$string_output_adapter@D@0@DHQEAHAEAV__crt_cached_ptd_host@@@Z 000000014008f5c0 f i libucrtd:output.obj
 0001:0008e630       ??$write_multiple_characters@V?$string_output_adapter@_W@__crt_stdio_output@@D@__crt_stdio_output@@YAXAEBV?$string_output_adapter@_W@0@DHQEAHAEAV__crt_cached_ptd_host@@@Z 000000014008f630 f i libucrtd:output.obj
 0001:0008ea60       ??0?$c_string_character_source@D@__crt_strtox@@QEAA@QEBDQEAPEBD@Z 000000014008fa60 f i libucrtd:output.obj
 0001:0008eab0       ??0?$c_string_character_source@_W@__crt_strtox@@QEAA@QEB_WQEAPEB_W@Z 000000014008fab0 f i libucrtd:output.obj
 0001:0008eb00       ??0?$cached@H@__crt_cached_ptd_host@@QEAA@XZ 000000014008fb00 f i libucrtd:output.obj
 0001:0008eb20       ??0?$cached@K@__crt_cached_ptd_host@@QEAA@XZ 000000014008fb20 f i libucrtd:output.obj
 0001:0008eb40       ??0?$common_data@D@__crt_stdio_output@@IEAA@AEAV__crt_cached_ptd_host@@@Z 000000014008fb40 f i libucrtd:output.obj
 0001:0008ec00       ??0?$common_data@_W@__crt_stdio_output@@IEAA@AEAV__crt_cached_ptd_host@@@Z 000000014008fc00 f i libucrtd:output.obj
 0001:0008ecc0       ??0?$output_adapter_data@DV?$stream_output_adapter@D@__crt_stdio_output@@@__crt_stdio_output@@IEAA@AEBV?$stream_output_adapter@D@1@_KQEBDAEAV__crt_cached_ptd_host@@QEAD@Z 000000014008fcc0 f i libucrtd:output.obj
 0001:0008ed40       ??0?$output_adapter_data@DV?$string_output_adapter@D@__crt_stdio_output@@@__crt_stdio_output@@IEAA@AEBV?$string_output_adapter@D@1@_KQEBDAEAV__crt_cached_ptd_host@@QEAD@Z 000000014008fd40 f i libucrtd:output.obj
 0001:0008edc0       ??0?$output_adapter_data@_WV?$stream_output_adapter@_W@__crt_stdio_output@@@__crt_stdio_output@@IEAA@AEBV?$stream_output_adapter@_W@1@_KQEB_WAEAV__crt_cached_ptd_host@@QEAD@Z 000000014008fdc0 f i libucrtd:output.obj
 0001:0008ee40       ??0?$output_adapter_data@_WV?$string_output_adapter@_W@__crt_stdio_output@@@__crt_stdio_output@@IEAA@AEBV?$string_output_adapter@_W@1@_KQEB_WAEAV__crt_cached_ptd_host@@QEAD@Z 000000014008fe40 f i libucrtd:output.obj
 0001:0008eec0       ??0?$output_processor@DV?$stream_output_adapter@D@__crt_stdio_output@@V?$format_validation_base@DV?$stream_output_adapter@D@__crt_stdio_output@@@2@@__crt_stdio_output@@QEAA@AEBV?$stream_output_adapter@D@1@_KQEBDAEAV__crt_cached_ptd_host@@QEAD@Z 000000014008fec0 f i libucrtd:output.obj
 0001:0008ef10       ??0?$output_processor@DV?$stream_output_adapter@D@__crt_stdio_output@@V?$positional_parameter_base@DV?$stream_output_adapter@D@__crt_stdio_output@@@2@@__crt_stdio_output@@QEAA@AEBV?$stream_output_adapter@D@1@_KQEBDAEAV__crt_cached_ptd_host@@QEAD@Z 000000014008ff10 f i libucrtd:output.obj
 0001:0008ef60       ??0?$output_processor@DV?$stream_output_adapter@D@__crt_stdio_output@@V?$standard_base@DV?$stream_output_adapter@D@__crt_stdio_output@@@2@@__crt_stdio_output@@QEAA@AEBV?$stream_output_adapter@D@1@_KQEBDAEAV__crt_cached_ptd_host@@QEAD@Z 000000014008ff60 f i libucrtd:output.obj
 0001:0008efb0       ??0?$output_processor@DV?$string_output_adapter@D@__crt_stdio_output@@V?$format_validation_base@DV?$string_output_adapter@D@__crt_stdio_output@@@2@@__crt_stdio_output@@QEAA@AEBV?$string_output_adapter@D@1@_KQEBDAEAV__crt_cached_ptd_host@@QEAD@Z 000000014008ffb0 f i libucrtd:output.obj
 0001:0008f000       ??0?$output_processor@DV?$string_output_adapter@D@__crt_stdio_output@@V?$positional_parameter_base@DV?$string_output_adapter@D@__crt_stdio_output@@@2@@__crt_stdio_output@@QEAA@AEBV?$string_output_adapter@D@1@_KQEBDAEAV__crt_cached_ptd_host@@QEAD@Z 0000000140090000 f i libucrtd:output.obj
 0001:0008f050       ??0?$output_processor@DV?$string_output_adapter@D@__crt_stdio_output@@V?$standard_base@DV?$string_output_adapter@D@__crt_stdio_output@@@2@@__crt_stdio_output@@QEAA@AEBV?$string_output_adapter@D@1@_KQEBDAEAV__crt_cached_ptd_host@@QEAD@Z 0000000140090050 f i libucrtd:output.obj
 0001:0008f0a0       ??0?$output_processor@_WV?$stream_output_adapter@_W@__crt_stdio_output@@V?$format_validation_base@_WV?$stream_output_adapter@_W@__crt_stdio_output@@@2@@__crt_stdio_output@@QEAA@AEBV?$stream_output_adapter@_W@1@_KQEB_WAEAV__crt_cached_ptd_host@@QEAD@Z 00000001400900a0 f i libucrtd:output.obj
 0001:0008f0f0       ??0?$output_processor@_WV?$stream_output_adapter@_W@__crt_stdio_output@@V?$positional_parameter_base@_WV?$stream_output_adapter@_W@__crt_stdio_output@@@2@@__crt_stdio_output@@QEAA@AEBV?$stream_output_adapter@_W@1@_KQEB_WAEAV__crt_cached_ptd_host@@QEAD@Z 00000001400900f0 f i libucrtd:output.obj
 0001:0008f140       ??0?$output_processor@_WV?$stream_output_adapter@_W@__crt_stdio_output@@V?$standard_base@_WV?$stream_output_adapter@_W@__crt_stdio_output@@@2@@__crt_stdio_output@@QEAA@AEBV?$stream_output_adapter@_W@1@_KQEB_WAEAV__crt_cached_ptd_host@@QEAD@Z 0000000140090140 f i libucrtd:output.obj
 0001:0008f190       ??0?$output_processor@_WV?$string_output_adapter@_W@__crt_stdio_output@@V?$format_validation_base@_WV?$string_output_adapter@_W@__crt_stdio_output@@@2@@__crt_stdio_output@@QEAA@AEBV?$string_output_adapter@_W@1@_KQEB_WAEAV__crt_cached_ptd_host@@QEAD@Z 0000000140090190 f i libucrtd:output.obj
 0001:0008f1e0       ??0?$output_processor@_WV?$string_output_adapter@_W@__crt_stdio_output@@V?$positional_parameter_base@_WV?$string_output_adapter@_W@__crt_stdio_output@@@2@@__crt_stdio_output@@QEAA@AEBV?$string_output_adapter@_W@1@_KQEB_WAEAV__crt_cached_ptd_host@@QEAD@Z 00000001400901e0 f i libucrtd:output.obj
 0001:0008f230       ??0?$output_processor@_WV?$string_output_adapter@_W@__crt_stdio_output@@V?$standard_base@_WV?$string_output_adapter@_W@__crt_stdio_output@@@2@@__crt_stdio_output@@QEAA@AEBV?$string_output_adapter@_W@1@_KQEB_WAEAV__crt_cached_ptd_host@@QEAD@Z 0000000140090230 f i libucrtd:output.obj
 0001:0008f280       ??0?$stream_output_adapter@D@__crt_stdio_output@@QEAA@QEAU_iobuf@@@Z 0000000140090280 f i libucrtd:output.obj
 0001:0008f2c0       ??0?$stream_output_adapter@_W@__crt_stdio_output@@QEAA@QEAU_iobuf@@@Z 00000001400902c0 f i libucrtd:output.obj
 0001:0008f300       ??0?$string_output_adapter@D@__crt_stdio_output@@QEAA@QEAU?$string_output_adapter_context@D@1@@Z 0000000140090300 f i libucrtd:output.obj
 0001:0008f320       ??0?$string_output_adapter@_W@__crt_stdio_output@@QEAA@QEAU?$string_output_adapter_context@_W@1@@Z 0000000140090320 f i libucrtd:output.obj
 0001:0008f340       ??0__acrt_stdio_temporary_buffering_guard@@QEAA@QEAU_iobuf@@AEAV__crt_cached_ptd_host@@@Z 0000000140090340 f i libucrtd:output.obj
 0001:0008f390       ??0__crt_cached_ptd_host@@QEAA@QEAU__crt_locale_pointers@@@Z 0000000140090390 f i libucrtd:output.obj
 0001:0008f450       ??0__crt_scoped_get_last_error_reset@@QEAA@XZ 0000000140090450 f i libucrtd:output.obj
 0001:0008f470       ??0formatting_buffer@__crt_stdio_output@@QEAA@XZ 0000000140090470 f i libucrtd:output.obj
 0001:0008f4b0       ??0guard@?$cached@H@__crt_cached_ptd_host@@QEAA@AEAU12@@Z 00000001400904b0 f i libucrtd:output.obj
 0001:0008f4f0       ??1?$c_string_character_source@D@__crt_strtox@@QEAA@XZ 00000001400904f0 f i libucrtd:output.obj
 0001:0008f520       ??1?$c_string_character_source@_W@__crt_strtox@@QEAA@XZ 0000000140090520 f i libucrtd:output.obj
 0001:0008f550       ??1?$common_data@D@__crt_stdio_output@@QEAA@XZ 0000000140090550 f i libucrtd:output.obj
 0001:0008f570       ??1?$common_data@_W@__crt_stdio_output@@QEAA@XZ 0000000140090570 f i libucrtd:output.obj
 0001:0008f590       ??1?$format_validation_base@DV?$stream_output_adapter@D@__crt_stdio_output@@@__crt_stdio_output@@QEAA@XZ 0000000140090590 f i libucrtd:output.obj
 0001:0008f5b0       ??1?$format_validation_base@DV?$string_output_adapter@D@__crt_stdio_output@@@__crt_stdio_output@@QEAA@XZ 00000001400905b0 f i libucrtd:output.obj
 0001:0008f5d0       ??1?$format_validation_base@_WV?$stream_output_adapter@_W@__crt_stdio_output@@@__crt_stdio_output@@QEAA@XZ 00000001400905d0 f i libucrtd:output.obj
 0001:0008f5f0       ??1?$format_validation_base@_WV?$string_output_adapter@_W@__crt_stdio_output@@@__crt_stdio_output@@QEAA@XZ 00000001400905f0 f i libucrtd:output.obj
 0001:0008f610       ??1?$output_adapter_data@DV?$stream_output_adapter@D@__crt_stdio_output@@@__crt_stdio_output@@QEAA@XZ 0000000140090610 f i libucrtd:output.obj
 0001:0008f630       ??1?$output_adapter_data@DV?$string_output_adapter@D@__crt_stdio_output@@@__crt_stdio_output@@QEAA@XZ 0000000140090630 f i libucrtd:output.obj
 0001:0008f650       ??1?$output_adapter_data@_WV?$stream_output_adapter@_W@__crt_stdio_output@@@__crt_stdio_output@@QEAA@XZ 0000000140090650 f i libucrtd:output.obj
 0001:0008f670       ??1?$output_adapter_data@_WV?$string_output_adapter@_W@__crt_stdio_output@@@__crt_stdio_output@@QEAA@XZ 0000000140090670 f i libucrtd:output.obj
 0001:0008f690       ??1?$output_processor@DV?$stream_output_adapter@D@__crt_stdio_output@@V?$format_validation_base@DV?$stream_output_adapter@D@__crt_stdio_output@@@2@@__crt_stdio_output@@QEAA@XZ 0000000140090690 f i libucrtd:output.obj
 0001:0008f6b0       ??1?$output_processor@DV?$stream_output_adapter@D@__crt_stdio_output@@V?$positional_parameter_base@DV?$stream_output_adapter@D@__crt_stdio_output@@@2@@__crt_stdio_output@@QEAA@XZ 00000001400906b0 f i libucrtd:output.obj
 0001:0008f6d0       ??1?$output_processor@DV?$stream_output_adapter@D@__crt_stdio_output@@V?$standard_base@DV?$stream_output_adapter@D@__crt_stdio_output@@@2@@__crt_stdio_output@@QEAA@XZ 00000001400906d0 f i libucrtd:output.obj
 0001:0008f6f0       ??1?$output_processor@DV?$string_output_adapter@D@__crt_stdio_output@@V?$format_validation_base@DV?$string_output_adapter@D@__crt_stdio_output@@@2@@__crt_stdio_output@@QEAA@XZ 00000001400906f0 f i libucrtd:output.obj
 0001:0008f710       ??1?$output_processor@DV?$string_output_adapter@D@__crt_stdio_output@@V?$positional_parameter_base@DV?$string_output_adapter@D@__crt_stdio_output@@@2@@__crt_stdio_output@@QEAA@XZ 0000000140090710 f i libucrtd:output.obj
 0001:0008f730       ??1?$output_processor@DV?$string_output_adapter@D@__crt_stdio_output@@V?$standard_base@DV?$string_output_adapter@D@__crt_stdio_output@@@2@@__crt_stdio_output@@QEAA@XZ 0000000140090730 f i libucrtd:output.obj
 0001:0008f750       ??1?$output_processor@_WV?$stream_output_adapter@_W@__crt_stdio_output@@V?$format_validation_base@_WV?$stream_output_adapter@_W@__crt_stdio_output@@@2@@__crt_stdio_output@@QEAA@XZ 0000000140090750 f i libucrtd:output.obj
 0001:0008f770       ??1?$output_processor@_WV?$stream_output_adapter@_W@__crt_stdio_output@@V?$positional_parameter_base@_WV?$stream_output_adapter@_W@__crt_stdio_output@@@2@@__crt_stdio_output@@QEAA@XZ 0000000140090770 f i libucrtd:output.obj
 0001:0008f790       ??1?$output_processor@_WV?$stream_output_adapter@_W@__crt_stdio_output@@V?$standard_base@_WV?$stream_output_adapter@_W@__crt_stdio_output@@@2@@__crt_stdio_output@@QEAA@XZ 0000000140090790 f i libucrtd:output.obj
 0001:0008f7b0       ??1?$output_processor@_WV?$string_output_adapter@_W@__crt_stdio_output@@V?$format_validation_base@_WV?$string_output_adapter@_W@__crt_stdio_output@@@2@@__crt_stdio_output@@QEAA@XZ 00000001400907b0 f i libucrtd:output.obj
 0001:0008f7d0       ??1?$output_processor@_WV?$string_output_adapter@_W@__crt_stdio_output@@V?$positional_parameter_base@_WV?$string_output_adapter@_W@__crt_stdio_output@@@2@@__crt_stdio_output@@QEAA@XZ 00000001400907d0 f i libucrtd:output.obj
 0001:0008f7f0       ??1?$output_processor@_WV?$string_output_adapter@_W@__crt_stdio_output@@V?$standard_base@_WV?$string_output_adapter@_W@__crt_stdio_output@@@2@@__crt_stdio_output@@QEAA@XZ 00000001400907f0 f i libucrtd:output.obj
 0001:0008f810       ??1?$positional_parameter_base@DV?$stream_output_adapter@D@__crt_stdio_output@@@__crt_stdio_output@@QEAA@XZ 0000000140090810 f i libucrtd:output.obj
 0001:0008f830       ??1?$positional_parameter_base@DV?$string_output_adapter@D@__crt_stdio_output@@@__crt_stdio_output@@QEAA@XZ 0000000140090830 f i libucrtd:output.obj
 0001:0008f850       ??1?$positional_parameter_base@_WV?$stream_output_adapter@_W@__crt_stdio_output@@@__crt_stdio_output@@QEAA@XZ 0000000140090850 f i libucrtd:output.obj
 0001:0008f870       ??1?$positional_parameter_base@_WV?$string_output_adapter@_W@__crt_stdio_output@@@__crt_stdio_output@@QEAA@XZ 0000000140090870 f i libucrtd:output.obj
 0001:0008f890       ??1?$standard_base@DV?$stream_output_adapter@D@__crt_stdio_output@@@__crt_stdio_output@@QEAA@XZ 0000000140090890 f i libucrtd:output.obj
 0001:0008f8b0       ??1?$standard_base@DV?$string_output_adapter@D@__crt_stdio_output@@@__crt_stdio_output@@QEAA@XZ 00000001400908b0 f i libucrtd:output.obj
 0001:0008f8d0       ??1?$standard_base@_WV?$stream_output_adapter@_W@__crt_stdio_output@@@__crt_stdio_output@@QEAA@XZ 00000001400908d0 f i libucrtd:output.obj
 0001:0008f8f0       ??1?$standard_base@_WV?$string_output_adapter@_W@__crt_stdio_output@@@__crt_stdio_output@@QEAA@XZ 00000001400908f0 f i libucrtd:output.obj
 0001:0008f910       ??1__acrt_stdio_temporary_buffering_guard@@QEAA@XZ 0000000140090910 f i libucrtd:output.obj
 0001:0008f940       ??1__crt_cached_ptd_host@@QEAA@XZ 0000000140090940 f i libucrtd:output.obj
 0001:0008f9f0       ??1__crt_scoped_get_last_error_reset@@QEAA@XZ 00000001400909f0 f i libucrtd:output.obj
 0001:0008fa10       ??1formatting_buffer@__crt_stdio_output@@QEAA@XZ 0000000140090a10 f i libucrtd:output.obj
 0001:0008fa40       ??1guard@?$cached@H@__crt_cached_ptd_host@@QEAA@XZ 0000000140090a40 f i libucrtd:output.obj
 0001:0008fa70       ??4?$__crt_unique_heap_ptr@DU__crt_internal_free_policy@@@@QEAAAEAV0@$$QEAV0@@Z 0000000140090a70 f i libucrtd:output.obj
 0001:0008fab0       ??A?$spectre_mitigated_lookup_table@Ustate_transition_pair@__crt_stdio_output@@$0IA@@__crt_stdio_output@@QEBAAEBUstate_transition_pair@1@_K@Z 0000000140090ab0 f i libucrtd:output.obj
 0001:00090310       ?__crt_interlocked_read_32@@YAHPEDH@Z 0000000140091310 f i libucrtd:output.obj
 0001:00090330       ?adjust_hexit@?$output_processor@DV?$stream_output_adapter@D@__crt_stdio_output@@V?$format_validation_base@DV?$stream_output_adapter@D@__crt_stdio_output@@@2@@__crt_stdio_output@@CADH_N@Z 0000000140091330 f i libucrtd:output.obj
 0001:00090380       ?adjust_hexit@?$output_processor@DV?$stream_output_adapter@D@__crt_stdio_output@@V?$positional_parameter_base@DV?$stream_output_adapter@D@__crt_stdio_output@@@2@@__crt_stdio_output@@CADH_N@Z 0000000140091380 f i libucrtd:output.obj
 0001:000903d0       ?adjust_hexit@?$output_processor@DV?$stream_output_adapter@D@__crt_stdio_output@@V?$standard_base@DV?$stream_output_adapter@D@__crt_stdio_output@@@2@@__crt_stdio_output@@CADH_N@Z 00000001400913d0 f i libucrtd:output.obj
 0001:00090420       ?adjust_hexit@?$output_processor@DV?$string_output_adapter@D@__crt_stdio_output@@V?$format_validation_base@DV?$string_output_adapter@D@__crt_stdio_output@@@2@@__crt_stdio_output@@CADH_N@Z 0000000140091420 f i libucrtd:output.obj
 0001:00090470       ?adjust_hexit@?$output_processor@DV?$string_output_adapter@D@__crt_stdio_output@@V?$positional_parameter_base@DV?$string_output_adapter@D@__crt_stdio_output@@@2@@__crt_stdio_output@@CADH_N@Z 0000000140091470 f i libucrtd:output.obj
 0001:000904c0       ?adjust_hexit@?$output_processor@DV?$string_output_adapter@D@__crt_stdio_output@@V?$standard_base@DV?$string_output_adapter@D@__crt_stdio_output@@@2@@__crt_stdio_output@@CADH_N@Z 00000001400914c0 f i libucrtd:output.obj
 0001:00090510       ?adjust_hexit@?$output_processor@_WV?$stream_output_adapter@_W@__crt_stdio_output@@V?$format_validation_base@_WV?$stream_output_adapter@_W@__crt_stdio_output@@@2@@__crt_stdio_output@@CADH_N@Z 0000000140091510 f i libucrtd:output.obj
 0001:00090560       ?adjust_hexit@?$output_processor@_WV?$stream_output_adapter@_W@__crt_stdio_output@@V?$positional_parameter_base@_WV?$stream_output_adapter@_W@__crt_stdio_output@@@2@@__crt_stdio_output@@CADH_N@Z 0000000140091560 f i libucrtd:output.obj
 0001:000905b0       ?adjust_hexit@?$output_processor@_WV?$stream_output_adapter@_W@__crt_stdio_output@@V?$standard_base@_WV?$stream_output_adapter@_W@__crt_stdio_output@@@2@@__crt_stdio_output@@CADH_N@Z 00000001400915b0 f i libucrtd:output.obj
 0001:00090600       ?adjust_hexit@?$output_processor@_WV?$string_output_adapter@_W@__crt_stdio_output@@V?$format_validation_base@_WV?$string_output_adapter@_W@__crt_stdio_output@@@2@@__crt_stdio_output@@CADH_N@Z 0000000140091600 f i libucrtd:output.obj
 0001:00090650       ?adjust_hexit@?$output_processor@_WV?$string_output_adapter@_W@__crt_stdio_output@@V?$positional_parameter_base@_WV?$string_output_adapter@_W@__crt_stdio_output@@@2@@__crt_stdio_output@@CADH_N@Z 0000000140091650 f i libucrtd:output.obj
 0001:000906a0       ?adjust_hexit@?$output_processor@_WV?$string_output_adapter@_W@__crt_stdio_output@@V?$standard_base@_WV?$string_output_adapter@_W@__crt_stdio_output@@@2@@__crt_stdio_output@@CADH_N@Z 00000001400916a0 f i libucrtd:output.obj
 0001:000906f0       ?advance_to_next_pass@?$positional_parameter_base@DV?$stream_output_adapter@D@__crt_stdio_output@@@__crt_stdio_output@@IEAA_NXZ 00000001400916f0 f i libucrtd:output.obj
 0001:000907a0       ?advance_to_next_pass@?$positional_parameter_base@DV?$string_output_adapter@D@__crt_stdio_output@@@__crt_stdio_output@@IEAA_NXZ 00000001400917a0 f i libucrtd:output.obj
 0001:00090850       ?advance_to_next_pass@?$positional_parameter_base@_WV?$stream_output_adapter@_W@__crt_stdio_output@@@__crt_stdio_output@@IEAA_NXZ 0000000140091850 f i libucrtd:output.obj
 0001:00090900       ?advance_to_next_pass@?$positional_parameter_base@_WV?$string_output_adapter@_W@__crt_stdio_output@@@__crt_stdio_output@@IEAA_NXZ 0000000140091900 f i libucrtd:output.obj
 0001:000909b0       ?advance_to_next_pass@?$standard_base@DV?$stream_output_adapter@D@__crt_stdio_output@@@__crt_stdio_output@@IEAA_NXZ 00000001400919b0 f i libucrtd:output.obj
 0001:00090a00       ?advance_to_next_pass@?$standard_base@DV?$string_output_adapter@D@__crt_stdio_output@@@__crt_stdio_output@@IEAA_NXZ 0000000140091a00 f i libucrtd:output.obj
 0001:00090a50       ?advance_to_next_pass@?$standard_base@_WV?$stream_output_adapter@_W@__crt_stdio_output@@@__crt_stdio_output@@IEAA_NXZ 0000000140091a50 f i libucrtd:output.obj
 0001:00090aa0       ?advance_to_next_pass@?$standard_base@_WV?$string_output_adapter@_W@__crt_stdio_output@@@__crt_stdio_output@@IEAA_NXZ 0000000140091aa0 f i libucrtd:output.obj
 0001:00090af0       ?check@?$cached@H@__crt_cached_ptd_host@@QEBA_NH@Z 0000000140091af0 f i libucrtd:output.obj
 0001:00090b30       ?check_synchronize_global_state_index@__crt_cached_ptd_host@@AEAA_KAEBV__crt_scoped_get_last_error_reset@@@Z 0000000140091b30 f i libucrtd:output.obj
 0001:00090b70       ?check_synchronize_per_thread_data@__crt_cached_ptd_host@@AEAAPEAU__acrt_ptd@@XZ 0000000140091b70 f i libucrtd:output.obj
 0001:00090bb0       ?create_guard@?$cached@H@__crt_cached_ptd_host@@QEAA?AVguard@12@XZ 0000000140091bb0 f i libucrtd:output.obj
 0001:00090be0       ?crop_zeroes@__crt_stdio_output@@YAXPEADQEAU__crt_locale_pointers@@@Z 0000000140091be0 f i libucrtd:output.obj
 0001:00090d30       ?disable@guard@?$cached@H@__crt_cached_ptd_host@@QEAAXXZ 0000000140091d30 f i libucrtd:output.obj
 0001:00090d40       ?enable@guard@?$cached@H@__crt_cached_ptd_host@@QEAAXXZ 0000000140091d40 f i libucrtd:output.obj
 0001:00090d50       ?find_next_state@?$output_processor@DV?$stream_output_adapter@D@__crt_stdio_output@@V?$format_validation_base@DV?$stream_output_adapter@D@__crt_stdio_output@@@2@@__crt_stdio_output@@AEBA?AW4state@2@DW432@@Z 0000000140091d50 f i libucrtd:output.obj
 0001:00090df0       ?find_next_state@?$output_processor@DV?$stream_output_adapter@D@__crt_stdio_output@@V?$positional_parameter_base@DV?$stream_output_adapter@D@__crt_stdio_output@@@2@@__crt_stdio_output@@AEBA?AW4state@2@DW432@@Z 0000000140091df0 f i libucrtd:output.obj
 0001:00090e90       ?find_next_state@?$output_processor@DV?$stream_output_adapter@D@__crt_stdio_output@@V?$standard_base@DV?$stream_output_adapter@D@__crt_stdio_output@@@2@@__crt_stdio_output@@AEBA?AW4state@2@DW432@@Z 0000000140091e90 f i libucrtd:output.obj
 0001:00090f30       ?find_next_state@?$output_processor@DV?$string_output_adapter@D@__crt_stdio_output@@V?$format_validation_base@DV?$string_output_adapter@D@__crt_stdio_output@@@2@@__crt_stdio_output@@AEBA?AW4state@2@DW432@@Z 0000000140091f30 f i libucrtd:output.obj
 0001:00090fd0       ?find_next_state@?$output_processor@DV?$string_output_adapter@D@__crt_stdio_output@@V?$positional_parameter_base@DV?$string_output_adapter@D@__crt_stdio_output@@@2@@__crt_stdio_output@@AEBA?AW4state@2@DW432@@Z 0000000140091fd0 f i libucrtd:output.obj
 0001:00091070       ?find_next_state@?$output_processor@DV?$string_output_adapter@D@__crt_stdio_output@@V?$standard_base@DV?$string_output_adapter@D@__crt_stdio_output@@@2@@__crt_stdio_output@@AEBA?AW4state@2@DW432@@Z 0000000140092070 f i libucrtd:output.obj
 0001:00091110       ?find_next_state@?$output_processor@_WV?$stream_output_adapter@_W@__crt_stdio_output@@V?$format_validation_base@_WV?$stream_output_adapter@_W@__crt_stdio_output@@@2@@__crt_stdio_output@@AEBA?AW4state@2@_WW432@@Z 0000000140092110 f i libucrtd:output.obj
 0001:000911b0       ?find_next_state@?$output_processor@_WV?$stream_output_adapter@_W@__crt_stdio_output@@V?$positional_parameter_base@_WV?$stream_output_adapter@_W@__crt_stdio_output@@@2@@__crt_stdio_output@@AEBA?AW4state@2@_WW432@@Z 00000001400921b0 f i libucrtd:output.obj
 0001:00091250       ?find_next_state@?$output_processor@_WV?$stream_output_adapter@_W@__crt_stdio_output@@V?$standard_base@_WV?$stream_output_adapter@_W@__crt_stdio_output@@@2@@__crt_stdio_output@@AEBA?AW4state@2@_WW432@@Z 0000000140092250 f i libucrtd:output.obj
 0001:000912f0       ?find_next_state@?$output_processor@_WV?$string_output_adapter@_W@__crt_stdio_output@@V?$format_validation_base@_WV?$string_output_adapter@_W@__crt_stdio_output@@@2@@__crt_stdio_output@@AEBA?AW4state@2@_WW432@@Z 00000001400922f0 f i libucrtd:output.obj
 0001:00091390       ?find_next_state@?$output_processor@_WV?$string_output_adapter@_W@__crt_stdio_output@@V?$positional_parameter_base@_WV?$string_output_adapter@_W@__crt_stdio_output@@@2@@__crt_stdio_output@@AEBA?AW4state@2@_WW432@@Z 0000000140092390 f i libucrtd:output.obj
 0001:00091430       ?find_next_state@?$output_processor@_WV?$string_output_adapter@_W@__crt_stdio_output@@V?$standard_base@_WV?$string_output_adapter@_W@__crt_stdio_output@@@2@@__crt_stdio_output@@AEBA?AW4state@2@_WW432@@Z 0000000140092430 f i libucrtd:output.obj
 0001:000914d0       ?force_decimal_point@__crt_stdio_output@@YAXPEADQEAU__crt_locale_pointers@@@Z 00000001400924d0 f i libucrtd:output.obj
 0001:000915d0       ?force_synchronize_global_state_index@__crt_cached_ptd_host@@AEAA_KAEBV__crt_scoped_get_last_error_reset@@@Z 00000001400925d0 f i libucrtd:output.obj
 0001:00091610       ?force_synchronize_per_thread_data@__crt_cached_ptd_host@@AEAAPEAU__acrt_ptd@@XZ 0000000140092610 f i libucrtd:output.obj
 0001:00091670       ?get@?$c_string_character_source@D@__crt_strtox@@QEAADXZ 0000000140092670 f i libucrtd:output.obj
 0001:000916b0       ?get@?$c_string_character_source@_W@__crt_strtox@@QEAA_WXZ 00000001400926b0 f i libucrtd:output.obj
 0001:000916f0       ?get_current_state_index@__crt_state_management@@YA_KAEBV__crt_scoped_get_last_error_reset@@@Z 00000001400926f0 f i libucrtd:output.obj
 0001:00091700       ?get_errno@__crt_cached_ptd_host@@QEAA@XZ 0000000140092700 f i libucrtd:output.obj
 0001:00091710       ?get_flags@__crt_stdio_stream@@QEBAJXZ 0000000140092710 f i libucrtd:output.obj
 0001:00091740       ?get_locale@__crt_cached_ptd_host@@QEAAPEAU__crt_locale_pointers@@XZ 0000000140092740 f i libucrtd:output.obj
 0001:00091770       ?get_parameter_type@?$positional_parameter_base@DV?$stream_output_adapter@D@__crt_stdio_output@@@__crt_stdio_output@@CA?AW4parameter_type@12@F@Z 0000000140092770 f i libucrtd:output.obj
 0001:00091780       ?get_parameter_type@?$positional_parameter_base@DV?$stream_output_adapter@D@__crt_stdio_output@@@__crt_stdio_output@@CA?AW4parameter_type@12@G@Z 0000000140092780 f i libucrtd:output.obj
 0001:00091790       ?get_parameter_type@?$positional_parameter_base@DV?$stream_output_adapter@D@__crt_stdio_output@@@__crt_stdio_output@@CA?AW4parameter_type@12@H@Z 0000000140092790 f i libucrtd:output.obj
 0001:000917a0       ?get_parameter_type@?$positional_parameter_base@DV?$stream_output_adapter@D@__crt_stdio_output@@@__crt_stdio_output@@CA?AW4parameter_type@12@I@Z 00000001400927a0 f i libucrtd:output.obj
 0001:000917b0       ?get_parameter_type@?$positional_parameter_base@DV?$stream_output_adapter@D@__crt_stdio_output@@@__crt_stdio_output@@CA?AW4parameter_type@12@U_CRT_DOUBLE@@@Z 00000001400927b0 f i libucrtd:output.obj
 0001:000917c0       ?get_parameter_type@?$positional_parameter_base@DV?$stream_output_adapter@D@__crt_stdio_output@@@__crt_stdio_output@@CA?AW4parameter_type@12@_J@Z 00000001400927c0 f i libucrtd:output.obj
 0001:000917d0       ?get_parameter_type@?$positional_parameter_base@DV?$stream_output_adapter@D@__crt_stdio_output@@@__crt_stdio_output@@CA?AW4parameter_type@12@_K@Z 00000001400927d0 f i libucrtd:output.obj
 0001:000917e0       ?get_parameter_type@?$positional_parameter_base@DV?$stream_output_adapter@D@__crt_stdio_output@@@__crt_stdio_output@@CA?AW4parameter_type@12@_W@Z 00000001400927e0 f i libucrtd:output.obj
 0001:000917f0       ?get_parameter_type@?$positional_parameter_base@DV?$string_output_adapter@D@__crt_stdio_output@@@__crt_stdio_output@@CA?AW4parameter_type@12@F@Z 00000001400927f0 f i libucrtd:output.obj
 0001:00091800       ?get_parameter_type@?$positional_parameter_base@DV?$string_output_adapter@D@__crt_stdio_output@@@__crt_stdio_output@@CA?AW4parameter_type@12@G@Z 0000000140092800 f i libucrtd:output.obj
 0001:00091810       ?get_parameter_type@?$positional_parameter_base@DV?$string_output_adapter@D@__crt_stdio_output@@@__crt_stdio_output@@CA?AW4parameter_type@12@H@Z 0000000140092810 f i libucrtd:output.obj
 0001:00091820       ?get_parameter_type@?$positional_parameter_base@DV?$string_output_adapter@D@__crt_stdio_output@@@__crt_stdio_output@@CA?AW4parameter_type@12@I@Z 0000000140092820 f i libucrtd:output.obj
 0001:00091830       ?get_parameter_type@?$positional_parameter_base@DV?$string_output_adapter@D@__crt_stdio_output@@@__crt_stdio_output@@CA?AW4parameter_type@12@U_CRT_DOUBLE@@@Z 0000000140092830 f i libucrtd:output.obj
 0001:00091840       ?get_parameter_type@?$positional_parameter_base@DV?$string_output_adapter@D@__crt_stdio_output@@@__crt_stdio_output@@CA?AW4parameter_type@12@_J@Z 0000000140092840 f i libucrtd:output.obj
 0001:00091850       ?get_parameter_type@?$positional_parameter_base@DV?$string_output_adapter@D@__crt_stdio_output@@@__crt_stdio_output@@CA?AW4parameter_type@12@_K@Z 0000000140092850 f i libucrtd:output.obj
 0001:00091860       ?get_parameter_type@?$positional_parameter_base@DV?$string_output_adapter@D@__crt_stdio_output@@@__crt_stdio_output@@CA?AW4parameter_type@12@_W@Z 0000000140092860 f i libucrtd:output.obj
 0001:00091870       ?get_parameter_type@?$positional_parameter_base@_WV?$stream_output_adapter@_W@__crt_stdio_output@@@__crt_stdio_output@@CA?AW4parameter_type@12@F@Z 0000000140092870 f i libucrtd:output.obj
 0001:00091880       ?get_parameter_type@?$positional_parameter_base@_WV?$stream_output_adapter@_W@__crt_stdio_output@@@__crt_stdio_output@@CA?AW4parameter_type@12@G@Z 0000000140092880 f i libucrtd:output.obj
 0001:00091890       ?get_parameter_type@?$positional_parameter_base@_WV?$stream_output_adapter@_W@__crt_stdio_output@@@__crt_stdio_output@@CA?AW4parameter_type@12@H@Z 0000000140092890 f i libucrtd:output.obj
 0001:000918a0       ?get_parameter_type@?$positional_parameter_base@_WV?$stream_output_adapter@_W@__crt_stdio_output@@@__crt_stdio_output@@CA?AW4parameter_type@12@I@Z 00000001400928a0 f i libucrtd:output.obj
 0001:000918b0       ?get_parameter_type@?$positional_parameter_base@_WV?$stream_output_adapter@_W@__crt_stdio_output@@@__crt_stdio_output@@CA?AW4parameter_type@12@U_CRT_DOUBLE@@@Z 00000001400928b0 f i libucrtd:output.obj
 0001:000918c0       ?get_parameter_type@?$positional_parameter_base@_WV?$stream_output_adapter@_W@__crt_stdio_output@@@__crt_stdio_output@@CA?AW4parameter_type@12@_J@Z 00000001400928c0 f i libucrtd:output.obj
 0001:000918d0       ?get_parameter_type@?$positional_parameter_base@_WV?$stream_output_adapter@_W@__crt_stdio_output@@@__crt_stdio_output@@CA?AW4parameter_type@12@_K@Z 00000001400928d0 f i libucrtd:output.obj
 0001:000918e0       ?get_parameter_type@?$positional_parameter_base@_WV?$stream_output_adapter@_W@__crt_stdio_output@@@__crt_stdio_output@@CA?AW4parameter_type@12@_W@Z 00000001400928e0 f i libucrtd:output.obj
 0001:000918f0       ?get_parameter_type@?$positional_parameter_base@_WV?$string_output_adapter@_W@__crt_stdio_output@@@__crt_stdio_output@@CA?AW4parameter_type@12@F@Z 00000001400928f0 f i libucrtd:output.obj
 0001:00091900       ?get_parameter_type@?$positional_parameter_base@_WV?$string_output_adapter@_W@__crt_stdio_output@@@__crt_stdio_output@@CA?AW4parameter_type@12@G@Z 0000000140092900 f i libucrtd:output.obj
 0001:00091910       ?get_parameter_type@?$positional_parameter_base@_WV?$string_output_adapter@_W@__crt_stdio_output@@@__crt_stdio_output@@CA?AW4parameter_type@12@H@Z 0000000140092910 f i libucrtd:output.obj
 0001:00091920       ?get_parameter_type@?$positional_parameter_base@_WV?$string_output_adapter@_W@__crt_stdio_output@@@__crt_stdio_output@@CA?AW4parameter_type@12@I@Z 0000000140092920 f i libucrtd:output.obj
 0001:00091930       ?get_parameter_type@?$positional_parameter_base@_WV?$string_output_adapter@_W@__crt_stdio_output@@@__crt_stdio_output@@CA?AW4parameter_type@12@U_CRT_DOUBLE@@@Z 0000000140092930 f i libucrtd:output.obj
 0001:00091940       ?get_parameter_type@?$positional_parameter_base@_WV?$string_output_adapter@_W@__crt_stdio_output@@@__crt_stdio_output@@CA?AW4parameter_type@12@_J@Z 0000000140092940 f i libucrtd:output.obj
 0001:00091950       ?get_parameter_type@?$positional_parameter_base@_WV?$string_output_adapter@_W@__crt_stdio_output@@@__crt_stdio_output@@CA?AW4parameter_type@12@_K@Z 0000000140092950 f i libucrtd:output.obj
 0001:00091960       ?get_parameter_type@?$positional_parameter_base@_WV?$string_output_adapter@_W@__crt_stdio_output@@@__crt_stdio_output@@CA?AW4parameter_type@12@_W@Z 0000000140092960 f i libucrtd:output.obj
 0001:00091970       ?get_raw_ptd@__crt_cached_ptd_host@@QEAAPEAU__acrt_ptd@@XZ 0000000140092970 f i libucrtd:output.obj
 0001:00091990       ?has_flag@?$output_processor@DV?$stream_output_adapter@D@__crt_stdio_output@@V?$format_validation_base@DV?$stream_output_adapter@D@__crt_stdio_output@@@2@@__crt_stdio_output@@AEBA_NI@Z 0000000140092990 f i libucrtd:output.obj
 0001:000919d0       ?has_flag@?$output_processor@DV?$stream_output_adapter@D@__crt_stdio_output@@V?$positional_parameter_base@DV?$stream_output_adapter@D@__crt_stdio_output@@@2@@__crt_stdio_output@@AEBA_NI@Z 00000001400929d0 f i libucrtd:output.obj
 0001:00091a10       ?has_flag@?$output_processor@DV?$stream_output_adapter@D@__crt_stdio_output@@V?$standard_base@DV?$stream_output_adapter@D@__crt_stdio_output@@@2@@__crt_stdio_output@@AEBA_NI@Z 0000000140092a10 f i libucrtd:output.obj
 0001:00091a50       ?has_flag@?$output_processor@DV?$string_output_adapter@D@__crt_stdio_output@@V?$format_validation_base@DV?$string_output_adapter@D@__crt_stdio_output@@@2@@__crt_stdio_output@@AEBA_NI@Z 0000000140092a50 f i libucrtd:output.obj
 0001:00091a90       ?has_flag@?$output_processor@DV?$string_output_adapter@D@__crt_stdio_output@@V?$positional_parameter_base@DV?$string_output_adapter@D@__crt_stdio_output@@@2@@__crt_stdio_output@@AEBA_NI@Z 0000000140092a90 f i libucrtd:output.obj
 0001:00091ad0       ?has_flag@?$output_processor@DV?$string_output_adapter@D@__crt_stdio_output@@V?$standard_base@DV?$string_output_adapter@D@__crt_stdio_output@@@2@@__crt_stdio_output@@AEBA_NI@Z 0000000140092ad0 f i libucrtd:output.obj
 0001:00091b10       ?has_flag@?$output_processor@_WV?$stream_output_adapter@_W@__crt_stdio_output@@V?$format_validation_base@_WV?$stream_output_adapter@_W@__crt_stdio_output@@@2@@__crt_stdio_output@@AEBA_NI@Z 0000000140092b10 f i libucrtd:output.obj
 0001:00091b50       ?has_flag@?$output_processor@_WV?$stream_output_adapter@_W@__crt_stdio_output@@V?$positional_parameter_base@_WV?$stream_output_adapter@_W@__crt_stdio_output@@@2@@__crt_stdio_output@@AEBA_NI@Z 0000000140092b50 f i libucrtd:output.obj
 0001:00091b90       ?has_flag@?$output_processor@_WV?$stream_output_adapter@_W@__crt_stdio_output@@V?$standard_base@_WV?$stream_output_adapter@_W@__crt_stdio_output@@@2@@__crt_stdio_output@@AEBA_NI@Z 0000000140092b90 f i libucrtd:output.obj
 0001:00091bd0       ?has_flag@?$output_processor@_WV?$string_output_adapter@_W@__crt_stdio_output@@V?$format_validation_base@_WV?$string_output_adapter@_W@__crt_stdio_output@@@2@@__crt_stdio_output@@AEBA_NI@Z 0000000140092bd0 f i libucrtd:output.obj
 0001:00091c10       ?has_flag@?$output_processor@_WV?$string_output_adapter@_W@__crt_stdio_output@@V?$positional_parameter_base@_WV?$string_output_adapter@_W@__crt_stdio_output@@@2@@__crt_stdio_output@@AEBA_NI@Z 0000000140092c10 f i libucrtd:output.obj
 0001:00091c50       ?has_flag@?$output_processor@_WV?$string_output_adapter@_W@__crt_stdio_output@@V?$standard_base@_WV?$string_output_adapter@_W@__crt_stdio_output@@@2@@__crt_stdio_output@@AEBA_NI@Z 0000000140092c50 f i libucrtd:output.obj
 0001:00091c90       ?is_positional_parameter_reappearance_consistent@?$positional_parameter_base@DV?$stream_output_adapter@D@__crt_stdio_output@@@__crt_stdio_output@@AEAA_NAEBUparameter_data@12@W4parameter_type@12@DW4length_modifier@2@@Z 0000000140092c90 f i libucrtd:output.obj
 0001:00091ef0       ?is_positional_parameter_reappearance_consistent@?$positional_parameter_base@DV?$string_output_adapter@D@__crt_stdio_output@@@__crt_stdio_output@@AEAA_NAEBUparameter_data@12@W4parameter_type@12@DW4length_modifier@2@@Z 0000000140092ef0 f i libucrtd:output.obj
 0001:00092150       ?is_positional_parameter_reappearance_consistent@?$positional_parameter_base@_WV?$stream_output_adapter@_W@__crt_stdio_output@@@__crt_stdio_output@@AEAA_NAEBUparameter_data@12@W4parameter_type@12@_WW4length_modifier@2@@Z 0000000140093150 f i libucrtd:output.obj
 0001:000923b0       ?is_positional_parameter_reappearance_consistent@?$positional_parameter_base@_WV?$string_output_adapter@_W@__crt_stdio_output@@@__crt_stdio_output@@AEAA_NAEBUparameter_data@12@W4parameter_type@12@_WW4length_modifier@2@@Z 00000001400933b0 f i libucrtd:output.obj
 0001:00092610       ?is_string_backed@__crt_stdio_stream@@QEBA_NXZ 0000000140093610 f i libucrtd:output.obj
 0001:00092650       ?maximum_signed_value@__crt_strtox@@YAJK@Z 0000000140093650 f i libucrtd:output.obj
 0001:00092660       ?minimum_signed_value@__crt_strtox@@YAJK@Z 0000000140093660 f i libucrtd:output.obj
 0001:00092670       ?narrow_null_string@?$output_processor@DV?$stream_output_adapter@D@__crt_stdio_output@@V?$format_validation_base@DV?$stream_output_adapter@D@__crt_stdio_output@@@2@@__crt_stdio_output@@CAPEADXZ 0000000140093670 f i libucrtd:output.obj
 0001:00092680       ?narrow_null_string@?$output_processor@DV?$stream_output_adapter@D@__crt_stdio_output@@V?$positional_parameter_base@DV?$stream_output_adapter@D@__crt_stdio_output@@@2@@__crt_stdio_output@@CAPEADXZ 0000000140093680 f i libucrtd:output.obj
 0001:00092690       ?narrow_null_string@?$output_processor@DV?$stream_output_adapter@D@__crt_stdio_output@@V?$standard_base@DV?$stream_output_adapter@D@__crt_stdio_output@@@2@@__crt_stdio_output@@CAPEADXZ 0000000140093690 f i libucrtd:output.obj
 0001:000926a0       ?narrow_null_string@?$output_processor@DV?$string_output_adapter@D@__crt_stdio_output@@V?$format_validation_base@DV?$string_output_adapter@D@__crt_stdio_output@@@2@@__crt_stdio_output@@CAPEADXZ 00000001400936a0 f i libucrtd:output.obj
 0001:000926b0       ?narrow_null_string@?$output_processor@DV?$string_output_adapter@D@__crt_stdio_output@@V?$positional_parameter_base@DV?$string_output_adapter@D@__crt_stdio_output@@@2@@__crt_stdio_output@@CAPEADXZ 00000001400936b0 f i libucrtd:output.obj
 0001:000926c0       ?narrow_null_string@?$output_processor@DV?$string_output_adapter@D@__crt_stdio_output@@V?$standard_base@DV?$string_output_adapter@D@__crt_stdio_output@@@2@@__crt_stdio_output@@CAPEADXZ 00000001400936c0 f i libucrtd:output.obj
 0001:000926d0       ?narrow_null_string@?$output_processor@_WV?$stream_output_adapter@_W@__crt_stdio_output@@V?$format_validation_base@_WV?$stream_output_adapter@_W@__crt_stdio_output@@@2@@__crt_stdio_output@@CAPEADXZ 00000001400936d0 f i libucrtd:output.obj
 0001:000926e0       ?narrow_null_string@?$output_processor@_WV?$stream_output_adapter@_W@__crt_stdio_output@@V?$positional_parameter_base@_WV?$stream_output_adapter@_W@__crt_stdio_output@@@2@@__crt_stdio_output@@CAPEADXZ 00000001400936e0 f i libucrtd:output.obj
 0001:000926f0       ?narrow_null_string@?$output_processor@_WV?$stream_output_adapter@_W@__crt_stdio_output@@V?$standard_base@_WV?$stream_output_adapter@_W@__crt_stdio_output@@@2@@__crt_stdio_output@@CAPEADXZ 00000001400936f0 f i libucrtd:output.obj
 0001:00092700       ?narrow_null_string@?$output_processor@_WV?$string_output_adapter@_W@__crt_stdio_output@@V?$format_validation_base@_WV?$string_output_adapter@_W@__crt_stdio_output@@@2@@__crt_stdio_output@@CAPEADXZ 0000000140093700 f i libucrtd:output.obj
 0001:00092710       ?narrow_null_string@?$output_processor@_WV?$string_output_adapter@_W@__crt_stdio_output@@V?$positional_parameter_base@_WV?$string_output_adapter@_W@__crt_stdio_output@@@2@@__crt_stdio_output@@CAPEADXZ 0000000140093710 f i libucrtd:output.obj
 0001:00092720       ?narrow_null_string@?$output_processor@_WV?$string_output_adapter@_W@__crt_stdio_output@@V?$standard_base@_WV?$string_output_adapter@_W@__crt_stdio_output@@@2@@__crt_stdio_output@@CAPEADXZ 0000000140093720 f i libucrtd:output.obj
 0001:00092730       ?parse_digit@__crt_strtox@@YAID@Z 0000000140093730 f i libucrtd:output.obj
 0001:000927a0       ?parse_digit@__crt_strtox@@YAI_W@Z 00000001400937a0 f i libucrtd:output.obj
 0001:000927f0       ?parse_int_from_format_string@?$output_processor@DV?$stream_output_adapter@D@__crt_stdio_output@@V?$format_validation_base@DV?$stream_output_adapter@D@__crt_stdio_output@@@2@@__crt_stdio_output@@AEAA_NQEAH@Z 00000001400937f0 f i libucrtd:output.obj
 0001:000928f0       ?parse_int_from_format_string@?$output_processor@DV?$stream_output_adapter@D@__crt_stdio_output@@V?$positional_parameter_base@DV?$stream_output_adapter@D@__crt_stdio_output@@@2@@__crt_stdio_output@@AEAA_NQEAH@Z 00000001400938f0 f i libucrtd:output.obj
 0001:000929f0       ?parse_int_from_format_string@?$output_processor@DV?$stream_output_adapter@D@__crt_stdio_output@@V?$standard_base@DV?$stream_output_adapter@D@__crt_stdio_output@@@2@@__crt_stdio_output@@AEAA_NQEAH@Z 00000001400939f0 f i libucrtd:output.obj
 0001:00092af0       ?parse_int_from_format_string@?$output_processor@DV?$string_output_adapter@D@__crt_stdio_output@@V?$format_validation_base@DV?$string_output_adapter@D@__crt_stdio_output@@@2@@__crt_stdio_output@@AEAA_NQEAH@Z 0000000140093af0 f i libucrtd:output.obj
 0001:00092bf0       ?parse_int_from_format_string@?$output_processor@DV?$string_output_adapter@D@__crt_stdio_output@@V?$positional_parameter_base@DV?$string_output_adapter@D@__crt_stdio_output@@@2@@__crt_stdio_output@@AEAA_NQEAH@Z 0000000140093bf0 f i libucrtd:output.obj
 0001:00092cf0       ?parse_int_from_format_string@?$output_processor@DV?$string_output_adapter@D@__crt_stdio_output@@V?$standard_base@DV?$string_output_adapter@D@__crt_stdio_output@@@2@@__crt_stdio_output@@AEAA_NQEAH@Z 0000000140093cf0 f i libucrtd:output.obj
 0001:00092df0       ?parse_int_from_format_string@?$output_processor@_WV?$stream_output_adapter@_W@__crt_stdio_output@@V?$format_validation_base@_WV?$stream_output_adapter@_W@__crt_stdio_output@@@2@@__crt_stdio_output@@AEAA_NQEAH@Z 0000000140093df0 f i libucrtd:output.obj
 0001:00092ef0       ?parse_int_from_format_string@?$output_processor@_WV?$stream_output_adapter@_W@__crt_stdio_output@@V?$positional_parameter_base@_WV?$stream_output_adapter@_W@__crt_stdio_output@@@2@@__crt_stdio_output@@AEAA_NQEAH@Z 0000000140093ef0 f i libucrtd:output.obj
 0001:00092ff0       ?parse_int_from_format_string@?$output_processor@_WV?$stream_output_adapter@_W@__crt_stdio_output@@V?$standard_base@_WV?$stream_output_adapter@_W@__crt_stdio_output@@@2@@__crt_stdio_output@@AEAA_NQEAH@Z 0000000140093ff0 f i libucrtd:output.obj
 0001:000930f0       ?parse_int_from_format_string@?$output_processor@_WV?$string_output_adapter@_W@__crt_stdio_output@@V?$format_validation_base@_WV?$string_output_adapter@_W@__crt_stdio_output@@@2@@__crt_stdio_output@@AEAA_NQEAH@Z 00000001400940f0 f i libucrtd:output.obj
 0001:000931f0       ?parse_int_from_format_string@?$output_processor@_WV?$string_output_adapter@_W@__crt_stdio_output@@V?$positional_parameter_base@_WV?$string_output_adapter@_W@__crt_stdio_output@@@2@@__crt_stdio_output@@AEAA_NQEAH@Z 00000001400941f0 f i libucrtd:output.obj
 0001:000932f0       ?parse_int_from_format_string@?$output_processor@_WV?$string_output_adapter@_W@__crt_stdio_output@@V?$standard_base@_WV?$string_output_adapter@_W@__crt_stdio_output@@@2@@__crt_stdio_output@@AEAA_NQEAH@Z 00000001400942f0 f i libucrtd:output.obj
 0001:000933f0       ?process@?$output_processor@DV?$stream_output_adapter@D@__crt_stdio_output@@V?$format_validation_base@DV?$stream_output_adapter@D@__crt_stdio_output@@@2@@__crt_stdio_output@@QEAAHXZ 00000001400943f0 f i libucrtd:output.obj
 0001:000937b0       ?process@?$output_processor@DV?$stream_output_adapter@D@__crt_stdio_output@@V?$positional_parameter_base@DV?$stream_output_adapter@D@__crt_stdio_output@@@2@@__crt_stdio_output@@QEAAHXZ 00000001400947b0 f i libucrtd:output.obj
 0001:00093b70       ?process@?$output_processor@DV?$stream_output_adapter@D@__crt_stdio_output@@V?$standard_base@DV?$stream_output_adapter@D@__crt_stdio_output@@@2@@__crt_stdio_output@@QEAAHXZ 0000000140094b70 f i libucrtd:output.obj
 0001:00093f30       ?process@?$output_processor@DV?$string_output_adapter@D@__crt_stdio_output@@V?$format_validation_base@DV?$string_output_adapter@D@__crt_stdio_output@@@2@@__crt_stdio_output@@QEAAHXZ 0000000140094f30 f i libucrtd:output.obj
 0001:000942f0       ?process@?$output_processor@DV?$string_output_adapter@D@__crt_stdio_output@@V?$positional_parameter_base@DV?$string_output_adapter@D@__crt_stdio_output@@@2@@__crt_stdio_output@@QEAAHXZ 00000001400952f0 f i libucrtd:output.obj
 0001:000946b0       ?process@?$output_processor@DV?$string_output_adapter@D@__crt_stdio_output@@V?$standard_base@DV?$string_output_adapter@D@__crt_stdio_output@@@2@@__crt_stdio_output@@QEAAHXZ 00000001400956b0 f i libucrtd:output.obj
 0001:00094a70       ?process@?$output_processor@_WV?$stream_output_adapter@_W@__crt_stdio_output@@V?$format_validation_base@_WV?$stream_output_adapter@_W@__crt_stdio_output@@@2@@__crt_stdio_output@@QEAAHXZ 0000000140095a70 f i libucrtd:output.obj
 0001:00094e30       ?process@?$output_processor@_WV?$stream_output_adapter@_W@__crt_stdio_output@@V?$positional_parameter_base@_WV?$stream_output_adapter@_W@__crt_stdio_output@@@2@@__crt_stdio_output@@QEAAHXZ 0000000140095e30 f i libucrtd:output.obj
 0001:000951f0       ?process@?$output_processor@_WV?$stream_output_adapter@_W@__crt_stdio_output@@V?$standard_base@_WV?$stream_output_adapter@_W@__crt_stdio_output@@@2@@__crt_stdio_output@@QEAAHXZ 00000001400961f0 f i libucrtd:output.obj
 0001:000955b0       ?process@?$output_processor@_WV?$string_output_adapter@_W@__crt_stdio_output@@V?$format_validation_base@_WV?$string_output_adapter@_W@__crt_stdio_output@@@2@@__crt_stdio_output@@QEAAHXZ 00000001400965b0 f i libucrtd:output.obj
 0001:00095970       ?process@?$output_processor@_WV?$string_output_adapter@_W@__crt_stdio_output@@V?$positional_parameter_base@_WV?$string_output_adapter@_W@__crt_stdio_output@@@2@@__crt_stdio_output@@QEAAHXZ 0000000140096970 f i libucrtd:output.obj
 0001:00095d30       ?process@?$output_processor@_WV?$string_output_adapter@_W@__crt_stdio_output@@V?$standard_base@_WV?$string_output_adapter@_W@__crt_stdio_output@@@2@@__crt_stdio_output@@QEAAHXZ 0000000140096d30 f i libucrtd:output.obj
 0001:000960f0       ?public_stream@__crt_stdio_stream@@QEBAPEAU_iobuf@@XZ 00000001400970f0 f i libucrtd:output.obj
 0001:00096100       ?restore_state@?$c_string_character_source@D@__crt_strtox@@QEAA_NQEBD@Z 0000000140097100 f i libucrtd:output.obj
 0001:00096120       ?restore_state@?$c_string_character_source@_W@__crt_strtox@@QEAA_NQEB_W@Z 0000000140097120 f i libucrtd:output.obj
 0001:00096140       ?save_state@?$c_string_character_source@D@__crt_strtox@@QEBAPEBDXZ 0000000140097140 f i libucrtd:output.obj
 0001:00096150       ?save_state@?$c_string_character_source@_W@__crt_strtox@@QEBAPEB_WXZ 0000000140097150 f i libucrtd:output.obj
 0001:00096160       ?set@?$cached@H@__crt_cached_ptd_host@@QEAAHH@Z 0000000140097160 f i libucrtd:output.obj
 0001:00096190       ?set_flag@?$output_processor@DV?$stream_output_adapter@D@__crt_stdio_output@@V?$format_validation_base@DV?$stream_output_adapter@D@__crt_stdio_output@@@2@@__crt_stdio_output@@AEAAXI@Z 0000000140097190 f i libucrtd:output.obj
 0001:000961b0       ?set_flag@?$output_processor@DV?$stream_output_adapter@D@__crt_stdio_output@@V?$positional_parameter_base@DV?$stream_output_adapter@D@__crt_stdio_output@@@2@@__crt_stdio_output@@AEAAXI@Z 00000001400971b0 f i libucrtd:output.obj
 0001:000961d0       ?set_flag@?$output_processor@DV?$stream_output_adapter@D@__crt_stdio_output@@V?$standard_base@DV?$stream_output_adapter@D@__crt_stdio_output@@@2@@__crt_stdio_output@@AEAAXI@Z 00000001400971d0 f i libucrtd:output.obj
 0001:000961f0       ?set_flag@?$output_processor@DV?$string_output_adapter@D@__crt_stdio_output@@V?$format_validation_base@DV?$string_output_adapter@D@__crt_stdio_output@@@2@@__crt_stdio_output@@AEAAXI@Z 00000001400971f0 f i libucrtd:output.obj
 0001:00096210       ?set_flag@?$output_processor@DV?$string_output_adapter@D@__crt_stdio_output@@V?$positional_parameter_base@DV?$string_output_adapter@D@__crt_stdio_output@@@2@@__crt_stdio_output@@AEAAXI@Z 0000000140097210 f i libucrtd:output.obj
 0001:00096230       ?set_flag@?$output_processor@DV?$string_output_adapter@D@__crt_stdio_output@@V?$standard_base@DV?$string_output_adapter@D@__crt_stdio_output@@@2@@__crt_stdio_output@@AEAAXI@Z 0000000140097230 f i libucrtd:output.obj
 0001:00096250       ?set_flag@?$output_processor@_WV?$stream_output_adapter@_W@__crt_stdio_output@@V?$format_validation_base@_WV?$stream_output_adapter@_W@__crt_stdio_output@@@2@@__crt_stdio_output@@AEAAXI@Z 0000000140097250 f i libucrtd:output.obj
 0001:00096270       ?set_flag@?$output_processor@_WV?$stream_output_adapter@_W@__crt_stdio_output@@V?$positional_parameter_base@_WV?$stream_output_adapter@_W@__crt_stdio_output@@@2@@__crt_stdio_output@@AEAAXI@Z 0000000140097270 f i libucrtd:output.obj
 0001:00096290       ?set_flag@?$output_processor@_WV?$stream_output_adapter@_W@__crt_stdio_output@@V?$standard_base@_WV?$stream_output_adapter@_W@__crt_stdio_output@@@2@@__crt_stdio_output@@AEAAXI@Z 0000000140097290 f i libucrtd:output.obj
 0001:000962b0       ?set_flag@?$output_processor@_WV?$string_output_adapter@_W@__crt_stdio_output@@V?$format_validation_base@_WV?$string_output_adapter@_W@__crt_stdio_output@@@2@@__crt_stdio_output@@AEAAXI@Z 00000001400972b0 f i libucrtd:output.obj
 0001:000962d0       ?set_flag@?$output_processor@_WV?$string_output_adapter@_W@__crt_stdio_output@@V?$positional_parameter_base@_WV?$string_output_adapter@_W@__crt_stdio_output@@@2@@__crt_stdio_output@@AEAAXI@Z 00000001400972d0 f i libucrtd:output.obj
 0001:000962f0       ?set_flag@?$output_processor@_WV?$string_output_adapter@_W@__crt_stdio_output@@V?$standard_base@_WV?$string_output_adapter@_W@__crt_stdio_output@@@2@@__crt_stdio_output@@AEAAXI@Z 00000001400972f0 f i libucrtd:output.obj
 0001:00096310       ?should_format@?$positional_parameter_base@DV?$stream_output_adapter@D@__crt_stdio_output@@@__crt_stdio_output@@IEAA_NXZ 0000000140097310 f i libucrtd:output.obj
 0001:00096350       ?should_format@?$positional_parameter_base@DV?$string_output_adapter@D@__crt_stdio_output@@@__crt_stdio_output@@IEAA_NXZ 0000000140097350 f i libucrtd:output.obj
 0001:00096390       ?should_format@?$positional_parameter_base@_WV?$stream_output_adapter@_W@__crt_stdio_output@@@__crt_stdio_output@@IEAA_NXZ 0000000140097390 f i libucrtd:output.obj
 0001:000963d0       ?should_format@?$positional_parameter_base@_WV?$string_output_adapter@_W@__crt_stdio_output@@@__crt_stdio_output@@IEAA_NXZ 00000001400973d0 f i libucrtd:output.obj
 0001:00096410       ?should_format@?$standard_base@DV?$stream_output_adapter@D@__crt_stdio_output@@@__crt_stdio_output@@IEAA_NXZ 0000000140097410 f i libucrtd:output.obj
 0001:00096420       ?should_format@?$standard_base@DV?$string_output_adapter@D@__crt_stdio_output@@@__crt_stdio_output@@IEAA_NXZ 0000000140097420 f i libucrtd:output.obj
 0001:00096430       ?should_format@?$standard_base@_WV?$stream_output_adapter@_W@__crt_stdio_output@@@__crt_stdio_output@@IEAA_NXZ 0000000140097430 f i libucrtd:output.obj
 0001:00096440       ?should_format@?$standard_base@_WV?$string_output_adapter@_W@__crt_stdio_output@@@__crt_stdio_output@@IEAA_NXZ 0000000140097440 f i libucrtd:output.obj
 0001:00096450       ?should_skip_normal_state_processing@?$positional_parameter_base@DV?$stream_output_adapter@D@__crt_stdio_output@@@__crt_stdio_output@@IEAA_NXZ 0000000140097450 f i libucrtd:output.obj
 0001:000964a0       ?should_skip_normal_state_processing@?$positional_parameter_base@DV?$string_output_adapter@D@__crt_stdio_output@@@__crt_stdio_output@@IEAA_NXZ 00000001400974a0 f i libucrtd:output.obj
 0001:000964f0       ?should_skip_normal_state_processing@?$positional_parameter_base@_WV?$stream_output_adapter@_W@__crt_stdio_output@@@__crt_stdio_output@@IEAA_NXZ 00000001400974f0 f i libucrtd:output.obj
 0001:00096540       ?should_skip_normal_state_processing@?$positional_parameter_base@_WV?$string_output_adapter@_W@__crt_stdio_output@@@__crt_stdio_output@@IEAA_NXZ 0000000140097540 f i libucrtd:output.obj
 0001:00096590       ?should_skip_normal_state_processing@?$standard_base@DV?$stream_output_adapter@D@__crt_stdio_output@@@__crt_stdio_output@@IEAA_NXZ 0000000140097590 f i libucrtd:output.obj
 0001:000965a0       ?should_skip_normal_state_processing@?$standard_base@DV?$string_output_adapter@D@__crt_stdio_output@@@__crt_stdio_output@@IEAA_NXZ 00000001400975a0 f i libucrtd:output.obj
 0001:000965b0       ?should_skip_normal_state_processing@?$standard_base@_WV?$stream_output_adapter@_W@__crt_stdio_output@@@__crt_stdio_output@@IEAA_NXZ 00000001400975b0 f i libucrtd:output.obj
 0001:000965c0       ?should_skip_normal_state_processing@?$standard_base@_WV?$string_output_adapter@_W@__crt_stdio_output@@@__crt_stdio_output@@IEAA_NXZ 00000001400975c0 f i libucrtd:output.obj
 0001:000965d0       ?should_skip_type_state_output@?$positional_parameter_base@DV?$stream_output_adapter@D@__crt_stdio_output@@@__crt_stdio_output@@IEBA_NXZ 00000001400975d0 f i libucrtd:output.obj
 0001:00096610       ?should_skip_type_state_output@?$positional_parameter_base@DV?$string_output_adapter@D@__crt_stdio_output@@@__crt_stdio_output@@IEBA_NXZ 0000000140097610 f i libucrtd:output.obj
 0001:00096650       ?should_skip_type_state_output@?$positional_parameter_base@_WV?$stream_output_adapter@_W@__crt_stdio_output@@@__crt_stdio_output@@IEBA_NXZ 0000000140097650 f i libucrtd:output.obj
 0001:00096690       ?should_skip_type_state_output@?$positional_parameter_base@_WV?$string_output_adapter@_W@__crt_stdio_output@@@__crt_stdio_output@@IEBA_NXZ 0000000140097690 f i libucrtd:output.obj
 0001:000966d0       ?should_skip_type_state_output@?$standard_base@DV?$stream_output_adapter@D@__crt_stdio_output@@@__crt_stdio_output@@IEBA_NXZ 00000001400976d0 f i libucrtd:output.obj
 0001:000966e0       ?should_skip_type_state_output@?$standard_base@DV?$string_output_adapter@D@__crt_stdio_output@@@__crt_stdio_output@@IEBA_NXZ 00000001400976e0 f i libucrtd:output.obj
 0001:000966f0       ?should_skip_type_state_output@?$standard_base@_WV?$stream_output_adapter@_W@__crt_stdio_output@@@__crt_stdio_output@@IEBA_NXZ 00000001400976f0 f i libucrtd:output.obj
 0001:00096700       ?should_skip_type_state_output@?$standard_base@_WV?$string_output_adapter@_W@__crt_stdio_output@@@__crt_stdio_output@@IEBA_NXZ 0000000140097700 f i libucrtd:output.obj
 0001:00096710       ?state_case_dot@?$output_processor@DV?$stream_output_adapter@D@__crt_stdio_output@@V?$format_validation_base@DV?$stream_output_adapter@D@__crt_stdio_output@@@2@@__crt_stdio_output@@AEAA_NXZ 0000000140097710 f i libucrtd:output.obj
 0001:00096730       ?state_case_dot@?$output_processor@DV?$stream_output_adapter@D@__crt_stdio_output@@V?$positional_parameter_base@DV?$stream_output_adapter@D@__crt_stdio_output@@@2@@__crt_stdio_output@@AEAA_NXZ 0000000140097730 f i libucrtd:output.obj
 0001:00096750       ?state_case_dot@?$output_processor@DV?$stream_output_adapter@D@__crt_stdio_output@@V?$standard_base@DV?$stream_output_adapter@D@__crt_stdio_output@@@2@@__crt_stdio_output@@AEAA_NXZ 0000000140097750 f i libucrtd:output.obj
 0001:00096770       ?state_case_dot@?$output_processor@DV?$string_output_adapter@D@__crt_stdio_output@@V?$format_validation_base@DV?$string_output_adapter@D@__crt_stdio_output@@@2@@__crt_stdio_output@@AEAA_NXZ 0000000140097770 f i libucrtd:output.obj
 0001:00096790       ?state_case_dot@?$output_processor@DV?$string_output_adapter@D@__crt_stdio_output@@V?$positional_parameter_base@DV?$string_output_adapter@D@__crt_stdio_output@@@2@@__crt_stdio_output@@AEAA_NXZ 0000000140097790 f i libucrtd:output.obj
 0001:000967b0       ?state_case_dot@?$output_processor@DV?$string_output_adapter@D@__crt_stdio_output@@V?$standard_base@DV?$string_output_adapter@D@__crt_stdio_output@@@2@@__crt_stdio_output@@AEAA_NXZ 00000001400977b0 f i libucrtd:output.obj
 0001:000967d0       ?state_case_dot@?$output_processor@_WV?$stream_output_adapter@_W@__crt_stdio_output@@V?$format_validation_base@_WV?$stream_output_adapter@_W@__crt_stdio_output@@@2@@__crt_stdio_output@@AEAA_NXZ 00000001400977d0 f i libucrtd:output.obj
 0001:000967f0       ?state_case_dot@?$output_processor@_WV?$stream_output_adapter@_W@__crt_stdio_output@@V?$positional_parameter_base@_WV?$stream_output_adapter@_W@__crt_stdio_output@@@2@@__crt_stdio_output@@AEAA_NXZ 00000001400977f0 f i libucrtd:output.obj
 0001:00096810       ?state_case_dot@?$output_processor@_WV?$stream_output_adapter@_W@__crt_stdio_output@@V?$standard_base@_WV?$stream_output_adapter@_W@__crt_stdio_output@@@2@@__crt_stdio_output@@AEAA_NXZ 0000000140097810 f i libucrtd:output.obj
 0001:00096830       ?state_case_dot@?$output_processor@_WV?$string_output_adapter@_W@__crt_stdio_output@@V?$format_validation_base@_WV?$string_output_adapter@_W@__crt_stdio_output@@@2@@__crt_stdio_output@@AEAA_NXZ 0000000140097830 f i libucrtd:output.obj
 0001:00096850       ?state_case_dot@?$output_processor@_WV?$string_output_adapter@_W@__crt_stdio_output@@V?$positional_parameter_base@_WV?$string_output_adapter@_W@__crt_stdio_output@@@2@@__crt_stdio_output@@AEAA_NXZ 0000000140097850 f i libucrtd:output.obj
 0001:00096870       ?state_case_dot@?$output_processor@_WV?$string_output_adapter@_W@__crt_stdio_output@@V?$standard_base@_WV?$string_output_adapter@_W@__crt_stdio_output@@@2@@__crt_stdio_output@@AEAA_NXZ 0000000140097870 f i libucrtd:output.obj
 0001:00096890       ?state_case_flag@?$output_processor@DV?$stream_output_adapter@D@__crt_stdio_output@@V?$format_validation_base@DV?$stream_output_adapter@D@__crt_stdio_output@@@2@@__crt_stdio_output@@AEAA_NXZ 0000000140097890 f i libucrtd:output.obj
 0001:00096930       ?state_case_flag@?$output_processor@DV?$stream_output_adapter@D@__crt_stdio_output@@V?$positional_parameter_base@DV?$stream_output_adapter@D@__crt_stdio_output@@@2@@__crt_stdio_output@@AEAA_NXZ 0000000140097930 f i libucrtd:output.obj
 0001:000969d0       ?state_case_flag@?$output_processor@DV?$stream_output_adapter@D@__crt_stdio_output@@V?$standard_base@DV?$stream_output_adapter@D@__crt_stdio_output@@@2@@__crt_stdio_output@@AEAA_NXZ 00000001400979d0 f i libucrtd:output.obj
 0001:00096a70       ?state_case_flag@?$output_processor@DV?$string_output_adapter@D@__crt_stdio_output@@V?$format_validation_base@DV?$string_output_adapter@D@__crt_stdio_output@@@2@@__crt_stdio_output@@AEAA_NXZ 0000000140097a70 f i libucrtd:output.obj
 0001:00096b10       ?state_case_flag@?$output_processor@DV?$string_output_adapter@D@__crt_stdio_output@@V?$positional_parameter_base@DV?$string_output_adapter@D@__crt_stdio_output@@@2@@__crt_stdio_output@@AEAA_NXZ 0000000140097b10 f i libucrtd:output.obj
 0001:00096bb0       ?state_case_flag@?$output_processor@DV?$string_output_adapter@D@__crt_stdio_output@@V?$standard_base@DV?$string_output_adapter@D@__crt_stdio_output@@@2@@__crt_stdio_output@@AEAA_NXZ 0000000140097bb0 f i libucrtd:output.obj
 0001:00096c50       ?state_case_flag@?$output_processor@_WV?$stream_output_adapter@_W@__crt_stdio_output@@V?$format_validation_base@_WV?$stream_output_adapter@_W@__crt_stdio_output@@@2@@__crt_stdio_output@@AEAA_NXZ 0000000140097c50 f i libucrtd:output.obj
 0001:00096cf0       ?state_case_flag@?$output_processor@_WV?$stream_output_adapter@_W@__crt_stdio_output@@V?$positional_parameter_base@_WV?$stream_output_adapter@_W@__crt_stdio_output@@@2@@__crt_stdio_output@@AEAA_NXZ 0000000140097cf0 f i libucrtd:output.obj
 0001:00096d90       ?state_case_flag@?$output_processor@_WV?$stream_output_adapter@_W@__crt_stdio_output@@V?$standard_base@_WV?$stream_output_adapter@_W@__crt_stdio_output@@@2@@__crt_stdio_output@@AEAA_NXZ 0000000140097d90 f i libucrtd:output.obj
 0001:00096e30       ?state_case_flag@?$output_processor@_WV?$string_output_adapter@_W@__crt_stdio_output@@V?$format_validation_base@_WV?$string_output_adapter@_W@__crt_stdio_output@@@2@@__crt_stdio_output@@AEAA_NXZ 0000000140097e30 f i libucrtd:output.obj
 0001:00096ed0       ?state_case_flag@?$output_processor@_WV?$string_output_adapter@_W@__crt_stdio_output@@V?$positional_parameter_base@_WV?$string_output_adapter@_W@__crt_stdio_output@@@2@@__crt_stdio_output@@AEAA_NXZ 0000000140097ed0 f i libucrtd:output.obj
 0001:00096f70       ?state_case_flag@?$output_processor@_WV?$string_output_adapter@_W@__crt_stdio_output@@V?$standard_base@_WV?$string_output_adapter@_W@__crt_stdio_output@@@2@@__crt_stdio_output@@AEAA_NXZ 0000000140097f70 f i libucrtd:output.obj
 0001:00097010       ?state_case_normal@?$output_processor@DV?$stream_output_adapter@D@__crt_stdio_output@@V?$format_validation_base@DV?$stream_output_adapter@D@__crt_stdio_output@@@2@@__crt_stdio_output@@AEAA_NXZ 0000000140098010 f i libucrtd:output.obj
 0001:00097110       ?state_case_normal@?$output_processor@DV?$stream_output_adapter@D@__crt_stdio_output@@V?$positional_parameter_base@DV?$stream_output_adapter@D@__crt_stdio_output@@@2@@__crt_stdio_output@@AEAA_NXZ 0000000140098110 f i libucrtd:output.obj
 0001:00097210       ?state_case_normal@?$output_processor@DV?$stream_output_adapter@D@__crt_stdio_output@@V?$standard_base@DV?$stream_output_adapter@D@__crt_stdio_output@@@2@@__crt_stdio_output@@AEAA_NXZ 0000000140098210 f i libucrtd:output.obj
 0001:00097310       ?state_case_normal@?$output_processor@DV?$string_output_adapter@D@__crt_stdio_output@@V?$format_validation_base@DV?$string_output_adapter@D@__crt_stdio_output@@@2@@__crt_stdio_output@@AEAA_NXZ 0000000140098310 f i libucrtd:output.obj
 0001:00097410       ?state_case_normal@?$output_processor@DV?$string_output_adapter@D@__crt_stdio_output@@V?$positional_parameter_base@DV?$string_output_adapter@D@__crt_stdio_output@@@2@@__crt_stdio_output@@AEAA_NXZ 0000000140098410 f i libucrtd:output.obj
 0001:00097510       ?state_case_normal@?$output_processor@DV?$string_output_adapter@D@__crt_stdio_output@@V?$standard_base@DV?$string_output_adapter@D@__crt_stdio_output@@@2@@__crt_stdio_output@@AEAA_NXZ 0000000140098510 f i libucrtd:output.obj
 0001:00097610       ?state_case_normal@?$output_processor@_WV?$stream_output_adapter@_W@__crt_stdio_output@@V?$format_validation_base@_WV?$stream_output_adapter@_W@__crt_stdio_output@@@2@@__crt_stdio_output@@AEAA_NXZ 0000000140098610 f i libucrtd:output.obj
 0001:00097710       ?state_case_normal@?$output_processor@_WV?$stream_output_adapter@_W@__crt_stdio_output@@V?$positional_parameter_base@_WV?$stream_output_adapter@_W@__crt_stdio_output@@@2@@__crt_stdio_output@@AEAA_NXZ 0000000140098710 f i libucrtd:output.obj
 0001:00097810       ?state_case_normal@?$output_processor@_WV?$stream_output_adapter@_W@__crt_stdio_output@@V?$standard_base@_WV?$stream_output_adapter@_W@__crt_stdio_output@@@2@@__crt_stdio_output@@AEAA_NXZ 0000000140098810 f i libucrtd:output.obj
 0001:00097910       ?state_case_normal@?$output_processor@_WV?$string_output_adapter@_W@__crt_stdio_output@@V?$format_validation_base@_WV?$string_output_adapter@_W@__crt_stdio_output@@@2@@__crt_stdio_output@@AEAA_NXZ 0000000140098910 f i libucrtd:output.obj
 0001:00097a10       ?state_case_normal@?$output_processor@_WV?$string_output_adapter@_W@__crt_stdio_output@@V?$positional_parameter_base@_WV?$string_output_adapter@_W@__crt_stdio_output@@@2@@__crt_stdio_output@@AEAA_NXZ 0000000140098a10 f i libucrtd:output.obj
 0001:00097b10       ?state_case_normal@?$output_processor@_WV?$string_output_adapter@_W@__crt_stdio_output@@V?$standard_base@_WV?$string_output_adapter@_W@__crt_stdio_output@@@2@@__crt_stdio_output@@AEAA_NXZ 0000000140098b10 f i libucrtd:output.obj
 0001:00097c10       ?state_case_normal_common@?$output_processor@DV?$stream_output_adapter@D@__crt_stdio_output@@V?$format_validation_base@DV?$stream_output_adapter@D@__crt_stdio_output@@@2@@__crt_stdio_output@@AEAA_NXZ 0000000140098c10 f i libucrtd:output.obj
 0001:00097c70       ?state_case_normal_common@?$output_processor@DV?$stream_output_adapter@D@__crt_stdio_output@@V?$positional_parameter_base@DV?$stream_output_adapter@D@__crt_stdio_output@@@2@@__crt_stdio_output@@AEAA_NXZ 0000000140098c70 f i libucrtd:output.obj
 0001:00097cd0       ?state_case_normal_common@?$output_processor@DV?$stream_output_adapter@D@__crt_stdio_output@@V?$standard_base@DV?$stream_output_adapter@D@__crt_stdio_output@@@2@@__crt_stdio_output@@AEAA_NXZ 0000000140098cd0 f i libucrtd:output.obj
 0001:00097d30       ?state_case_normal_common@?$output_processor@DV?$string_output_adapter@D@__crt_stdio_output@@V?$format_validation_base@DV?$string_output_adapter@D@__crt_stdio_output@@@2@@__crt_stdio_output@@AEAA_NXZ 0000000140098d30 f i libucrtd:output.obj
 0001:00097d90       ?state_case_normal_common@?$output_processor@DV?$string_output_adapter@D@__crt_stdio_output@@V?$positional_parameter_base@DV?$string_output_adapter@D@__crt_stdio_output@@@2@@__crt_stdio_output@@AEAA_NXZ 0000000140098d90 f i libucrtd:output.obj
 0001:00097df0       ?state_case_normal_common@?$output_processor@DV?$string_output_adapter@D@__crt_stdio_output@@V?$standard_base@DV?$string_output_adapter@D@__crt_stdio_output@@@2@@__crt_stdio_output@@AEAA_NXZ 0000000140098df0 f i libucrtd:output.obj
 0001:00097e50       ?state_case_normal_common@?$output_processor@_WV?$stream_output_adapter@_W@__crt_stdio_output@@V?$format_validation_base@_WV?$stream_output_adapter@_W@__crt_stdio_output@@@2@@__crt_stdio_output@@AEAA_NXZ 0000000140098e50 f i libucrtd:output.obj
 0001:00097eb0       ?state_case_normal_common@?$output_processor@_WV?$stream_output_adapter@_W@__crt_stdio_output@@V?$positional_parameter_base@_WV?$stream_output_adapter@_W@__crt_stdio_output@@@2@@__crt_stdio_output@@AEAA_NXZ 0000000140098eb0 f i libucrtd:output.obj
 0001:00097f10       ?state_case_normal_common@?$output_processor@_WV?$stream_output_adapter@_W@__crt_stdio_output@@V?$standard_base@_WV?$stream_output_adapter@_W@__crt_stdio_output@@@2@@__crt_stdio_output@@AEAA_NXZ 0000000140098f10 f i libucrtd:output.obj
 0001:00097f70       ?state_case_normal_common@?$output_processor@_WV?$string_output_adapter@_W@__crt_stdio_output@@V?$format_validation_base@_WV?$string_output_adapter@_W@__crt_stdio_output@@@2@@__crt_stdio_output@@AEAA_NXZ 0000000140098f70 f i libucrtd:output.obj
 0001:00097fd0       ?state_case_normal_common@?$output_processor@_WV?$string_output_adapter@_W@__crt_stdio_output@@V?$positional_parameter_base@_WV?$string_output_adapter@_W@__crt_stdio_output@@@2@@__crt_stdio_output@@AEAA_NXZ 0000000140098fd0 f i libucrtd:output.obj
 0001:00098030       ?state_case_normal_common@?$output_processor@_WV?$string_output_adapter@_W@__crt_stdio_output@@V?$standard_base@_WV?$string_output_adapter@_W@__crt_stdio_output@@@2@@__crt_stdio_output@@AEAA_NXZ 0000000140099030 f i libucrtd:output.obj
 0001:00098090       ?state_case_normal_tchar@?$output_processor@DV?$stream_output_adapter@D@__crt_stdio_output@@V?$format_validation_base@DV?$stream_output_adapter@D@__crt_stdio_output@@@2@@__crt_stdio_output@@AEAA_ND@Z 0000000140099090 f i libucrtd:output.obj
 0001:00098220       ?state_case_normal_tchar@?$output_processor@DV?$stream_output_adapter@D@__crt_stdio_output@@V?$positional_parameter_base@DV?$stream_output_adapter@D@__crt_stdio_output@@@2@@__crt_stdio_output@@AEAA_ND@Z 0000000140099220 f i libucrtd:output.obj
 0001:000983b0       ?state_case_normal_tchar@?$output_processor@DV?$stream_output_adapter@D@__crt_stdio_output@@V?$standard_base@DV?$stream_output_adapter@D@__crt_stdio_output@@@2@@__crt_stdio_output@@AEAA_ND@Z 00000001400993b0 f i libucrtd:output.obj
 0001:00098540       ?state_case_normal_tchar@?$output_processor@DV?$string_output_adapter@D@__crt_stdio_output@@V?$format_validation_base@DV?$string_output_adapter@D@__crt_stdio_output@@@2@@__crt_stdio_output@@AEAA_ND@Z 0000000140099540 f i libucrtd:output.obj
 0001:000986d0       ?state_case_normal_tchar@?$output_processor@DV?$string_output_adapter@D@__crt_stdio_output@@V?$positional_parameter_base@DV?$string_output_adapter@D@__crt_stdio_output@@@2@@__crt_stdio_output@@AEAA_ND@Z 00000001400996d0 f i libucrtd:output.obj
 0001:00098860       ?state_case_normal_tchar@?$output_processor@DV?$string_output_adapter@D@__crt_stdio_output@@V?$standard_base@DV?$string_output_adapter@D@__crt_stdio_output@@@2@@__crt_stdio_output@@AEAA_ND@Z 0000000140099860 f i libucrtd:output.obj
 0001:000989f0       ?state_case_normal_tchar@?$output_processor@_WV?$stream_output_adapter@_W@__crt_stdio_output@@V?$format_validation_base@_WV?$stream_output_adapter@_W@__crt_stdio_output@@@2@@__crt_stdio_output@@AEAA_N_W@Z 00000001400999f0 f i libucrtd:output.obj
 0001:00098a10       ?state_case_normal_tchar@?$output_processor@_WV?$stream_output_adapter@_W@__crt_stdio_output@@V?$positional_parameter_base@_WV?$stream_output_adapter@_W@__crt_stdio_output@@@2@@__crt_stdio_output@@AEAA_N_W@Z 0000000140099a10 f i libucrtd:output.obj
 0001:00098a30       ?state_case_normal_tchar@?$output_processor@_WV?$stream_output_adapter@_W@__crt_stdio_output@@V?$standard_base@_WV?$stream_output_adapter@_W@__crt_stdio_output@@@2@@__crt_stdio_output@@AEAA_N_W@Z 0000000140099a30 f i libucrtd:output.obj
 0001:00098a50       ?state_case_normal_tchar@?$output_processor@_WV?$string_output_adapter@_W@__crt_stdio_output@@V?$format_validation_base@_WV?$string_output_adapter@_W@__crt_stdio_output@@@2@@__crt_stdio_output@@AEAA_N_W@Z 0000000140099a50 f i libucrtd:output.obj
 0001:00098a70       ?state_case_normal_tchar@?$output_processor@_WV?$string_output_adapter@_W@__crt_stdio_output@@V?$positional_parameter_base@_WV?$string_output_adapter@_W@__crt_stdio_output@@@2@@__crt_stdio_output@@AEAA_N_W@Z 0000000140099a70 f i libucrtd:output.obj
 0001:00098a90       ?state_case_normal_tchar@?$output_processor@_WV?$string_output_adapter@_W@__crt_stdio_output@@V?$standard_base@_WV?$string_output_adapter@_W@__crt_stdio_output@@@2@@__crt_stdio_output@@AEAA_N_W@Z 0000000140099a90 f i libucrtd:output.obj
 0001:00098ab0       ?state_case_percent@?$output_processor@DV?$stream_output_adapter@D@__crt_stdio_output@@V?$format_validation_base@DV?$stream_output_adapter@D@__crt_stdio_output@@@2@@__crt_stdio_output@@AEAA_NXZ 0000000140099ab0 f i libucrtd:output.obj
 0001:00098b00       ?state_case_percent@?$output_processor@DV?$stream_output_adapter@D@__crt_stdio_output@@V?$positional_parameter_base@DV?$stream_output_adapter@D@__crt_stdio_output@@@2@@__crt_stdio_output@@AEAA_NXZ 0000000140099b00 f i libucrtd:output.obj
 0001:00098b50       ?state_case_percent@?$output_processor@DV?$stream_output_adapter@D@__crt_stdio_output@@V?$standard_base@DV?$stream_output_adapter@D@__crt_stdio_output@@@2@@__crt_stdio_output@@AEAA_NXZ 0000000140099b50 f i libucrtd:output.obj
 0001:00098ba0       ?state_case_percent@?$output_processor@DV?$string_output_adapter@D@__crt_stdio_output@@V?$format_validation_base@DV?$string_output_adapter@D@__crt_stdio_output@@@2@@__crt_stdio_output@@AEAA_NXZ 0000000140099ba0 f i libucrtd:output.obj
 0001:00098bf0       ?state_case_percent@?$output_processor@DV?$string_output_adapter@D@__crt_stdio_output@@V?$positional_parameter_base@DV?$string_output_adapter@D@__crt_stdio_output@@@2@@__crt_stdio_output@@AEAA_NXZ 0000000140099bf0 f i libucrtd:output.obj
 0001:00098c40       ?state_case_percent@?$output_processor@DV?$string_output_adapter@D@__crt_stdio_output@@V?$standard_base@DV?$string_output_adapter@D@__crt_stdio_output@@@2@@__crt_stdio_output@@AEAA_NXZ 0000000140099c40 f i libucrtd:output.obj
 0001:00098c90       ?state_case_percent@?$output_processor@_WV?$stream_output_adapter@_W@__crt_stdio_output@@V?$format_validation_base@_WV?$stream_output_adapter@_W@__crt_stdio_output@@@2@@__crt_stdio_output@@AEAA_NXZ 0000000140099c90 f i libucrtd:output.obj
 0001:00098ce0       ?state_case_percent@?$output_processor@_WV?$stream_output_adapter@_W@__crt_stdio_output@@V?$positional_parameter_base@_WV?$stream_output_adapter@_W@__crt_stdio_output@@@2@@__crt_stdio_output@@AEAA_NXZ 0000000140099ce0 f i libucrtd:output.obj
 0001:00098d30       ?state_case_percent@?$output_processor@_WV?$stream_output_adapter@_W@__crt_stdio_output@@V?$standard_base@_WV?$stream_output_adapter@_W@__crt_stdio_output@@@2@@__crt_stdio_output@@AEAA_NXZ 0000000140099d30 f i libucrtd:output.obj
 0001:00098d80       ?state_case_percent@?$output_processor@_WV?$string_output_adapter@_W@__crt_stdio_output@@V?$format_validation_base@_WV?$string_output_adapter@_W@__crt_stdio_output@@@2@@__crt_stdio_output@@AEAA_NXZ 0000000140099d80 f i libucrtd:output.obj
 0001:00098dd0       ?state_case_percent@?$output_processor@_WV?$string_output_adapter@_W@__crt_stdio_output@@V?$positional_parameter_base@_WV?$string_output_adapter@_W@__crt_stdio_output@@@2@@__crt_stdio_output@@AEAA_NXZ 0000000140099dd0 f i libucrtd:output.obj
 0001:00098e20       ?state_case_percent@?$output_processor@_WV?$string_output_adapter@_W@__crt_stdio_output@@V?$standard_base@_WV?$string_output_adapter@_W@__crt_stdio_output@@@2@@__crt_stdio_output@@AEAA_NXZ 0000000140099e20 f i libucrtd:output.obj
 0001:00098e70       ?state_case_precision@?$output_processor@DV?$stream_output_adapter@D@__crt_stdio_output@@V?$format_validation_base@DV?$stream_output_adapter@D@__crt_stdio_output@@@2@@__crt_stdio_output@@AEAA_NXZ 0000000140099e70 f i libucrtd:output.obj
 0001:00098ef0       ?state_case_precision@?$output_processor@DV?$stream_output_adapter@D@__crt_stdio_output@@V?$positional_parameter_base@DV?$stream_output_adapter@D@__crt_stdio_output@@@2@@__crt_stdio_output@@AEAA_NXZ 0000000140099ef0 f i libucrtd:output.obj
 0001:00098f70       ?state_case_precision@?$output_processor@DV?$stream_output_adapter@D@__crt_stdio_output@@V?$standard_base@DV?$stream_output_adapter@D@__crt_stdio_output@@@2@@__crt_stdio_output@@AEAA_NXZ 0000000140099f70 f i libucrtd:output.obj
 0001:00098ff0       ?state_case_precision@?$output_processor@DV?$string_output_adapter@D@__crt_stdio_output@@V?$format_validation_base@DV?$string_output_adapter@D@__crt_stdio_output@@@2@@__crt_stdio_output@@AEAA_NXZ 0000000140099ff0 f i libucrtd:output.obj
 0001:00099070       ?state_case_precision@?$output_processor@DV?$string_output_adapter@D@__crt_stdio_output@@V?$positional_parameter_base@DV?$string_output_adapter@D@__crt_stdio_output@@@2@@__crt_stdio_output@@AEAA_NXZ 000000014009a070 f i libucrtd:output.obj
 0001:000990f0       ?state_case_precision@?$output_processor@DV?$string_output_adapter@D@__crt_stdio_output@@V?$standard_base@DV?$string_output_adapter@D@__crt_stdio_output@@@2@@__crt_stdio_output@@AEAA_NXZ 000000014009a0f0 f i libucrtd:output.obj
 0001:00099170       ?state_case_precision@?$output_processor@_WV?$stream_output_adapter@_W@__crt_stdio_output@@V?$format_validation_base@_WV?$stream_output_adapter@_W@__crt_stdio_output@@@2@@__crt_stdio_output@@AEAA_NXZ 000000014009a170 f i libucrtd:output.obj
 0001:000991f0       ?state_case_precision@?$output_processor@_WV?$stream_output_adapter@_W@__crt_stdio_output@@V?$positional_parameter_base@_WV?$stream_output_adapter@_W@__crt_stdio_output@@@2@@__crt_stdio_output@@AEAA_NXZ 000000014009a1f0 f i libucrtd:output.obj
 0001:00099270       ?state_case_precision@?$output_processor@_WV?$stream_output_adapter@_W@__crt_stdio_output@@V?$standard_base@_WV?$stream_output_adapter@_W@__crt_stdio_output@@@2@@__crt_stdio_output@@AEAA_NXZ 000000014009a270 f i libucrtd:output.obj
 0001:000992f0       ?state_case_precision@?$output_processor@_WV?$string_output_adapter@_W@__crt_stdio_output@@V?$format_validation_base@_WV?$string_output_adapter@_W@__crt_stdio_output@@@2@@__crt_stdio_output@@AEAA_NXZ 000000014009a2f0 f i libucrtd:output.obj
 0001:00099370       ?state_case_precision@?$output_processor@_WV?$string_output_adapter@_W@__crt_stdio_output@@V?$positional_parameter_base@_WV?$string_output_adapter@_W@__crt_stdio_output@@@2@@__crt_stdio_output@@AEAA_NXZ 000000014009a370 f i libucrtd:output.obj
 0001:000993f0       ?state_case_precision@?$output_processor@_WV?$string_output_adapter@_W@__crt_stdio_output@@V?$standard_base@_WV?$string_output_adapter@_W@__crt_stdio_output@@@2@@__crt_stdio_output@@AEAA_NXZ 000000014009a3f0 f i libucrtd:output.obj
 0001:00099470       ?state_case_size@?$output_processor@DV?$stream_output_adapter@D@__crt_stdio_output@@V?$format_validation_base@DV?$stream_output_adapter@D@__crt_stdio_output@@@2@@__crt_stdio_output@@AEAA_NXZ 000000014009a470 f i libucrtd:output.obj
 0001:00099930       ?state_case_size@?$output_processor@DV?$stream_output_adapter@D@__crt_stdio_output@@V?$positional_parameter_base@DV?$stream_output_adapter@D@__crt_stdio_output@@@2@@__crt_stdio_output@@AEAA_NXZ 000000014009a930 f i libucrtd:output.obj
 0001:00099df0       ?state_case_size@?$output_processor@DV?$stream_output_adapter@D@__crt_stdio_output@@V?$standard_base@DV?$stream_output_adapter@D@__crt_stdio_output@@@2@@__crt_stdio_output@@AEAA_NXZ 000000014009adf0 f i libucrtd:output.obj
 0001:0009a2b0       ?state_case_size@?$output_processor@DV?$string_output_adapter@D@__crt_stdio_output@@V?$format_validation_base@DV?$string_output_adapter@D@__crt_stdio_output@@@2@@__crt_stdio_output@@AEAA_NXZ 000000014009b2b0 f i libucrtd:output.obj
 0001:0009a770       ?state_case_size@?$output_processor@DV?$string_output_adapter@D@__crt_stdio_output@@V?$positional_parameter_base@DV?$string_output_adapter@D@__crt_stdio_output@@@2@@__crt_stdio_output@@AEAA_NXZ 000000014009b770 f i libucrtd:output.obj
 0001:0009ac30       ?state_case_size@?$output_processor@DV?$string_output_adapter@D@__crt_stdio_output@@V?$standard_base@DV?$string_output_adapter@D@__crt_stdio_output@@@2@@__crt_stdio_output@@AEAA_NXZ 000000014009bc30 f i libucrtd:output.obj
 0001:0009b0f0       ?state_case_size@?$output_processor@_WV?$stream_output_adapter@_W@__crt_stdio_output@@V?$format_validation_base@_WV?$stream_output_adapter@_W@__crt_stdio_output@@@2@@__crt_stdio_output@@AEAA_NXZ 000000014009c0f0 f i libucrtd:output.obj
 0001:0009b5b0       ?state_case_size@?$output_processor@_WV?$stream_output_adapter@_W@__crt_stdio_output@@V?$positional_parameter_base@_WV?$stream_output_adapter@_W@__crt_stdio_output@@@2@@__crt_stdio_output@@AEAA_NXZ 000000014009c5b0 f i libucrtd:output.obj
 0001:0009ba70       ?state_case_size@?$output_processor@_WV?$stream_output_adapter@_W@__crt_stdio_output@@V?$standard_base@_WV?$stream_output_adapter@_W@__crt_stdio_output@@@2@@__crt_stdio_output@@AEAA_NXZ 000000014009ca70 f i libucrtd:output.obj
 0001:0009bf30       ?state_case_size@?$output_processor@_WV?$string_output_adapter@_W@__crt_stdio_output@@V?$format_validation_base@_WV?$string_output_adapter@_W@__crt_stdio_output@@@2@@__crt_stdio_output@@AEAA_NXZ 000000014009cf30 f i libucrtd:output.obj
 0001:0009c3f0       ?state_case_size@?$output_processor@_WV?$string_output_adapter@_W@__crt_stdio_output@@V?$positional_parameter_base@_WV?$string_output_adapter@_W@__crt_stdio_output@@@2@@__crt_stdio_output@@AEAA_NXZ 000000014009d3f0 f i libucrtd:output.obj
 0001:0009c8b0       ?state_case_size@?$output_processor@_WV?$string_output_adapter@_W@__crt_stdio_output@@V?$standard_base@_WV?$string_output_adapter@_W@__crt_stdio_output@@@2@@__crt_stdio_output@@AEAA_NXZ 000000014009d8b0 f i libucrtd:output.obj
 0001:0009cd70       ?state_case_type@?$output_processor@DV?$stream_output_adapter@D@__crt_stdio_output@@V?$format_validation_base@DV?$stream_output_adapter@D@__crt_stdio_output@@@2@@__crt_stdio_output@@AEAA_NXZ 000000014009dd70 f i libucrtd:output.obj
 0001:0009d230       ?state_case_type@?$output_processor@DV?$stream_output_adapter@D@__crt_stdio_output@@V?$positional_parameter_base@DV?$stream_output_adapter@D@__crt_stdio_output@@@2@@__crt_stdio_output@@AEAA_NXZ 000000014009e230 f i libucrtd:output.obj
 0001:0009d6f0       ?state_case_type@?$output_processor@DV?$stream_output_adapter@D@__crt_stdio_output@@V?$standard_base@DV?$stream_output_adapter@D@__crt_stdio_output@@@2@@__crt_stdio_output@@AEAA_NXZ 000000014009e6f0 f i libucrtd:output.obj
 0001:0009dbb0       ?state_case_type@?$output_processor@DV?$string_output_adapter@D@__crt_stdio_output@@V?$format_validation_base@DV?$string_output_adapter@D@__crt_stdio_output@@@2@@__crt_stdio_output@@AEAA_NXZ 000000014009ebb0 f i libucrtd:output.obj
 0001:0009e070       ?state_case_type@?$output_processor@DV?$string_output_adapter@D@__crt_stdio_output@@V?$positional_parameter_base@DV?$string_output_adapter@D@__crt_stdio_output@@@2@@__crt_stdio_output@@AEAA_NXZ 000000014009f070 f i libucrtd:output.obj
 0001:0009e530       ?state_case_type@?$output_processor@DV?$string_output_adapter@D@__crt_stdio_output@@V?$standard_base@DV?$string_output_adapter@D@__crt_stdio_output@@@2@@__crt_stdio_output@@AEAA_NXZ 000000014009f530 f i libucrtd:output.obj
 0001:0009e9f0       ?state_case_type@?$output_processor@_WV?$stream_output_adapter@_W@__crt_stdio_output@@V?$format_validation_base@_WV?$stream_output_adapter@_W@__crt_stdio_output@@@2@@__crt_stdio_output@@AEAA_NXZ 000000014009f9f0 f i libucrtd:output.obj
 0001:0009ef80       ?state_case_type@?$output_processor@_WV?$stream_output_adapter@_W@__crt_stdio_output@@V?$positional_parameter_base@_WV?$stream_output_adapter@_W@__crt_stdio_output@@@2@@__crt_stdio_output@@AEAA_NXZ 000000014009ff80 f i libucrtd:output.obj
 0001:0009f510       ?state_case_type@?$output_processor@_WV?$stream_output_adapter@_W@__crt_stdio_output@@V?$standard_base@_WV?$stream_output_adapter@_W@__crt_stdio_output@@@2@@__crt_stdio_output@@AEAA_NXZ 00000001400a0510 f i libucrtd:output.obj
 0001:0009faa0       ?state_case_type@?$output_processor@_WV?$string_output_adapter@_W@__crt_stdio_output@@V?$format_validation_base@_WV?$string_output_adapter@_W@__crt_stdio_output@@@2@@__crt_stdio_output@@AEAA_NXZ 00000001400a0aa0 f i libucrtd:output.obj
 0001:000a0030       ?state_case_type@?$output_processor@_WV?$string_output_adapter@_W@__crt_stdio_output@@V?$positional_parameter_base@_WV?$string_output_adapter@_W@__crt_stdio_output@@@2@@__crt_stdio_output@@AEAA_NXZ 00000001400a1030 f i libucrtd:output.obj
 0001:000a05c0       ?state_case_type@?$output_processor@_WV?$string_output_adapter@_W@__crt_stdio_output@@V?$standard_base@_WV?$string_output_adapter@_W@__crt_stdio_output@@@2@@__crt_stdio_output@@AEAA_NXZ 00000001400a15c0 f i libucrtd:output.obj
 0001:000a0b50       ?state_case_width@?$output_processor@DV?$stream_output_adapter@D@__crt_stdio_output@@V?$format_validation_base@DV?$stream_output_adapter@D@__crt_stdio_output@@@2@@__crt_stdio_output@@AEAA_NXZ 00000001400a1b50 f i libucrtd:output.obj
 0001:000a0be0       ?state_case_width@?$output_processor@DV?$stream_output_adapter@D@__crt_stdio_output@@V?$positional_parameter_base@DV?$stream_output_adapter@D@__crt_stdio_output@@@2@@__crt_stdio_output@@AEAA_NXZ 00000001400a1be0 f i libucrtd:output.obj
 0001:000a0c70       ?state_case_width@?$output_processor@DV?$stream_output_adapter@D@__crt_stdio_output@@V?$standard_base@DV?$stream_output_adapter@D@__crt_stdio_output@@@2@@__crt_stdio_output@@AEAA_NXZ 00000001400a1c70 f i libucrtd:output.obj
 0001:000a0d00       ?state_case_width@?$output_processor@DV?$string_output_adapter@D@__crt_stdio_output@@V?$format_validation_base@DV?$string_output_adapter@D@__crt_stdio_output@@@2@@__crt_stdio_output@@AEAA_NXZ 00000001400a1d00 f i libucrtd:output.obj
 0001:000a0d90       ?state_case_width@?$output_processor@DV?$string_output_adapter@D@__crt_stdio_output@@V?$positional_parameter_base@DV?$string_output_adapter@D@__crt_stdio_output@@@2@@__crt_stdio_output@@AEAA_NXZ 00000001400a1d90 f i libucrtd:output.obj
 0001:000a0e20       ?state_case_width@?$output_processor@DV?$string_output_adapter@D@__crt_stdio_output@@V?$standard_base@DV?$string_output_adapter@D@__crt_stdio_output@@@2@@__crt_stdio_output@@AEAA_NXZ 00000001400a1e20 f i libucrtd:output.obj
 0001:000a0eb0       ?state_case_width@?$output_processor@_WV?$stream_output_adapter@_W@__crt_stdio_output@@V?$format_validation_base@_WV?$stream_output_adapter@_W@__crt_stdio_output@@@2@@__crt_stdio_output@@AEAA_NXZ 00000001400a1eb0 f i libucrtd:output.obj
 0001:000a0f40       ?state_case_width@?$output_processor@_WV?$stream_output_adapter@_W@__crt_stdio_output@@V?$positional_parameter_base@_WV?$stream_output_adapter@_W@__crt_stdio_output@@@2@@__crt_stdio_output@@AEAA_NXZ 00000001400a1f40 f i libucrtd:output.obj
 0001:000a0fd0       ?state_case_width@?$output_processor@_WV?$stream_output_adapter@_W@__crt_stdio_output@@V?$standard_base@_WV?$stream_output_adapter@_W@__crt_stdio_output@@@2@@__crt_stdio_output@@AEAA_NXZ 00000001400a1fd0 f i libucrtd:output.obj
 0001:000a1060       ?state_case_width@?$output_processor@_WV?$string_output_adapter@_W@__crt_stdio_output@@V?$format_validation_base@_WV?$string_output_adapter@_W@__crt_stdio_output@@@2@@__crt_stdio_output@@AEAA_NXZ 00000001400a2060 f i libucrtd:output.obj
 0001:000a10f0       ?state_case_width@?$output_processor@_WV?$string_output_adapter@_W@__crt_stdio_output@@V?$positional_parameter_base@_WV?$string_output_adapter@_W@__crt_stdio_output@@@2@@__crt_stdio_output@@AEAA_NXZ 00000001400a20f0 f i libucrtd:output.obj
 0001:000a1180       ?state_case_width@?$output_processor@_WV?$string_output_adapter@_W@__crt_stdio_output@@V?$standard_base@_WV?$string_output_adapter@_W@__crt_stdio_output@@@2@@__crt_stdio_output@@AEAA_NXZ 00000001400a2180 f i libucrtd:output.obj
 0001:000a1210       ?state_count@?$format_validation_base@DV?$stream_output_adapter@D@__crt_stdio_output@@@__crt_stdio_output@@KAIXZ 00000001400a2210 f i libucrtd:output.obj
 0001:000a1220       ?state_count@?$format_validation_base@DV?$string_output_adapter@D@__crt_stdio_output@@@__crt_stdio_output@@KAIXZ 00000001400a2220 f i libucrtd:output.obj
 0001:000a1230       ?state_count@?$format_validation_base@_WV?$stream_output_adapter@_W@__crt_stdio_output@@@__crt_stdio_output@@KAIXZ 00000001400a2230 f i libucrtd:output.obj
 0001:000a1240       ?state_count@?$format_validation_base@_WV?$string_output_adapter@_W@__crt_stdio_output@@@__crt_stdio_output@@KAIXZ 00000001400a2240 f i libucrtd:output.obj
 0001:000a1250       ?state_count@?$standard_base@DV?$stream_output_adapter@D@__crt_stdio_output@@@__crt_stdio_output@@KAIXZ 00000001400a2250 f i libucrtd:output.obj
 0001:000a1260       ?state_count@?$standard_base@DV?$string_output_adapter@D@__crt_stdio_output@@@__crt_stdio_output@@KAIXZ 00000001400a2260 f i libucrtd:output.obj
 0001:000a1270       ?state_count@?$standard_base@_WV?$stream_output_adapter@_W@__crt_stdio_output@@@__crt_stdio_output@@KAIXZ 00000001400a2270 f i libucrtd:output.obj
 0001:000a1280       ?state_count@?$standard_base@_WV?$string_output_adapter@_W@__crt_stdio_output@@@__crt_stdio_output@@KAIXZ 00000001400a2280 f i libucrtd:output.obj
 0001:000a1290       ?state_transition_table@?$format_validation_base@DV?$stream_output_adapter@D@__crt_stdio_output@@@__crt_stdio_output@@KAAEBV?$spectre_mitigated_lookup_table@Ustate_transition_pair@__crt_stdio_output@@$0IA@@2@XZ 00000001400a2290 f i libucrtd:output.obj
 0001:000a12a0       ?state_transition_table@?$format_validation_base@DV?$string_output_adapter@D@__crt_stdio_output@@@__crt_stdio_output@@KAAEBV?$spectre_mitigated_lookup_table@Ustate_transition_pair@__crt_stdio_output@@$0IA@@2@XZ 00000001400a22a0 f i libucrtd:output.obj
 0001:000a12b0       ?state_transition_table@?$format_validation_base@_WV?$stream_output_adapter@_W@__crt_stdio_output@@@__crt_stdio_output@@KAAEBV?$spectre_mitigated_lookup_table@Ustate_transition_pair@__crt_stdio_output@@$0IA@@2@XZ 00000001400a22b0 f i libucrtd:output.obj
 0001:000a12c0       ?state_transition_table@?$format_validation_base@_WV?$string_output_adapter@_W@__crt_stdio_output@@@__crt_stdio_output@@KAAEBV?$spectre_mitigated_lookup_table@Ustate_transition_pair@__crt_stdio_output@@$0IA@@2@XZ 00000001400a22c0 f i libucrtd:output.obj
 0001:000a12d0       ?state_transition_table@?$standard_base@DV?$stream_output_adapter@D@__crt_stdio_output@@@__crt_stdio_output@@KAAEBV?$spectre_mitigated_lookup_table@Ustate_transition_pair@__crt_stdio_output@@$0IA@@2@XZ 00000001400a22d0 f i libucrtd:output.obj
 0001:000a12e0       ?state_transition_table@?$standard_base@DV?$string_output_adapter@D@__crt_stdio_output@@@__crt_stdio_output@@KAAEBV?$spectre_mitigated_lookup_table@Ustate_transition_pair@__crt_stdio_output@@$0IA@@2@XZ 00000001400a22e0 f i libucrtd:output.obj
 0001:000a12f0       ?state_transition_table@?$standard_base@_WV?$stream_output_adapter@_W@__crt_stdio_output@@@__crt_stdio_output@@KAAEBV?$spectre_mitigated_lookup_table@Ustate_transition_pair@__crt_stdio_output@@$0IA@@2@XZ 00000001400a22f0 f i libucrtd:output.obj
 0001:000a1300       ?state_transition_table@?$standard_base@_WV?$string_output_adapter@_W@__crt_stdio_output@@@__crt_stdio_output@@KAAEBV?$spectre_mitigated_lookup_table@Ustate_transition_pair@__crt_stdio_output@@$0IA@@2@XZ 00000001400a2300 f i libucrtd:output.obj
 0001:000a1310       ?tchar_string@?$common_data@D@__crt_stdio_output@@IEAAAEAPEADD@Z 00000001400a2310 f i libucrtd:output.obj
 0001:000a1330       ?tchar_string@?$common_data@D@__crt_stdio_output@@IEAAAEAPEADXZ 00000001400a2330 f i libucrtd:output.obj
 0001:000a1350       ?tchar_string@?$common_data@_W@__crt_stdio_output@@IEAAAEAPEA_WXZ 00000001400a2350 f i libucrtd:output.obj
 0001:000a1370       ?tchar_string@?$common_data@_W@__crt_stdio_output@@IEAAAEAPEA_W_W@Z 00000001400a2370 f i libucrtd:output.obj
 0001:000a1390       ?to_integer_size@__crt_stdio_output@@YA_KW4length_modifier@1@@Z 00000001400a2390 f i libucrtd:output.obj
 0001:000a1440       ?type_case_X@?$output_processor@DV?$stream_output_adapter@D@__crt_stdio_output@@V?$format_validation_base@DV?$stream_output_adapter@D@__crt_stdio_output@@@2@@__crt_stdio_output@@AEAA_NXZ 00000001400a2440 f i libucrtd:output.obj
 0001:000a1460       ?type_case_X@?$output_processor@DV?$stream_output_adapter@D@__crt_stdio_output@@V?$positional_parameter_base@DV?$stream_output_adapter@D@__crt_stdio_output@@@2@@__crt_stdio_output@@AEAA_NXZ 00000001400a2460 f i libucrtd:output.obj
 0001:000a1480       ?type_case_X@?$output_processor@DV?$stream_output_adapter@D@__crt_stdio_output@@V?$standard_base@DV?$stream_output_adapter@D@__crt_stdio_output@@@2@@__crt_stdio_output@@AEAA_NXZ 00000001400a2480 f i libucrtd:output.obj
 0001:000a14a0       ?type_case_X@?$output_processor@DV?$string_output_adapter@D@__crt_stdio_output@@V?$format_validation_base@DV?$string_output_adapter@D@__crt_stdio_output@@@2@@__crt_stdio_output@@AEAA_NXZ 00000001400a24a0 f i libucrtd:output.obj
 0001:000a14c0       ?type_case_X@?$output_processor@DV?$string_output_adapter@D@__crt_stdio_output@@V?$positional_parameter_base@DV?$string_output_adapter@D@__crt_stdio_output@@@2@@__crt_stdio_output@@AEAA_NXZ 00000001400a24c0 f i libucrtd:output.obj
 0001:000a14e0       ?type_case_X@?$output_processor@DV?$string_output_adapter@D@__crt_stdio_output@@V?$standard_base@DV?$string_output_adapter@D@__crt_stdio_output@@@2@@__crt_stdio_output@@AEAA_NXZ 00000001400a24e0 f i libucrtd:output.obj
 0001:000a1500       ?type_case_X@?$output_processor@_WV?$stream_output_adapter@_W@__crt_stdio_output@@V?$format_validation_base@_WV?$stream_output_adapter@_W@__crt_stdio_output@@@2@@__crt_stdio_output@@AEAA_NXZ 00000001400a2500 f i libucrtd:output.obj
 0001:000a1520       ?type_case_X@?$output_processor@_WV?$stream_output_adapter@_W@__crt_stdio_output@@V?$positional_parameter_base@_WV?$stream_output_adapter@_W@__crt_stdio_output@@@2@@__crt_stdio_output@@AEAA_NXZ 00000001400a2520 f i libucrtd:output.obj
 0001:000a1540       ?type_case_X@?$output_processor@_WV?$stream_output_adapter@_W@__crt_stdio_output@@V?$standard_base@_WV?$stream_output_adapter@_W@__crt_stdio_output@@@2@@__crt_stdio_output@@AEAA_NXZ 00000001400a2540 f i libucrtd:output.obj
 0001:000a1560       ?type_case_X@?$output_processor@_WV?$string_output_adapter@_W@__crt_stdio_output@@V?$format_validation_base@_WV?$string_output_adapter@_W@__crt_stdio_output@@@2@@__crt_stdio_output@@AEAA_NXZ 00000001400a2560 f i libucrtd:output.obj
 0001:000a1580       ?type_case_X@?$output_processor@_WV?$string_output_adapter@_W@__crt_stdio_output@@V?$positional_parameter_base@_WV?$string_output_adapter@_W@__crt_stdio_output@@@2@@__crt_stdio_output@@AEAA_NXZ 00000001400a2580 f i libucrtd:output.obj
 0001:000a15a0       ?type_case_X@?$output_processor@_WV?$string_output_adapter@_W@__crt_stdio_output@@V?$standard_base@_WV?$string_output_adapter@_W@__crt_stdio_output@@@2@@__crt_stdio_output@@AEAA_NXZ 00000001400a25a0 f i libucrtd:output.obj
 0001:000a15c0       ?type_case_Z@?$output_processor@DV?$stream_output_adapter@D@__crt_stdio_output@@V?$format_validation_base@DV?$stream_output_adapter@D@__crt_stdio_output@@@2@@__crt_stdio_output@@AEAA_NXZ 00000001400a25c0 f i libucrtd:output.obj
 0001:000a16e0       ?type_case_Z@?$output_processor@DV?$stream_output_adapter@D@__crt_stdio_output@@V?$positional_parameter_base@DV?$stream_output_adapter@D@__crt_stdio_output@@@2@@__crt_stdio_output@@AEAA_NXZ 00000001400a26e0 f i libucrtd:output.obj
 0001:000a1800       ?type_case_Z@?$output_processor@DV?$stream_output_adapter@D@__crt_stdio_output@@V?$standard_base@DV?$stream_output_adapter@D@__crt_stdio_output@@@2@@__crt_stdio_output@@AEAA_NXZ 00000001400a2800 f i libucrtd:output.obj
 0001:000a1920       ?type_case_Z@?$output_processor@DV?$string_output_adapter@D@__crt_stdio_output@@V?$format_validation_base@DV?$string_output_adapter@D@__crt_stdio_output@@@2@@__crt_stdio_output@@AEAA_NXZ 00000001400a2920 f i libucrtd:output.obj
 0001:000a1a40       ?type_case_Z@?$output_processor@DV?$string_output_adapter@D@__crt_stdio_output@@V?$positional_parameter_base@DV?$string_output_adapter@D@__crt_stdio_output@@@2@@__crt_stdio_output@@AEAA_NXZ 00000001400a2a40 f i libucrtd:output.obj
 0001:000a1b60       ?type_case_Z@?$output_processor@DV?$string_output_adapter@D@__crt_stdio_output@@V?$standard_base@DV?$string_output_adapter@D@__crt_stdio_output@@@2@@__crt_stdio_output@@AEAA_NXZ 00000001400a2b60 f i libucrtd:output.obj
 0001:000a1c80       ?type_case_Z@?$output_processor@_WV?$stream_output_adapter@_W@__crt_stdio_output@@V?$format_validation_base@_WV?$stream_output_adapter@_W@__crt_stdio_output@@@2@@__crt_stdio_output@@AEAA_NXZ 00000001400a2c80 f i libucrtd:output.obj
 0001:000a1da0       ?type_case_Z@?$output_processor@_WV?$stream_output_adapter@_W@__crt_stdio_output@@V?$positional_parameter_base@_WV?$stream_output_adapter@_W@__crt_stdio_output@@@2@@__crt_stdio_output@@AEAA_NXZ 00000001400a2da0 f i libucrtd:output.obj
 0001:000a1ec0       ?type_case_Z@?$output_processor@_WV?$stream_output_adapter@_W@__crt_stdio_output@@V?$standard_base@_WV?$stream_output_adapter@_W@__crt_stdio_output@@@2@@__crt_stdio_output@@AEAA_NXZ 00000001400a2ec0 f i libucrtd:output.obj
 0001:000a1fe0       ?type_case_Z@?$output_processor@_WV?$string_output_adapter@_W@__crt_stdio_output@@V?$format_validation_base@_WV?$string_output_adapter@_W@__crt_stdio_output@@@2@@__crt_stdio_output@@AEAA_NXZ 00000001400a2fe0 f i libucrtd:output.obj
 0001:000a2100       ?type_case_Z@?$output_processor@_WV?$string_output_adapter@_W@__crt_stdio_output@@V?$positional_parameter_base@_WV?$string_output_adapter@_W@__crt_stdio_output@@@2@@__crt_stdio_output@@AEAA_NXZ 00000001400a3100 f i libucrtd:output.obj
 0001:000a2220       ?type_case_Z@?$output_processor@_WV?$string_output_adapter@_W@__crt_stdio_output@@V?$standard_base@_WV?$string_output_adapter@_W@__crt_stdio_output@@@2@@__crt_stdio_output@@AEAA_NXZ 00000001400a3220 f i libucrtd:output.obj
 0001:000a2340       ?type_case_a@?$output_processor@DV?$stream_output_adapter@D@__crt_stdio_output@@V?$format_validation_base@DV?$stream_output_adapter@D@__crt_stdio_output@@@2@@__crt_stdio_output@@AEAA_NXZ 00000001400a3340 f i libucrtd:output.obj
 0001:000a27a0       ?type_case_a@?$output_processor@DV?$stream_output_adapter@D@__crt_stdio_output@@V?$positional_parameter_base@DV?$stream_output_adapter@D@__crt_stdio_output@@@2@@__crt_stdio_output@@AEAA_NXZ 00000001400a37a0 f i libucrtd:output.obj
 0001:000a2c00       ?type_case_a@?$output_processor@DV?$stream_output_adapter@D@__crt_stdio_output@@V?$standard_base@DV?$stream_output_adapter@D@__crt_stdio_output@@@2@@__crt_stdio_output@@AEAA_NXZ 00000001400a3c00 f i libucrtd:output.obj
 0001:000a3060       ?type_case_a@?$output_processor@DV?$string_output_adapter@D@__crt_stdio_output@@V?$format_validation_base@DV?$string_output_adapter@D@__crt_stdio_output@@@2@@__crt_stdio_output@@AEAA_NXZ 00000001400a4060 f i libucrtd:output.obj
 0001:000a34c0       ?type_case_a@?$output_processor@DV?$string_output_adapter@D@__crt_stdio_output@@V?$positional_parameter_base@DV?$string_output_adapter@D@__crt_stdio_output@@@2@@__crt_stdio_output@@AEAA_NXZ 00000001400a44c0 f i libucrtd:output.obj
 0001:000a3920       ?type_case_a@?$output_processor@DV?$string_output_adapter@D@__crt_stdio_output@@V?$standard_base@DV?$string_output_adapter@D@__crt_stdio_output@@@2@@__crt_stdio_output@@AEAA_NXZ 00000001400a4920 f i libucrtd:output.obj
 0001:000a3d80       ?type_case_a@?$output_processor@_WV?$stream_output_adapter@_W@__crt_stdio_output@@V?$format_validation_base@_WV?$stream_output_adapter@_W@__crt_stdio_output@@@2@@__crt_stdio_output@@AEAA_NXZ 00000001400a4d80 f i libucrtd:output.obj
 0001:000a41f0       ?type_case_a@?$output_processor@_WV?$stream_output_adapter@_W@__crt_stdio_output@@V?$positional_parameter_base@_WV?$stream_output_adapter@_W@__crt_stdio_output@@@2@@__crt_stdio_output@@AEAA_NXZ 00000001400a51f0 f i libucrtd:output.obj
 0001:000a4660       ?type_case_a@?$output_processor@_WV?$stream_output_adapter@_W@__crt_stdio_output@@V?$standard_base@_WV?$stream_output_adapter@_W@__crt_stdio_output@@@2@@__crt_stdio_output@@AEAA_NXZ 00000001400a5660 f i libucrtd:output.obj
 0001:000a4ad0       ?type_case_a@?$output_processor@_WV?$string_output_adapter@_W@__crt_stdio_output@@V?$format_validation_base@_WV?$string_output_adapter@_W@__crt_stdio_output@@@2@@__crt_stdio_output@@AEAA_NXZ 00000001400a5ad0 f i libucrtd:output.obj
 0001:000a4f40       ?type_case_a@?$output_processor@_WV?$string_output_adapter@_W@__crt_stdio_output@@V?$positional_parameter_base@_WV?$string_output_adapter@_W@__crt_stdio_output@@@2@@__crt_stdio_output@@AEAA_NXZ 00000001400a5f40 f i libucrtd:output.obj
 0001:000a53b0       ?type_case_a@?$output_processor@_WV?$string_output_adapter@_W@__crt_stdio_output@@V?$standard_base@_WV?$string_output_adapter@_W@__crt_stdio_output@@@2@@__crt_stdio_output@@AEAA_NXZ 00000001400a63b0 f i libucrtd:output.obj
 0001:000a5820       ?type_case_c@?$output_processor@DV?$stream_output_adapter@D@__crt_stdio_output@@V?$format_validation_base@DV?$stream_output_adapter@D@__crt_stdio_output@@@2@@__crt_stdio_output@@AEAA_NXZ 00000001400a6820 f i libucrtd:output.obj
 0001:000a5840       ?type_case_c@?$output_processor@DV?$stream_output_adapter@D@__crt_stdio_output@@V?$positional_parameter_base@DV?$stream_output_adapter@D@__crt_stdio_output@@@2@@__crt_stdio_output@@AEAA_NXZ 00000001400a6840 f i libucrtd:output.obj
 0001:000a5860       ?type_case_c@?$output_processor@DV?$stream_output_adapter@D@__crt_stdio_output@@V?$standard_base@DV?$stream_output_adapter@D@__crt_stdio_output@@@2@@__crt_stdio_output@@AEAA_NXZ 00000001400a6860 f i libucrtd:output.obj
 0001:000a5880       ?type_case_c@?$output_processor@DV?$string_output_adapter@D@__crt_stdio_output@@V?$format_validation_base@DV?$string_output_adapter@D@__crt_stdio_output@@@2@@__crt_stdio_output@@AEAA_NXZ 00000001400a6880 f i libucrtd:output.obj
 0001:000a58a0       ?type_case_c@?$output_processor@DV?$string_output_adapter@D@__crt_stdio_output@@V?$positional_parameter_base@DV?$string_output_adapter@D@__crt_stdio_output@@@2@@__crt_stdio_output@@AEAA_NXZ 00000001400a68a0 f i libucrtd:output.obj
 0001:000a58c0       ?type_case_c@?$output_processor@DV?$string_output_adapter@D@__crt_stdio_output@@V?$standard_base@DV?$string_output_adapter@D@__crt_stdio_output@@@2@@__crt_stdio_output@@AEAA_NXZ 00000001400a68c0 f i libucrtd:output.obj
 0001:000a58e0       ?type_case_c@?$output_processor@_WV?$stream_output_adapter@_W@__crt_stdio_output@@V?$format_validation_base@_WV?$stream_output_adapter@_W@__crt_stdio_output@@@2@@__crt_stdio_output@@AEAA_NXZ 00000001400a68e0 f i libucrtd:output.obj
 0001:000a5900       ?type_case_c@?$output_processor@_WV?$stream_output_adapter@_W@__crt_stdio_output@@V?$positional_parameter_base@_WV?$stream_output_adapter@_W@__crt_stdio_output@@@2@@__crt_stdio_output@@AEAA_NXZ 00000001400a6900 f i libucrtd:output.obj
 0001:000a5920       ?type_case_c@?$output_processor@_WV?$stream_output_adapter@_W@__crt_stdio_output@@V?$standard_base@_WV?$stream_output_adapter@_W@__crt_stdio_output@@@2@@__crt_stdio_output@@AEAA_NXZ 00000001400a6920 f i libucrtd:output.obj
 0001:000a5940       ?type_case_c@?$output_processor@_WV?$string_output_adapter@_W@__crt_stdio_output@@V?$format_validation_base@_WV?$string_output_adapter@_W@__crt_stdio_output@@@2@@__crt_stdio_output@@AEAA_NXZ 00000001400a6940 f i libucrtd:output.obj
 0001:000a5960       ?type_case_c@?$output_processor@_WV?$string_output_adapter@_W@__crt_stdio_output@@V?$positional_parameter_base@_WV?$string_output_adapter@_W@__crt_stdio_output@@@2@@__crt_stdio_output@@AEAA_NXZ 00000001400a6960 f i libucrtd:output.obj
 0001:000a5980       ?type_case_c@?$output_processor@_WV?$string_output_adapter@_W@__crt_stdio_output@@V?$standard_base@_WV?$string_output_adapter@_W@__crt_stdio_output@@@2@@__crt_stdio_output@@AEAA_NXZ 00000001400a6980 f i libucrtd:output.obj
 0001:000a59a0       ?type_case_c_tchar@?$output_processor@DV?$stream_output_adapter@D@__crt_stdio_output@@V?$format_validation_base@DV?$stream_output_adapter@D@__crt_stdio_output@@@2@@__crt_stdio_output@@AEAA_ND@Z 00000001400a69a0 f i libucrtd:output.obj
 0001:000a5b10       ?type_case_c_tchar@?$output_processor@DV?$stream_output_adapter@D@__crt_stdio_output@@V?$positional_parameter_base@DV?$stream_output_adapter@D@__crt_stdio_output@@@2@@__crt_stdio_output@@AEAA_ND@Z 00000001400a6b10 f i libucrtd:output.obj
 0001:000a5c80       ?type_case_c_tchar@?$output_processor@DV?$stream_output_adapter@D@__crt_stdio_output@@V?$standard_base@DV?$stream_output_adapter@D@__crt_stdio_output@@@2@@__crt_stdio_output@@AEAA_ND@Z 00000001400a6c80 f i libucrtd:output.obj
 0001:000a5df0       ?type_case_c_tchar@?$output_processor@DV?$string_output_adapter@D@__crt_stdio_output@@V?$format_validation_base@DV?$string_output_adapter@D@__crt_stdio_output@@@2@@__crt_stdio_output@@AEAA_ND@Z 00000001400a6df0 f i libucrtd:output.obj
 0001:000a5f60       ?type_case_c_tchar@?$output_processor@DV?$string_output_adapter@D@__crt_stdio_output@@V?$positional_parameter_base@DV?$string_output_adapter@D@__crt_stdio_output@@@2@@__crt_stdio_output@@AEAA_ND@Z 00000001400a6f60 f i libucrtd:output.obj
 0001:000a60d0       ?type_case_c_tchar@?$output_processor@DV?$string_output_adapter@D@__crt_stdio_output@@V?$standard_base@DV?$string_output_adapter@D@__crt_stdio_output@@@2@@__crt_stdio_output@@AEAA_ND@Z 00000001400a70d0 f i libucrtd:output.obj
 0001:000a6240       ?type_case_c_tchar@?$output_processor@_WV?$stream_output_adapter@_W@__crt_stdio_output@@V?$format_validation_base@_WV?$stream_output_adapter@_W@__crt_stdio_output@@@2@@__crt_stdio_output@@AEAA_N_W@Z 00000001400a7240 f i libucrtd:output.obj
 0001:000a63a0       ?type_case_c_tchar@?$output_processor@_WV?$stream_output_adapter@_W@__crt_stdio_output@@V?$positional_parameter_base@_WV?$stream_output_adapter@_W@__crt_stdio_output@@@2@@__crt_stdio_output@@AEAA_N_W@Z 00000001400a73a0 f i libucrtd:output.obj
 0001:000a6500       ?type_case_c_tchar@?$output_processor@_WV?$stream_output_adapter@_W@__crt_stdio_output@@V?$standard_base@_WV?$stream_output_adapter@_W@__crt_stdio_output@@@2@@__crt_stdio_output@@AEAA_N_W@Z 00000001400a7500 f i libucrtd:output.obj
 0001:000a6660       ?type_case_c_tchar@?$output_processor@_WV?$string_output_adapter@_W@__crt_stdio_output@@V?$format_validation_base@_WV?$string_output_adapter@_W@__crt_stdio_output@@@2@@__crt_stdio_output@@AEAA_N_W@Z 00000001400a7660 f i libucrtd:output.obj
 0001:000a67c0       ?type_case_c_tchar@?$output_processor@_WV?$string_output_adapter@_W@__crt_stdio_output@@V?$positional_parameter_base@_WV?$string_output_adapter@_W@__crt_stdio_output@@@2@@__crt_stdio_output@@AEAA_N_W@Z 00000001400a77c0 f i libucrtd:output.obj
 0001:000a6920       ?type_case_c_tchar@?$output_processor@_WV?$string_output_adapter@_W@__crt_stdio_output@@V?$standard_base@_WV?$string_output_adapter@_W@__crt_stdio_output@@@2@@__crt_stdio_output@@AEAA_N_W@Z 00000001400a7920 f i libucrtd:output.obj
 0001:000a6a80       ?type_case_d@?$output_processor@DV?$stream_output_adapter@D@__crt_stdio_output@@V?$format_validation_base@DV?$stream_output_adapter@D@__crt_stdio_output@@@2@@__crt_stdio_output@@AEAA_NXZ 00000001400a7a80 f i libucrtd:output.obj
 0001:000a6ab0       ?type_case_d@?$output_processor@DV?$stream_output_adapter@D@__crt_stdio_output@@V?$positional_parameter_base@DV?$stream_output_adapter@D@__crt_stdio_output@@@2@@__crt_stdio_output@@AEAA_NXZ 00000001400a7ab0 f i libucrtd:output.obj
 0001:000a6ae0       ?type_case_d@?$output_processor@DV?$stream_output_adapter@D@__crt_stdio_output@@V?$standard_base@DV?$stream_output_adapter@D@__crt_stdio_output@@@2@@__crt_stdio_output@@AEAA_NXZ 00000001400a7ae0 f i libucrtd:output.obj
 0001:000a6b10       ?type_case_d@?$output_processor@DV?$string_output_adapter@D@__crt_stdio_output@@V?$format_validation_base@DV?$string_output_adapter@D@__crt_stdio_output@@@2@@__crt_stdio_output@@AEAA_NXZ 00000001400a7b10 f i libucrtd:output.obj
 0001:000a6b40       ?type_case_d@?$output_processor@DV?$string_output_adapter@D@__crt_stdio_output@@V?$positional_parameter_base@DV?$string_output_adapter@D@__crt_stdio_output@@@2@@__crt_stdio_output@@AEAA_NXZ 00000001400a7b40 f i libucrtd:output.obj
 0001:000a6b70       ?type_case_d@?$output_processor@DV?$string_output_adapter@D@__crt_stdio_output@@V?$standard_base@DV?$string_output_adapter@D@__crt_stdio_output@@@2@@__crt_stdio_output@@AEAA_NXZ 00000001400a7b70 f i libucrtd:output.obj
 0001:000a6ba0       ?type_case_d@?$output_processor@_WV?$stream_output_adapter@_W@__crt_stdio_output@@V?$format_validation_base@_WV?$stream_output_adapter@_W@__crt_stdio_output@@@2@@__crt_stdio_output@@AEAA_NXZ 00000001400a7ba0 f i libucrtd:output.obj
 0001:000a6bd0       ?type_case_d@?$output_processor@_WV?$stream_output_adapter@_W@__crt_stdio_output@@V?$positional_parameter_base@_WV?$stream_output_adapter@_W@__crt_stdio_output@@@2@@__crt_stdio_output@@AEAA_NXZ 00000001400a7bd0 f i libucrtd:output.obj
 0001:000a6c00       ?type_case_d@?$output_processor@_WV?$stream_output_adapter@_W@__crt_stdio_output@@V?$standard_base@_WV?$stream_output_adapter@_W@__crt_stdio_output@@@2@@__crt_stdio_output@@AEAA_NXZ 00000001400a7c00 f i libucrtd:output.obj
 0001:000a6c30       ?type_case_d@?$output_processor@_WV?$string_output_adapter@_W@__crt_stdio_output@@V?$format_validation_base@_WV?$string_output_adapter@_W@__crt_stdio_output@@@2@@__crt_stdio_output@@AEAA_NXZ 00000001400a7c30 f i libucrtd:output.obj
 0001:000a6c60       ?type_case_d@?$output_processor@_WV?$string_output_adapter@_W@__crt_stdio_output@@V?$positional_parameter_base@_WV?$string_output_adapter@_W@__crt_stdio_output@@@2@@__crt_stdio_output@@AEAA_NXZ 00000001400a7c60 f i libucrtd:output.obj
 0001:000a6c90       ?type_case_d@?$output_processor@_WV?$string_output_adapter@_W@__crt_stdio_output@@V?$standard_base@_WV?$string_output_adapter@_W@__crt_stdio_output@@@2@@__crt_stdio_output@@AEAA_NXZ 00000001400a7c90 f i libucrtd:output.obj
 0001:000a6cc0       ?type_case_n@?$output_processor@DV?$stream_output_adapter@D@__crt_stdio_output@@V?$format_validation_base@DV?$stream_output_adapter@D@__crt_stdio_output@@@2@@__crt_stdio_output@@AEAA_NXZ 00000001400a7cc0 f i libucrtd:output.obj
 0001:000a6f50       ?type_case_n@?$output_processor@DV?$stream_output_adapter@D@__crt_stdio_output@@V?$positional_parameter_base@DV?$stream_output_adapter@D@__crt_stdio_output@@@2@@__crt_stdio_output@@AEAA_NXZ 00000001400a7f50 f i libucrtd:output.obj
 0001:000a71e0       ?type_case_n@?$output_processor@DV?$stream_output_adapter@D@__crt_stdio_output@@V?$standard_base@DV?$stream_output_adapter@D@__crt_stdio_output@@@2@@__crt_stdio_output@@AEAA_NXZ 00000001400a81e0 f i libucrtd:output.obj
 0001:000a7470       ?type_case_n@?$output_processor@DV?$string_output_adapter@D@__crt_stdio_output@@V?$format_validation_base@DV?$string_output_adapter@D@__crt_stdio_output@@@2@@__crt_stdio_output@@AEAA_NXZ 00000001400a8470 f i libucrtd:output.obj
 0001:000a7700       ?type_case_n@?$output_processor@DV?$string_output_adapter@D@__crt_stdio_output@@V?$positional_parameter_base@DV?$string_output_adapter@D@__crt_stdio_output@@@2@@__crt_stdio_output@@AEAA_NXZ 00000001400a8700 f i libucrtd:output.obj
 0001:000a7990       ?type_case_n@?$output_processor@DV?$string_output_adapter@D@__crt_stdio_output@@V?$standard_base@DV?$string_output_adapter@D@__crt_stdio_output@@@2@@__crt_stdio_output@@AEAA_NXZ 00000001400a8990 f i libucrtd:output.obj
 0001:000a7c20       ?type_case_n@?$output_processor@_WV?$stream_output_adapter@_W@__crt_stdio_output@@V?$format_validation_base@_WV?$stream_output_adapter@_W@__crt_stdio_output@@@2@@__crt_stdio_output@@AEAA_NXZ 00000001400a8c20 f i libucrtd:output.obj
 0001:000a7eb0       ?type_case_n@?$output_processor@_WV?$stream_output_adapter@_W@__crt_stdio_output@@V?$positional_parameter_base@_WV?$stream_output_adapter@_W@__crt_stdio_output@@@2@@__crt_stdio_output@@AEAA_NXZ 00000001400a8eb0 f i libucrtd:output.obj
 0001:000a8140       ?type_case_n@?$output_processor@_WV?$stream_output_adapter@_W@__crt_stdio_output@@V?$standard_base@_WV?$stream_output_adapter@_W@__crt_stdio_output@@@2@@__crt_stdio_output@@AEAA_NXZ 00000001400a9140 f i libucrtd:output.obj
 0001:000a83d0       ?type_case_n@?$output_processor@_WV?$string_output_adapter@_W@__crt_stdio_output@@V?$format_validation_base@_WV?$string_output_adapter@_W@__crt_stdio_output@@@2@@__crt_stdio_output@@AEAA_NXZ 00000001400a93d0 f i libucrtd:output.obj
 0001:000a8660       ?type_case_n@?$output_processor@_WV?$string_output_adapter@_W@__crt_stdio_output@@V?$positional_parameter_base@_WV?$string_output_adapter@_W@__crt_stdio_output@@@2@@__crt_stdio_output@@AEAA_NXZ 00000001400a9660 f i libucrtd:output.obj
 0001:000a88f0       ?type_case_n@?$output_processor@_WV?$string_output_adapter@_W@__crt_stdio_output@@V?$standard_base@_WV?$string_output_adapter@_W@__crt_stdio_output@@@2@@__crt_stdio_output@@AEAA_NXZ 00000001400a98f0 f i libucrtd:output.obj
 0001:000a8b80       ?type_case_o@?$output_processor@DV?$stream_output_adapter@D@__crt_stdio_output@@V?$format_validation_base@DV?$stream_output_adapter@D@__crt_stdio_output@@@2@@__crt_stdio_output@@AEAA_NXZ 00000001400a9b80 f i libucrtd:output.obj
 0001:000a8bc0       ?type_case_o@?$output_processor@DV?$stream_output_adapter@D@__crt_stdio_output@@V?$positional_parameter_base@DV?$stream_output_adapter@D@__crt_stdio_output@@@2@@__crt_stdio_output@@AEAA_NXZ 00000001400a9bc0 f i libucrtd:output.obj
 0001:000a8c00       ?type_case_o@?$output_processor@DV?$stream_output_adapter@D@__crt_stdio_output@@V?$standard_base@DV?$stream_output_adapter@D@__crt_stdio_output@@@2@@__crt_stdio_output@@AEAA_NXZ 00000001400a9c00 f i libucrtd:output.obj
 0001:000a8c40       ?type_case_o@?$output_processor@DV?$string_output_adapter@D@__crt_stdio_output@@V?$format_validation_base@DV?$string_output_adapter@D@__crt_stdio_output@@@2@@__crt_stdio_output@@AEAA_NXZ 00000001400a9c40 f i libucrtd:output.obj
 0001:000a8c80       ?type_case_o@?$output_processor@DV?$string_output_adapter@D@__crt_stdio_output@@V?$positional_parameter_base@DV?$string_output_adapter@D@__crt_stdio_output@@@2@@__crt_stdio_output@@AEAA_NXZ 00000001400a9c80 f i libucrtd:output.obj
 0001:000a8cc0       ?type_case_o@?$output_processor@DV?$string_output_adapter@D@__crt_stdio_output@@V?$standard_base@DV?$string_output_adapter@D@__crt_stdio_output@@@2@@__crt_stdio_output@@AEAA_NXZ 00000001400a9cc0 f i libucrtd:output.obj
 0001:000a8d00       ?type_case_o@?$output_processor@_WV?$stream_output_adapter@_W@__crt_stdio_output@@V?$format_validation_base@_WV?$stream_output_adapter@_W@__crt_stdio_output@@@2@@__crt_stdio_output@@AEAA_NXZ 00000001400a9d00 f i libucrtd:output.obj
 0001:000a8d40       ?type_case_o@?$output_processor@_WV?$stream_output_adapter@_W@__crt_stdio_output@@V?$positional_parameter_base@_WV?$stream_output_adapter@_W@__crt_stdio_output@@@2@@__crt_stdio_output@@AEAA_NXZ 00000001400a9d40 f i libucrtd:output.obj
 0001:000a8d80       ?type_case_o@?$output_processor@_WV?$stream_output_adapter@_W@__crt_stdio_output@@V?$standard_base@_WV?$stream_output_adapter@_W@__crt_stdio_output@@@2@@__crt_stdio_output@@AEAA_NXZ 00000001400a9d80 f i libucrtd:output.obj
 0001:000a8dc0       ?type_case_o@?$output_processor@_WV?$string_output_adapter@_W@__crt_stdio_output@@V?$format_validation_base@_WV?$string_output_adapter@_W@__crt_stdio_output@@@2@@__crt_stdio_output@@AEAA_NXZ 00000001400a9dc0 f i libucrtd:output.obj
 0001:000a8e00       ?type_case_o@?$output_processor@_WV?$string_output_adapter@_W@__crt_stdio_output@@V?$positional_parameter_base@_WV?$string_output_adapter@_W@__crt_stdio_output@@@2@@__crt_stdio_output@@AEAA_NXZ 00000001400a9e00 f i libucrtd:output.obj
 0001:000a8e40       ?type_case_o@?$output_processor@_WV?$string_output_adapter@_W@__crt_stdio_output@@V?$standard_base@_WV?$string_output_adapter@_W@__crt_stdio_output@@@2@@__crt_stdio_output@@AEAA_NXZ 00000001400a9e40 f i libucrtd:output.obj
 0001:000a8e80       ?type_case_p@?$output_processor@DV?$stream_output_adapter@D@__crt_stdio_output@@V?$format_validation_base@DV?$stream_output_adapter@D@__crt_stdio_output@@@2@@__crt_stdio_output@@AEAA_NXZ 00000001400a9e80 f i libucrtd:output.obj
 0001:000a8ec0       ?type_case_p@?$output_processor@DV?$stream_output_adapter@D@__crt_stdio_output@@V?$positional_parameter_base@DV?$stream_output_adapter@D@__crt_stdio_output@@@2@@__crt_stdio_output@@AEAA_NXZ 00000001400a9ec0 f i libucrtd:output.obj
 0001:000a8f00       ?type_case_p@?$output_processor@DV?$stream_output_adapter@D@__crt_stdio_output@@V?$standard_base@DV?$stream_output_adapter@D@__crt_stdio_output@@@2@@__crt_stdio_output@@AEAA_NXZ 00000001400a9f00 f i libucrtd:output.obj
 0001:000a8f40       ?type_case_p@?$output_processor@DV?$string_output_adapter@D@__crt_stdio_output@@V?$format_validation_base@DV?$string_output_adapter@D@__crt_stdio_output@@@2@@__crt_stdio_output@@AEAA_NXZ 00000001400a9f40 f i libucrtd:output.obj
 0001:000a8f80       ?type_case_p@?$output_processor@DV?$string_output_adapter@D@__crt_stdio_output@@V?$positional_parameter_base@DV?$string_output_adapter@D@__crt_stdio_output@@@2@@__crt_stdio_output@@AEAA_NXZ 00000001400a9f80 f i libucrtd:output.obj
 0001:000a8fc0       ?type_case_p@?$output_processor@DV?$string_output_adapter@D@__crt_stdio_output@@V?$standard_base@DV?$string_output_adapter@D@__crt_stdio_output@@@2@@__crt_stdio_output@@AEAA_NXZ 00000001400a9fc0 f i libucrtd:output.obj
 0001:000a9000       ?type_case_p@?$output_processor@_WV?$stream_output_adapter@_W@__crt_stdio_output@@V?$format_validation_base@_WV?$stream_output_adapter@_W@__crt_stdio_output@@@2@@__crt_stdio_output@@AEAA_NXZ 00000001400aa000 f i libucrtd:output.obj
 0001:000a9040       ?type_case_p@?$output_processor@_WV?$stream_output_adapter@_W@__crt_stdio_output@@V?$positional_parameter_base@_WV?$stream_output_adapter@_W@__crt_stdio_output@@@2@@__crt_stdio_output@@AEAA_NXZ 00000001400aa040 f i libucrtd:output.obj
 0001:000a9080       ?type_case_p@?$output_processor@_WV?$stream_output_adapter@_W@__crt_stdio_output@@V?$standard_base@_WV?$stream_output_adapter@_W@__crt_stdio_output@@@2@@__crt_stdio_output@@AEAA_NXZ 00000001400aa080 f i libucrtd:output.obj
 0001:000a90c0       ?type_case_p@?$output_processor@_WV?$string_output_adapter@_W@__crt_stdio_output@@V?$format_validation_base@_WV?$string_output_adapter@_W@__crt_stdio_output@@@2@@__crt_stdio_output@@AEAA_NXZ 00000001400aa0c0 f i libucrtd:output.obj
 0001:000a9100       ?type_case_p@?$output_processor@_WV?$string_output_adapter@_W@__crt_stdio_output@@V?$positional_parameter_base@_WV?$string_output_adapter@_W@__crt_stdio_output@@@2@@__crt_stdio_output@@AEAA_NXZ 00000001400aa100 f i libucrtd:output.obj
 0001:000a9140       ?type_case_p@?$output_processor@_WV?$string_output_adapter@_W@__crt_stdio_output@@V?$standard_base@_WV?$string_output_adapter@_W@__crt_stdio_output@@@2@@__crt_stdio_output@@AEAA_NXZ 00000001400aa140 f i libucrtd:output.obj
 0001:000a9180       ?type_case_s@?$output_processor@DV?$stream_output_adapter@D@__crt_stdio_output@@V?$format_validation_base@DV?$stream_output_adapter@D@__crt_stdio_output@@@2@@__crt_stdio_output@@AEAA_NXZ 00000001400aa180 f i libucrtd:output.obj
 0001:000a92a0       ?type_case_s@?$output_processor@DV?$stream_output_adapter@D@__crt_stdio_output@@V?$positional_parameter_base@DV?$stream_output_adapter@D@__crt_stdio_output@@@2@@__crt_stdio_output@@AEAA_NXZ 00000001400aa2a0 f i libucrtd:output.obj
 0001:000a93c0       ?type_case_s@?$output_processor@DV?$stream_output_adapter@D@__crt_stdio_output@@V?$standard_base@DV?$stream_output_adapter@D@__crt_stdio_output@@@2@@__crt_stdio_output@@AEAA_NXZ 00000001400aa3c0 f i libucrtd:output.obj
 0001:000a94e0       ?type_case_s@?$output_processor@DV?$string_output_adapter@D@__crt_stdio_output@@V?$format_validation_base@DV?$string_output_adapter@D@__crt_stdio_output@@@2@@__crt_stdio_output@@AEAA_NXZ 00000001400aa4e0 f i libucrtd:output.obj
 0001:000a9600       ?type_case_s@?$output_processor@DV?$string_output_adapter@D@__crt_stdio_output@@V?$positional_parameter_base@DV?$string_output_adapter@D@__crt_stdio_output@@@2@@__crt_stdio_output@@AEAA_NXZ 00000001400aa600 f i libucrtd:output.obj
 0001:000a9720       ?type_case_s@?$output_processor@DV?$string_output_adapter@D@__crt_stdio_output@@V?$standard_base@DV?$string_output_adapter@D@__crt_stdio_output@@@2@@__crt_stdio_output@@AEAA_NXZ 00000001400aa720 f i libucrtd:output.obj
 0001:000a9840       ?type_case_s@?$output_processor@_WV?$stream_output_adapter@_W@__crt_stdio_output@@V?$format_validation_base@_WV?$stream_output_adapter@_W@__crt_stdio_output@@@2@@__crt_stdio_output@@AEAA_NXZ 00000001400aa840 f i libucrtd:output.obj
 0001:000a9960       ?type_case_s@?$output_processor@_WV?$stream_output_adapter@_W@__crt_stdio_output@@V?$positional_parameter_base@_WV?$stream_output_adapter@_W@__crt_stdio_output@@@2@@__crt_stdio_output@@AEAA_NXZ 00000001400aa960 f i libucrtd:output.obj
 0001:000a9a80       ?type_case_s@?$output_processor@_WV?$stream_output_adapter@_W@__crt_stdio_output@@V?$standard_base@_WV?$stream_output_adapter@_W@__crt_stdio_output@@@2@@__crt_stdio_output@@AEAA_NXZ 00000001400aaa80 f i libucrtd:output.obj
 0001:000a9ba0       ?type_case_s@?$output_processor@_WV?$string_output_adapter@_W@__crt_stdio_output@@V?$format_validation_base@_WV?$string_output_adapter@_W@__crt_stdio_output@@@2@@__crt_stdio_output@@AEAA_NXZ 00000001400aaba0 f i libucrtd:output.obj
 0001:000a9cc0       ?type_case_s@?$output_processor@_WV?$string_output_adapter@_W@__crt_stdio_output@@V?$positional_parameter_base@_WV?$string_output_adapter@_W@__crt_stdio_output@@@2@@__crt_stdio_output@@AEAA_NXZ 00000001400aacc0 f i libucrtd:output.obj
 0001:000a9de0       ?type_case_s@?$output_processor@_WV?$string_output_adapter@_W@__crt_stdio_output@@V?$standard_base@_WV?$string_output_adapter@_W@__crt_stdio_output@@@2@@__crt_stdio_output@@AEAA_NXZ 00000001400aade0 f i libucrtd:output.obj
 0001:000a9f00       ?type_case_s_compute_narrow_string_length@?$output_processor@DV?$stream_output_adapter@D@__crt_stdio_output@@V?$format_validation_base@DV?$stream_output_adapter@D@__crt_stdio_output@@@2@@__crt_stdio_output@@AEAAHHD@Z 00000001400aaf00 f i libucrtd:output.obj
 0001:000a9f30       ?type_case_s_compute_narrow_string_length@?$output_processor@DV?$stream_output_adapter@D@__crt_stdio_output@@V?$positional_parameter_base@DV?$stream_output_adapter@D@__crt_stdio_output@@@2@@__crt_stdio_output@@AEAAHHD@Z 00000001400aaf30 f i libucrtd:output.obj
 0001:000a9f60       ?type_case_s_compute_narrow_string_length@?$output_processor@DV?$stream_output_adapter@D@__crt_stdio_output@@V?$standard_base@DV?$stream_output_adapter@D@__crt_stdio_output@@@2@@__crt_stdio_output@@AEAAHHD@Z 00000001400aaf60 f i libucrtd:output.obj
 0001:000a9f90       ?type_case_s_compute_narrow_string_length@?$output_processor@DV?$string_output_adapter@D@__crt_stdio_output@@V?$format_validation_base@DV?$string_output_adapter@D@__crt_stdio_output@@@2@@__crt_stdio_output@@AEAAHHD@Z 00000001400aaf90 f i libucrtd:output.obj
 0001:000a9fc0       ?type_case_s_compute_narrow_string_length@?$output_processor@DV?$string_output_adapter@D@__crt_stdio_output@@V?$positional_parameter_base@DV?$string_output_adapter@D@__crt_stdio_output@@@2@@__crt_stdio_output@@AEAAHHD@Z 00000001400aafc0 f i libucrtd:output.obj
 0001:000a9ff0       ?type_case_s_compute_narrow_string_length@?$output_processor@DV?$string_output_adapter@D@__crt_stdio_output@@V?$standard_base@DV?$string_output_adapter@D@__crt_stdio_output@@@2@@__crt_stdio_output@@AEAAHHD@Z 00000001400aaff0 f i libucrtd:output.obj
 0001:000aa020       ?type_case_s_compute_narrow_string_length@?$output_processor@_WV?$stream_output_adapter@_W@__crt_stdio_output@@V?$format_validation_base@_WV?$stream_output_adapter@_W@__crt_stdio_output@@@2@@__crt_stdio_output@@AEAAHH_W@Z 00000001400ab020 f i libucrtd:output.obj
 0001:000aa0c0       ?type_case_s_compute_narrow_string_length@?$output_processor@_WV?$stream_output_adapter@_W@__crt_stdio_output@@V?$positional_parameter_base@_WV?$stream_output_adapter@_W@__crt_stdio_output@@@2@@__crt_stdio_output@@AEAAHH_W@Z 00000001400ab0c0 f i libucrtd:output.obj
 0001:000aa160       ?type_case_s_compute_narrow_string_length@?$output_processor@_WV?$stream_output_adapter@_W@__crt_stdio_output@@V?$standard_base@_WV?$stream_output_adapter@_W@__crt_stdio_output@@@2@@__crt_stdio_output@@AEAAHH_W@Z 00000001400ab160 f i libucrtd:output.obj
 0001:000aa200       ?type_case_s_compute_narrow_string_length@?$output_processor@_WV?$string_output_adapter@_W@__crt_stdio_output@@V?$format_validation_base@_WV?$string_output_adapter@_W@__crt_stdio_output@@@2@@__crt_stdio_output@@AEAAHH_W@Z 00000001400ab200 f i libucrtd:output.obj
 0001:000aa2a0       ?type_case_s_compute_narrow_string_length@?$output_processor@_WV?$string_output_adapter@_W@__crt_stdio_output@@V?$positional_parameter_base@_WV?$string_output_adapter@_W@__crt_stdio_output@@@2@@__crt_stdio_output@@AEAAHH_W@Z 00000001400ab2a0 f i libucrtd:output.obj
 0001:000aa340       ?type_case_s_compute_narrow_string_length@?$output_processor@_WV?$string_output_adapter@_W@__crt_stdio_output@@V?$standard_base@_WV?$string_output_adapter@_W@__crt_stdio_output@@@2@@__crt_stdio_output@@AEAAHH_W@Z 00000001400ab340 f i libucrtd:output.obj
 0001:000aa3e0       ?type_case_u@?$output_processor@DV?$stream_output_adapter@D@__crt_stdio_output@@V?$format_validation_base@DV?$stream_output_adapter@D@__crt_stdio_output@@@2@@__crt_stdio_output@@AEAA_NXZ 00000001400ab3e0 f i libucrtd:output.obj
 0001:000aa400       ?type_case_u@?$output_processor@DV?$stream_output_adapter@D@__crt_stdio_output@@V?$positional_parameter_base@DV?$stream_output_adapter@D@__crt_stdio_output@@@2@@__crt_stdio_output@@AEAA_NXZ 00000001400ab400 f i libucrtd:output.obj
 0001:000aa420       ?type_case_u@?$output_processor@DV?$stream_output_adapter@D@__crt_stdio_output@@V?$standard_base@DV?$stream_output_adapter@D@__crt_stdio_output@@@2@@__crt_stdio_output@@AEAA_NXZ 00000001400ab420 f i libucrtd:output.obj
 0001:000aa440       ?type_case_u@?$output_processor@DV?$string_output_adapter@D@__crt_stdio_output@@V?$format_validation_base@DV?$string_output_adapter@D@__crt_stdio_output@@@2@@__crt_stdio_output@@AEAA_NXZ 00000001400ab440 f i libucrtd:output.obj
 0001:000aa460       ?type_case_u@?$output_processor@DV?$string_output_adapter@D@__crt_stdio_output@@V?$positional_parameter_base@DV?$string_output_adapter@D@__crt_stdio_output@@@2@@__crt_stdio_output@@AEAA_NXZ 00000001400ab460 f i libucrtd:output.obj
 0001:000aa480       ?type_case_u@?$output_processor@DV?$string_output_adapter@D@__crt_stdio_output@@V?$standard_base@DV?$string_output_adapter@D@__crt_stdio_output@@@2@@__crt_stdio_output@@AEAA_NXZ 00000001400ab480 f i libucrtd:output.obj
 0001:000aa4a0       ?type_case_u@?$output_processor@_WV?$stream_output_adapter@_W@__crt_stdio_output@@V?$format_validation_base@_WV?$stream_output_adapter@_W@__crt_stdio_output@@@2@@__crt_stdio_output@@AEAA_NXZ 00000001400ab4a0 f i libucrtd:output.obj
 0001:000aa4c0       ?type_case_u@?$output_processor@_WV?$stream_output_adapter@_W@__crt_stdio_output@@V?$positional_parameter_base@_WV?$stream_output_adapter@_W@__crt_stdio_output@@@2@@__crt_stdio_output@@AEAA_NXZ 00000001400ab4c0 f i libucrtd:output.obj
 0001:000aa4e0       ?type_case_u@?$output_processor@_WV?$stream_output_adapter@_W@__crt_stdio_output@@V?$standard_base@_WV?$stream_output_adapter@_W@__crt_stdio_output@@@2@@__crt_stdio_output@@AEAA_NXZ 00000001400ab4e0 f i libucrtd:output.obj
 0001:000aa500       ?type_case_u@?$output_processor@_WV?$string_output_adapter@_W@__crt_stdio_output@@V?$format_validation_base@_WV?$string_output_adapter@_W@__crt_stdio_output@@@2@@__crt_stdio_output@@AEAA_NXZ 00000001400ab500 f i libucrtd:output.obj
 0001:000aa520       ?type_case_u@?$output_processor@_WV?$string_output_adapter@_W@__crt_stdio_output@@V?$positional_parameter_base@_WV?$string_output_adapter@_W@__crt_stdio_output@@@2@@__crt_stdio_output@@AEAA_NXZ 00000001400ab520 f i libucrtd:output.obj
 0001:000aa540       ?type_case_u@?$output_processor@_WV?$string_output_adapter@_W@__crt_stdio_output@@V?$standard_base@_WV?$string_output_adapter@_W@__crt_stdio_output@@@2@@__crt_stdio_output@@AEAA_NXZ 00000001400ab540 f i libucrtd:output.obj
 0001:000aa560       ?type_case_x@?$output_processor@DV?$stream_output_adapter@D@__crt_stdio_output@@V?$format_validation_base@DV?$stream_output_adapter@D@__crt_stdio_output@@@2@@__crt_stdio_output@@AEAA_NXZ 00000001400ab560 f i libucrtd:output.obj
 0001:000aa580       ?type_case_x@?$output_processor@DV?$stream_output_adapter@D@__crt_stdio_output@@V?$positional_parameter_base@DV?$stream_output_adapter@D@__crt_stdio_output@@@2@@__crt_stdio_output@@AEAA_NXZ 00000001400ab580 f i libucrtd:output.obj
 0001:000aa5a0       ?type_case_x@?$output_processor@DV?$stream_output_adapter@D@__crt_stdio_output@@V?$standard_base@DV?$stream_output_adapter@D@__crt_stdio_output@@@2@@__crt_stdio_output@@AEAA_NXZ 00000001400ab5a0 f i libucrtd:output.obj
 0001:000aa5c0       ?type_case_x@?$output_processor@DV?$string_output_adapter@D@__crt_stdio_output@@V?$format_validation_base@DV?$string_output_adapter@D@__crt_stdio_output@@@2@@__crt_stdio_output@@AEAA_NXZ 00000001400ab5c0 f i libucrtd:output.obj
 0001:000aa5e0       ?type_case_x@?$output_processor@DV?$string_output_adapter@D@__crt_stdio_output@@V?$positional_parameter_base@DV?$string_output_adapter@D@__crt_stdio_output@@@2@@__crt_stdio_output@@AEAA_NXZ 00000001400ab5e0 f i libucrtd:output.obj
 0001:000aa600       ?type_case_x@?$output_processor@DV?$string_output_adapter@D@__crt_stdio_output@@V?$standard_base@DV?$string_output_adapter@D@__crt_stdio_output@@@2@@__crt_stdio_output@@AEAA_NXZ 00000001400ab600 f i libucrtd:output.obj
 0001:000aa620       ?type_case_x@?$output_processor@_WV?$stream_output_adapter@_W@__crt_stdio_output@@V?$format_validation_base@_WV?$stream_output_adapter@_W@__crt_stdio_output@@@2@@__crt_stdio_output@@AEAA_NXZ 00000001400ab620 f i libucrtd:output.obj
 0001:000aa640       ?type_case_x@?$output_processor@_WV?$stream_output_adapter@_W@__crt_stdio_output@@V?$positional_parameter_base@_WV?$stream_output_adapter@_W@__crt_stdio_output@@@2@@__crt_stdio_output@@AEAA_NXZ 00000001400ab640 f i libucrtd:output.obj
 0001:000aa660       ?type_case_x@?$output_processor@_WV?$stream_output_adapter@_W@__crt_stdio_output@@V?$standard_base@_WV?$stream_output_adapter@_W@__crt_stdio_output@@@2@@__crt_stdio_output@@AEAA_NXZ 00000001400ab660 f i libucrtd:output.obj
 0001:000aa680       ?type_case_x@?$output_processor@_WV?$string_output_adapter@_W@__crt_stdio_output@@V?$format_validation_base@_WV?$string_output_adapter@_W@__crt_stdio_output@@@2@@__crt_stdio_output@@AEAA_NXZ 00000001400ab680 f i libucrtd:output.obj
 0001:000aa6a0       ?type_case_x@?$output_processor@_WV?$string_output_adapter@_W@__crt_stdio_output@@V?$positional_parameter_base@_WV?$string_output_adapter@_W@__crt_stdio_output@@@2@@__crt_stdio_output@@AEAA_NXZ 00000001400ab6a0 f i libucrtd:output.obj
 0001:000aa6c0       ?type_case_x@?$output_processor@_WV?$string_output_adapter@_W@__crt_stdio_output@@V?$standard_base@_WV?$string_output_adapter@_W@__crt_stdio_output@@@2@@__crt_stdio_output@@AEAA_NXZ 00000001400ab6c0 f i libucrtd:output.obj
 0001:000aa6e0       ?unget@?$c_string_character_source@D@__crt_strtox@@QEAAXD@Z 00000001400ab6e0 f i libucrtd:output.obj
 0001:000aa7c0       ?unget@?$c_string_character_source@_W@__crt_strtox@@QEAAX_W@Z 00000001400ab7c0 f i libucrtd:output.obj
 0001:000aa8a0       ?unsafe_value@?$cached@H@__crt_cached_ptd_host@@QEAAHXZ 00000001400ab8a0 f i libucrtd:output.obj
 0001:000aa8b0       ?unsafe_value@?$cached@K@__crt_cached_ptd_host@@QEAAKXZ 00000001400ab8b0 f i libucrtd:output.obj
 0001:000aa8c0       ?unset_flag@?$output_processor@DV?$stream_output_adapter@D@__crt_stdio_output@@V?$format_validation_base@DV?$stream_output_adapter@D@__crt_stdio_output@@@2@@__crt_stdio_output@@AEAAXI@Z 00000001400ab8c0 f i libucrtd:output.obj
 0001:000aa8f0       ?unset_flag@?$output_processor@DV?$stream_output_adapter@D@__crt_stdio_output@@V?$positional_parameter_base@DV?$stream_output_adapter@D@__crt_stdio_output@@@2@@__crt_stdio_output@@AEAAXI@Z 00000001400ab8f0 f i libucrtd:output.obj
 0001:000aa920       ?unset_flag@?$output_processor@DV?$stream_output_adapter@D@__crt_stdio_output@@V?$standard_base@DV?$stream_output_adapter@D@__crt_stdio_output@@@2@@__crt_stdio_output@@AEAAXI@Z 00000001400ab920 f i libucrtd:output.obj
 0001:000aa950       ?unset_flag@?$output_processor@DV?$string_output_adapter@D@__crt_stdio_output@@V?$format_validation_base@DV?$string_output_adapter@D@__crt_stdio_output@@@2@@__crt_stdio_output@@AEAAXI@Z 00000001400ab950 f i libucrtd:output.obj
 0001:000aa980       ?unset_flag@?$output_processor@DV?$string_output_adapter@D@__crt_stdio_output@@V?$positional_parameter_base@DV?$string_output_adapter@D@__crt_stdio_output@@@2@@__crt_stdio_output@@AEAAXI@Z 00000001400ab980 f i libucrtd:output.obj
 0001:000aa9b0       ?unset_flag@?$output_processor@DV?$string_output_adapter@D@__crt_stdio_output@@V?$standard_base@DV?$string_output_adapter@D@__crt_stdio_output@@@2@@__crt_stdio_output@@AEAAXI@Z 00000001400ab9b0 f i libucrtd:output.obj
 0001:000aa9e0       ?unset_flag@?$output_processor@_WV?$stream_output_adapter@_W@__crt_stdio_output@@V?$format_validation_base@_WV?$stream_output_adapter@_W@__crt_stdio_output@@@2@@__crt_stdio_output@@AEAAXI@Z 00000001400ab9e0 f i libucrtd:output.obj
 0001:000aaa10       ?unset_flag@?$output_processor@_WV?$stream_output_adapter@_W@__crt_stdio_output@@V?$positional_parameter_base@_WV?$stream_output_adapter@_W@__crt_stdio_output@@@2@@__crt_stdio_output@@AEAAXI@Z 00000001400aba10 f i libucrtd:output.obj
 0001:000aaa40       ?unset_flag@?$output_processor@_WV?$stream_output_adapter@_W@__crt_stdio_output@@V?$standard_base@_WV?$stream_output_adapter@_W@__crt_stdio_output@@@2@@__crt_stdio_output@@AEAAXI@Z 00000001400aba40 f i libucrtd:output.obj
 0001:000aaa70       ?unset_flag@?$output_processor@_WV?$string_output_adapter@_W@__crt_stdio_output@@V?$format_validation_base@_WV?$string_output_adapter@_W@__crt_stdio_output@@@2@@__crt_stdio_output@@AEAAXI@Z 00000001400aba70 f i libucrtd:output.obj
 0001:000aaaa0       ?unset_flag@?$output_processor@_WV?$string_output_adapter@_W@__crt_stdio_output@@V?$positional_parameter_base@_WV?$string_output_adapter@_W@__crt_stdio_output@@@2@@__crt_stdio_output@@AEAAXI@Z 00000001400abaa0 f i libucrtd:output.obj
 0001:000aaad0       ?unset_flag@?$output_processor@_WV?$string_output_adapter@_W@__crt_stdio_output@@V?$standard_base@_WV?$string_output_adapter@_W@__crt_stdio_output@@@2@@__crt_stdio_output@@AEAAXI@Z 00000001400abad0 f i libucrtd:output.obj
 0001:000aab00       ?update_field_width@?$positional_parameter_base@DV?$stream_output_adapter@D@__crt_stdio_output@@@__crt_stdio_output@@IEAA_NXZ 00000001400abb00 f i libucrtd:output.obj
 0001:000aad00       ?update_field_width@?$positional_parameter_base@DV?$string_output_adapter@D@__crt_stdio_output@@@__crt_stdio_output@@IEAA_NXZ 00000001400abd00 f i libucrtd:output.obj
 0001:000aaf00       ?update_field_width@?$positional_parameter_base@_WV?$stream_output_adapter@_W@__crt_stdio_output@@@__crt_stdio_output@@IEAA_NXZ 00000001400abf00 f i libucrtd:output.obj
 0001:000ab100       ?update_field_width@?$positional_parameter_base@_WV?$string_output_adapter@_W@__crt_stdio_output@@@__crt_stdio_output@@IEAA_NXZ 00000001400ac100 f i libucrtd:output.obj
 0001:000ab300       ?update_field_width@?$standard_base@DV?$stream_output_adapter@D@__crt_stdio_output@@@__crt_stdio_output@@IEAA_NXZ 00000001400ac300 f i libucrtd:output.obj
 0001:000ab330       ?update_field_width@?$standard_base@DV?$string_output_adapter@D@__crt_stdio_output@@@__crt_stdio_output@@IEAA_NXZ 00000001400ac330 f i libucrtd:output.obj
 0001:000ab360       ?update_field_width@?$standard_base@_WV?$stream_output_adapter@_W@__crt_stdio_output@@@__crt_stdio_output@@IEAA_NXZ 00000001400ac360 f i libucrtd:output.obj
 0001:000ab390       ?update_field_width@?$standard_base@_WV?$string_output_adapter@_W@__crt_stdio_output@@@__crt_stdio_output@@IEAA_NXZ 00000001400ac390 f i libucrtd:output.obj
 0001:000ab3c0       ?update_locale@__crt_cached_ptd_host@@AEAAXXZ 00000001400ac3c0 f i libucrtd:output.obj
 0001:000ab3f0       ?update_locale_slow@__crt_cached_ptd_host@@AEAAXXZ 00000001400ac3f0 f i libucrtd:output.obj
 0001:000ab4a0       ?update_precision@?$positional_parameter_base@DV?$stream_output_adapter@D@__crt_stdio_output@@@__crt_stdio_output@@IEAA_NXZ 00000001400ac4a0 f i libucrtd:output.obj
 0001:000ab6a0       ?update_precision@?$positional_parameter_base@DV?$string_output_adapter@D@__crt_stdio_output@@@__crt_stdio_output@@IEAA_NXZ 00000001400ac6a0 f i libucrtd:output.obj
 0001:000ab8a0       ?update_precision@?$positional_parameter_base@_WV?$stream_output_adapter@_W@__crt_stdio_output@@@__crt_stdio_output@@IEAA_NXZ 00000001400ac8a0 f i libucrtd:output.obj
 0001:000abaa0       ?update_precision@?$positional_parameter_base@_WV?$string_output_adapter@_W@__crt_stdio_output@@@__crt_stdio_output@@IEAA_NXZ 00000001400acaa0 f i libucrtd:output.obj
 0001:000abca0       ?update_precision@?$standard_base@DV?$stream_output_adapter@D@__crt_stdio_output@@@__crt_stdio_output@@IEAA_NXZ 00000001400acca0 f i libucrtd:output.obj
 0001:000abcd0       ?update_precision@?$standard_base@DV?$string_output_adapter@D@__crt_stdio_output@@@__crt_stdio_output@@IEAA_NXZ 00000001400accd0 f i libucrtd:output.obj
 0001:000abd00       ?update_precision@?$standard_base@_WV?$stream_output_adapter@_W@__crt_stdio_output@@@__crt_stdio_output@@IEAA_NXZ 00000001400acd00 f i libucrtd:output.obj
 0001:000abd30       ?update_precision@?$standard_base@_WV?$string_output_adapter@_W@__crt_stdio_output@@@__crt_stdio_output@@IEAA_NXZ 00000001400acd30 f i libucrtd:output.obj
 0001:000abd60       ?valid@?$cached@H@__crt_cached_ptd_host@@QEBA_NXZ 00000001400acd60 f i libucrtd:output.obj
 0001:000abd70       ?valid@?$cached@K@__crt_cached_ptd_host@@QEBA_NXZ 00000001400acd70 f i libucrtd:output.obj
 0001:000abd80       ?valid@__crt_stdio_stream@@QEBA_NXZ 00000001400acd80 f i libucrtd:output.obj
 0001:000abdb0       ?validate@?$c_string_character_source@D@__crt_strtox@@QEBA_NXZ 00000001400acdb0 f i libucrtd:output.obj
 0001:000abe70       ?validate@?$c_string_character_source@_W@__crt_strtox@@QEBA_NXZ 00000001400ace70 f i libucrtd:output.obj
 0001:000abf30       ?validate@?$stream_output_adapter@D@__crt_stdio_output@@QEBA_NAEAV__crt_cached_ptd_host@@@Z 00000001400acf30 f i libucrtd:output.obj
 0001:000ac030       ?validate@?$stream_output_adapter@_W@__crt_stdio_output@@QEBA_NAEAV__crt_cached_ptd_host@@@Z 00000001400ad030 f i libucrtd:output.obj
 0001:000ac130       ?validate@?$string_output_adapter@D@__crt_stdio_output@@QEBA_NAEAV__crt_cached_ptd_host@@@Z 00000001400ad130 f i libucrtd:output.obj
 0001:000ac210       ?validate@?$string_output_adapter@_W@__crt_stdio_output@@QEBA_NAEAV__crt_cached_ptd_host@@@Z 00000001400ad210 f i libucrtd:output.obj
 0001:000ac2f0       ?validate_and_store_parameter_data@?$positional_parameter_base@DV?$stream_output_adapter@D@__crt_stdio_output@@@__crt_stdio_output@@AEAA_NAEAUparameter_data@12@W4parameter_type@12@DW4length_modifier@2@@Z 00000001400ad2f0 f i libucrtd:output.obj
 0001:000ac430       ?validate_and_store_parameter_data@?$positional_parameter_base@DV?$string_output_adapter@D@__crt_stdio_output@@@__crt_stdio_output@@AEAA_NAEAUparameter_data@12@W4parameter_type@12@DW4length_modifier@2@@Z 00000001400ad430 f i libucrtd:output.obj
 0001:000ac570       ?validate_and_store_parameter_data@?$positional_parameter_base@_WV?$stream_output_adapter@_W@__crt_stdio_output@@@__crt_stdio_output@@AEAA_NAEAUparameter_data@12@W4parameter_type@12@_WW4length_modifier@2@@Z 00000001400ad570 f i libucrtd:output.obj
 0001:000ac6b0       ?validate_and_store_parameter_data@?$positional_parameter_base@_WV?$string_output_adapter@_W@__crt_stdio_output@@@__crt_stdio_output@@AEAA_NAEAUparameter_data@12@W4parameter_type@12@_WW4length_modifier@2@@Z 00000001400ad6b0 f i libucrtd:output.obj
 0001:000ac7f0       ?validate_and_update_state_at_beginning_of_format_character@?$positional_parameter_base@DV?$stream_output_adapter@D@__crt_stdio_output@@@__crt_stdio_output@@IEAA_NXZ 00000001400ad7f0 f i libucrtd:output.obj
 0001:000aca90       ?validate_and_update_state_at_beginning_of_format_character@?$positional_parameter_base@DV?$string_output_adapter@D@__crt_stdio_output@@@__crt_stdio_output@@IEAA_NXZ 00000001400ada90 f i libucrtd:output.obj
 0001:000acd30       ?validate_and_update_state_at_beginning_of_format_character@?$positional_parameter_base@_WV?$stream_output_adapter@_W@__crt_stdio_output@@@__crt_stdio_output@@IEAA_NXZ 00000001400add30 f i libucrtd:output.obj
 0001:000acfd0       ?validate_and_update_state_at_beginning_of_format_character@?$positional_parameter_base@_WV?$string_output_adapter@_W@__crt_stdio_output@@@__crt_stdio_output@@IEAA_NXZ 00000001400adfd0 f i libucrtd:output.obj
 0001:000ad270       ?validate_and_update_state_at_beginning_of_format_character@?$standard_base@DV?$stream_output_adapter@D@__crt_stdio_output@@@__crt_stdio_output@@IEAA_NXZ 00000001400ae270 f i libucrtd:output.obj
 0001:000ad280       ?validate_and_update_state_at_beginning_of_format_character@?$standard_base@DV?$string_output_adapter@D@__crt_stdio_output@@@__crt_stdio_output@@IEAA_NXZ 00000001400ae280 f i libucrtd:output.obj
 0001:000ad290       ?validate_and_update_state_at_beginning_of_format_character@?$standard_base@_WV?$stream_output_adapter@_W@__crt_stdio_output@@@__crt_stdio_output@@IEAA_NXZ 00000001400ae290 f i libucrtd:output.obj
 0001:000ad2a0       ?validate_and_update_state_at_beginning_of_format_character@?$standard_base@_WV?$string_output_adapter@_W@__crt_stdio_output@@@__crt_stdio_output@@IEAA_NXZ 00000001400ae2a0 f i libucrtd:output.obj
 0001:000ad2b0       ?validate_and_update_state_at_end_of_format_string@?$format_validation_base@DV?$stream_output_adapter@D@__crt_stdio_output@@@__crt_stdio_output@@IEAA_NXZ 00000001400ae2b0 f i libucrtd:output.obj
 0001:000ad3a0       ?validate_and_update_state_at_end_of_format_string@?$format_validation_base@DV?$string_output_adapter@D@__crt_stdio_output@@@__crt_stdio_output@@IEAA_NXZ 00000001400ae3a0 f i libucrtd:output.obj
 0001:000ad490       ?validate_and_update_state_at_end_of_format_string@?$format_validation_base@_WV?$stream_output_adapter@_W@__crt_stdio_output@@@__crt_stdio_output@@IEAA_NXZ 00000001400ae490 f i libucrtd:output.obj
 0001:000ad580       ?validate_and_update_state_at_end_of_format_string@?$format_validation_base@_WV?$string_output_adapter@_W@__crt_stdio_output@@@__crt_stdio_output@@IEAA_NXZ 00000001400ae580 f i libucrtd:output.obj
 0001:000ad670       ?validate_and_update_state_at_end_of_format_string@?$positional_parameter_base@DV?$stream_output_adapter@D@__crt_stdio_output@@@__crt_stdio_output@@IEAA_NXZ 00000001400ae670 f i libucrtd:output.obj
 0001:000ad8a0       ?validate_and_update_state_at_end_of_format_string@?$positional_parameter_base@DV?$string_output_adapter@D@__crt_stdio_output@@@__crt_stdio_output@@IEAA_NXZ 00000001400ae8a0 f i libucrtd:output.obj
 0001:000adad0       ?validate_and_update_state_at_end_of_format_string@?$positional_parameter_base@_WV?$stream_output_adapter@_W@__crt_stdio_output@@@__crt_stdio_output@@IEAA_NXZ 00000001400aead0 f i libucrtd:output.obj
 0001:000add00       ?validate_and_update_state_at_end_of_format_string@?$positional_parameter_base@_WV?$string_output_adapter@_W@__crt_stdio_output@@@__crt_stdio_output@@IEAA_NXZ 00000001400aed00 f i libucrtd:output.obj
 0001:000adf30       ?validate_and_update_state_at_end_of_format_string@?$standard_base@DV?$stream_output_adapter@D@__crt_stdio_output@@@__crt_stdio_output@@IEBA_NXZ 00000001400aef30 f i libucrtd:output.obj
 0001:000adf40       ?validate_and_update_state_at_end_of_format_string@?$standard_base@DV?$string_output_adapter@D@__crt_stdio_output@@@__crt_stdio_output@@IEBA_NXZ 00000001400aef40 f i libucrtd:output.obj
 0001:000adf50       ?validate_and_update_state_at_end_of_format_string@?$standard_base@_WV?$stream_output_adapter@_W@__crt_stdio_output@@@__crt_stdio_output@@IEBA_NXZ 00000001400aef50 f i libucrtd:output.obj
 0001:000adf60       ?validate_and_update_state_at_end_of_format_string@?$standard_base@_WV?$string_output_adapter@_W@__crt_stdio_output@@@__crt_stdio_output@@IEBA_NXZ 00000001400aef60 f i libucrtd:output.obj
 0001:000adf70       ?validate_state_for_type_case_a@?$positional_parameter_base@DV?$stream_output_adapter@D@__crt_stdio_output@@@__crt_stdio_output@@IEAA_NXZ 00000001400aef70 f i libucrtd:output.obj
 0001:000ae0d0       ?validate_state_for_type_case_a@?$positional_parameter_base@DV?$string_output_adapter@D@__crt_stdio_output@@@__crt_stdio_output@@IEAA_NXZ 00000001400af0d0 f i libucrtd:output.obj
 0001:000ae230       ?validate_state_for_type_case_a@?$positional_parameter_base@_WV?$stream_output_adapter@_W@__crt_stdio_output@@@__crt_stdio_output@@IEAA_NXZ 00000001400af230 f i libucrtd:output.obj
 0001:000ae390       ?validate_state_for_type_case_a@?$positional_parameter_base@_WV?$string_output_adapter@_W@__crt_stdio_output@@@__crt_stdio_output@@IEAA_NXZ 00000001400af390 f i libucrtd:output.obj
 0001:000ae4f0       ?validate_state_for_type_case_a@?$standard_base@DV?$stream_output_adapter@D@__crt_stdio_output@@@__crt_stdio_output@@IEBA_NXZ 00000001400af4f0 f i libucrtd:output.obj
 0001:000ae500       ?validate_state_for_type_case_a@?$standard_base@DV?$string_output_adapter@D@__crt_stdio_output@@@__crt_stdio_output@@IEBA_NXZ 00000001400af500 f i libucrtd:output.obj
 0001:000ae510       ?validate_state_for_type_case_a@?$standard_base@_WV?$stream_output_adapter@_W@__crt_stdio_output@@@__crt_stdio_output@@IEBA_NXZ 00000001400af510 f i libucrtd:output.obj
 0001:000ae520       ?validate_state_for_type_case_a@?$standard_base@_WV?$string_output_adapter@_W@__crt_stdio_output@@@__crt_stdio_output@@IEBA_NXZ 00000001400af520 f i libucrtd:output.obj
 0001:000ae530       ?validate_stream_is_ansi_if_required@?$__acrt_stdio_char_traits@D@@SA_NQEAU_iobuf@@@Z 00000001400af530 f i libucrtd:output.obj
 0001:000ae6c0       ?validate_stream_is_ansi_if_required@?$__acrt_stdio_char_traits@_W@@SA_NQEAU_iobuf@@@Z 00000001400af6c0 f i libucrtd:output.obj
 0001:000ae6d0       ?wide_character_to_digit@__crt_strtox@@YAH_W@Z 00000001400af6d0 f i libucrtd:output.obj
 0001:000aea40       ?wide_null_string@?$output_processor@DV?$stream_output_adapter@D@__crt_stdio_output@@V?$format_validation_base@DV?$stream_output_adapter@D@__crt_stdio_output@@@2@@__crt_stdio_output@@CAPEA_WXZ 00000001400afa40 f i libucrtd:output.obj
 0001:000aea50       ?wide_null_string@?$output_processor@DV?$stream_output_adapter@D@__crt_stdio_output@@V?$positional_parameter_base@DV?$stream_output_adapter@D@__crt_stdio_output@@@2@@__crt_stdio_output@@CAPEA_WXZ 00000001400afa50 f i libucrtd:output.obj
 0001:000aea60       ?wide_null_string@?$output_processor@DV?$stream_output_adapter@D@__crt_stdio_output@@V?$standard_base@DV?$stream_output_adapter@D@__crt_stdio_output@@@2@@__crt_stdio_output@@CAPEA_WXZ 00000001400afa60 f i libucrtd:output.obj
 0001:000aea70       ?wide_null_string@?$output_processor@DV?$string_output_adapter@D@__crt_stdio_output@@V?$format_validation_base@DV?$string_output_adapter@D@__crt_stdio_output@@@2@@__crt_stdio_output@@CAPEA_WXZ 00000001400afa70 f i libucrtd:output.obj
 0001:000aea80       ?wide_null_string@?$output_processor@DV?$string_output_adapter@D@__crt_stdio_output@@V?$positional_parameter_base@DV?$string_output_adapter@D@__crt_stdio_output@@@2@@__crt_stdio_output@@CAPEA_WXZ 00000001400afa80 f i libucrtd:output.obj
 0001:000aea90       ?wide_null_string@?$output_processor@DV?$string_output_adapter@D@__crt_stdio_output@@V?$standard_base@DV?$string_output_adapter@D@__crt_stdio_output@@@2@@__crt_stdio_output@@CAPEA_WXZ 00000001400afa90 f i libucrtd:output.obj
 0001:000aeaa0       ?wide_null_string@?$output_processor@_WV?$stream_output_adapter@_W@__crt_stdio_output@@V?$format_validation_base@_WV?$stream_output_adapter@_W@__crt_stdio_output@@@2@@__crt_stdio_output@@CAPEA_WXZ 00000001400afaa0 f i libucrtd:output.obj
 0001:000aeab0       ?wide_null_string@?$output_processor@_WV?$stream_output_adapter@_W@__crt_stdio_output@@V?$positional_parameter_base@_WV?$stream_output_adapter@_W@__crt_stdio_output@@@2@@__crt_stdio_output@@CAPEA_WXZ 00000001400afab0 f i libucrtd:output.obj
 0001:000aeac0       ?wide_null_string@?$output_processor@_WV?$stream_output_adapter@_W@__crt_stdio_output@@V?$standard_base@_WV?$stream_output_adapter@_W@__crt_stdio_output@@@2@@__crt_stdio_output@@CAPEA_WXZ 00000001400afac0 f i libucrtd:output.obj
 0001:000aead0       ?wide_null_string@?$output_processor@_WV?$string_output_adapter@_W@__crt_stdio_output@@V?$format_validation_base@_WV?$string_output_adapter@_W@__crt_stdio_output@@@2@@__crt_stdio_output@@CAPEA_WXZ 00000001400afad0 f i libucrtd:output.obj
 0001:000aeae0       ?wide_null_string@?$output_processor@_WV?$string_output_adapter@_W@__crt_stdio_output@@V?$positional_parameter_base@_WV?$string_output_adapter@_W@__crt_stdio_output@@@2@@__crt_stdio_output@@CAPEA_WXZ 00000001400afae0 f i libucrtd:output.obj
 0001:000aeaf0       ?wide_null_string@?$output_processor@_WV?$string_output_adapter@_W@__crt_stdio_output@@V?$standard_base@_WV?$string_output_adapter@_W@__crt_stdio_output@@@2@@__crt_stdio_output@@CAPEA_WXZ 00000001400afaf0 f i libucrtd:output.obj
 0001:000aeb00       ?write_character@?$output_adapter_common@DV?$stream_output_adapter@D@__crt_stdio_output@@@__crt_stdio_output@@QEBAXDQEAHAEAV__crt_cached_ptd_host@@@Z 00000001400afb00 f i libucrtd:output.obj
 0001:000aeb60       ?write_character@?$output_adapter_common@_WV?$stream_output_adapter@_W@__crt_stdio_output@@@__crt_stdio_output@@QEBAX_WQEAHAEAV__crt_cached_ptd_host@@@Z 00000001400afb60 f i libucrtd:output.obj
 0001:000aebc0       ?write_character@?$string_output_adapter@D@__crt_stdio_output@@QEBA_NDQEAHAEAV__crt_cached_ptd_host@@@Z 00000001400afbc0 f i libucrtd:output.obj
 0001:000aec90       ?write_character@?$string_output_adapter@_W@__crt_stdio_output@@QEBA_N_WQEAHAEAV__crt_cached_ptd_host@@@Z 00000001400afc90 f i libucrtd:output.obj
 0001:000aed60       ?write_character_without_count_update@?$stream_output_adapter@D@__crt_stdio_output@@QEBA_NDAEAV__crt_cached_ptd_host@@@Z 00000001400afd60 f i libucrtd:output.obj
 0001:000aedf0       ?write_character_without_count_update@?$stream_output_adapter@_W@__crt_stdio_output@@QEBA_N_WAEAV__crt_cached_ptd_host@@@Z 00000001400afdf0 f i libucrtd:output.obj
 0001:000aee80       ?write_stored_string_tchar@?$output_processor@DV?$stream_output_adapter@D@__crt_stdio_output@@V?$format_validation_base@DV?$stream_output_adapter@D@__crt_stdio_output@@@2@@__crt_stdio_output@@AEAA_ND@Z 00000001400afe80 f i libucrtd:output.obj
 0001:000af030       ?write_stored_string_tchar@?$output_processor@DV?$stream_output_adapter@D@__crt_stdio_output@@V?$positional_parameter_base@DV?$stream_output_adapter@D@__crt_stdio_output@@@2@@__crt_stdio_output@@AEAA_ND@Z 00000001400b0030 f i libucrtd:output.obj
 0001:000af1e0       ?write_stored_string_tchar@?$output_processor@DV?$stream_output_adapter@D@__crt_stdio_output@@V?$standard_base@DV?$stream_output_adapter@D@__crt_stdio_output@@@2@@__crt_stdio_output@@AEAA_ND@Z 00000001400b01e0 f i libucrtd:output.obj
 0001:000af390       ?write_stored_string_tchar@?$output_processor@DV?$string_output_adapter@D@__crt_stdio_output@@V?$format_validation_base@DV?$string_output_adapter@D@__crt_stdio_output@@@2@@__crt_stdio_output@@AEAA_ND@Z 00000001400b0390 f i libucrtd:output.obj
 0001:000af540       ?write_stored_string_tchar@?$output_processor@DV?$string_output_adapter@D@__crt_stdio_output@@V?$positional_parameter_base@DV?$string_output_adapter@D@__crt_stdio_output@@@2@@__crt_stdio_output@@AEAA_ND@Z 00000001400b0540 f i libucrtd:output.obj
 0001:000af6f0       ?write_stored_string_tchar@?$output_processor@DV?$string_output_adapter@D@__crt_stdio_output@@V?$standard_base@DV?$string_output_adapter@D@__crt_stdio_output@@@2@@__crt_stdio_output@@AEAA_ND@Z 00000001400b06f0 f i libucrtd:output.obj
 0001:000af8a0       ?write_stored_string_tchar@?$output_processor@_WV?$stream_output_adapter@_W@__crt_stdio_output@@V?$format_validation_base@_WV?$stream_output_adapter@_W@__crt_stdio_output@@@2@@__crt_stdio_output@@AEAA_N_W@Z 00000001400b08a0 f i libucrtd:output.obj
 0001:000afa00       ?write_stored_string_tchar@?$output_processor@_WV?$stream_output_adapter@_W@__crt_stdio_output@@V?$positional_parameter_base@_WV?$stream_output_adapter@_W@__crt_stdio_output@@@2@@__crt_stdio_output@@AEAA_N_W@Z 00000001400b0a00 f i libucrtd:output.obj
 0001:000afb60       ?write_stored_string_tchar@?$output_processor@_WV?$stream_output_adapter@_W@__crt_stdio_output@@V?$standard_base@_WV?$stream_output_adapter@_W@__crt_stdio_output@@@2@@__crt_stdio_output@@AEAA_N_W@Z 00000001400b0b60 f i libucrtd:output.obj
 0001:000afcc0       ?write_stored_string_tchar@?$output_processor@_WV?$string_output_adapter@_W@__crt_stdio_output@@V?$format_validation_base@_WV?$string_output_adapter@_W@__crt_stdio_output@@@2@@__crt_stdio_output@@AEAA_N_W@Z 00000001400b0cc0 f i libucrtd:output.obj
 0001:000afe20       ?write_stored_string_tchar@?$output_processor@_WV?$string_output_adapter@_W@__crt_stdio_output@@V?$positional_parameter_base@_WV?$string_output_adapter@_W@__crt_stdio_output@@@2@@__crt_stdio_output@@AEAA_N_W@Z 00000001400b0e20 f i libucrtd:output.obj
 0001:000aff80       ?write_stored_string_tchar@?$output_processor@_WV?$string_output_adapter@_W@__crt_stdio_output@@V?$standard_base@_WV?$string_output_adapter@_W@__crt_stdio_output@@@2@@__crt_stdio_output@@AEAA_N_W@Z 00000001400b0f80 f i libucrtd:output.obj
 0001:000b00e0       ?write_string@?$stream_output_adapter@D@__crt_stdio_output@@QEBAXQEBDHQEAHAEAV__crt_cached_ptd_host@@@Z 00000001400b10e0 f i libucrtd:output.obj
 0001:000b0160       ?write_string@?$stream_output_adapter@_W@__crt_stdio_output@@QEBAXQEB_WHQEAHAEAV__crt_cached_ptd_host@@@Z 00000001400b1160 f i libucrtd:output.obj
 0001:000b01e0       ?write_string@?$string_output_adapter@D@__crt_stdio_output@@QEBAXQEBDHQEAHAEAV__crt_cached_ptd_host@@@Z 00000001400b11e0 f i libucrtd:output.obj
 0001:000b0350       ?write_string@?$string_output_adapter@_W@__crt_stdio_output@@QEBAXQEB_WHQEAHAEAV__crt_cached_ptd_host@@@Z 00000001400b1350 f i libucrtd:output.obj
 0001:000b04c0       ?write_string_impl@?$output_adapter_common@DV?$stream_output_adapter@D@__crt_stdio_output@@@__crt_stdio_output@@IEBAXQEBDHQEAHAEAV__crt_cached_ptd_host@@@Z 00000001400b14c0 f i libucrtd:output.obj
 0001:000b05e0       ?write_string_impl@?$output_adapter_common@_WV?$stream_output_adapter@_W@__crt_stdio_output@@@__crt_stdio_output@@IEBAXQEB_WHQEAHAEAV__crt_cached_ptd_host@@@Z 00000001400b15e0 f i libucrtd:output.obj
 0001:000b0700       __acrt_disable_global_locale_sync 00000001400b1700 f i libucrtd:output.obj
 0001:000b0730       __acrt_enable_global_locale_sync 00000001400b1730 f i libucrtd:output.obj
 0001:000b0760       __acrt_isleadbyte_l_noupdate 00000001400b1760 f i libucrtd:output.obj
 0001:000b0790       __acrt_locale_changed      00000001400b1790 f i libucrtd:output.obj
 0001:000b07c0       __acrt_locale_get_ctype_array_value 00000001400b17c0 f i libucrtd:output.obj
 0001:000b0800       __ascii_iswalpha           00000001400b1800 f i libucrtd:output.obj
 0001:000b0840       __ascii_toupper            00000001400b1840 f i libucrtd:output.obj
 0001:000b0860       __ascii_towupper           00000001400b1860 f i libucrtd:output.obj
 0001:000b0880       __stdio_common_vfprintf    00000001400b1880 f   libucrtd:output.obj
 0001:000b0900       __stdio_common_vfprintf_p  00000001400b1900 f   libucrtd:output.obj
 0001:000b0980       __stdio_common_vfprintf_s  00000001400b1980 f   libucrtd:output.obj
 0001:000b0a00       __stdio_common_vfwprintf   00000001400b1a00 f   libucrtd:output.obj
 0001:000b0a80       __stdio_common_vfwprintf_p 00000001400b1a80 f   libucrtd:output.obj
 0001:000b0b00       __stdio_common_vfwprintf_s 00000001400b1b00 f   libucrtd:output.obj
 0001:000b0b80       __stdio_common_vsnprintf_s 00000001400b1b80 f   libucrtd:output.obj
 0001:000b0c10       __stdio_common_vsnwprintf_s 00000001400b1c10 f   libucrtd:output.obj
 0001:000b0ca0       __stdio_common_vsprintf    00000001400b1ca0 f   libucrtd:output.obj
 0001:000b0d30       __stdio_common_vsprintf_p  00000001400b1d30 f   libucrtd:output.obj
 0001:000b0dc0       __stdio_common_vsprintf_s  00000001400b1dc0 f   libucrtd:output.obj
 0001:000b0e50       __stdio_common_vswprintf   00000001400b1e50 f   libucrtd:output.obj
 0001:000b0ee0       __stdio_common_vswprintf_p 00000001400b1ee0 f   libucrtd:output.obj
 0001:000b0f70       __stdio_common_vswprintf_s 00000001400b1f70 f   libucrtd:output.obj
 0001:000b1000       _ctype_fast_check_internal 00000001400b2000 f i libucrtd:output.obj
 0001:000b1030       _isdigit_fast_internal     00000001400b2030 f i libucrtd:output.obj
 0001:000b1060       _tolower_fast_internal     00000001400b2060 f i libucrtd:output.obj
 0001:000b1100       _seh_filter_dll            00000001400b2100 f   libucrtd:exception_filter.obj
 0001:000b1130       _seh_filter_exe            00000001400b2130 f   libucrtd:exception_filter.obj
 0001:000b15d0       __acrt_report_runtime_error 00000001400b25d0 f   libucrtd:report_runtime_error.obj
 0001:000b1850       _invoke_watson_if_error    00000001400b2850 f i libucrtd:report_runtime_error.obj
 0001:000b18a0       _query_app_type            00000001400b28a0 f   libucrtd:report_runtime_error.obj
 0001:000b18b0       _set_app_type              00000001400b28b0 f   libucrtd:report_runtime_error.obj
 0001:000b18c0       ??$__crt_fast_decode_pointer@P6AHPEAU_exception@@@Z@@YAP6AHPEAU_exception@@@ZQ6AH0@Z@Z 00000001400b28c0 f i libucrtd:matherr.obj
 0001:000b1900       ??$__crt_fast_encode_pointer@P6AHPEAU_exception@@@Z@@YAP6AHPEAU_exception@@@ZQ6AH0@Z@Z 00000001400b2900 f i libucrtd:matherr.obj
 0001:000b1940       ?__crt_rotate_pointer_value@@YA_K_KH@Z 00000001400b2940 f i libucrtd:matherr.obj
 0001:000b1960       ?get_current_state_index@__crt_state_management@@YA_KXZ 00000001400b2960 f i libucrtd:matherr.obj
 0001:000b1970       ?initialize@?$dual_state_global@P6AHPEAU_exception@@@Z@__crt_state_management@@QEAAXQ6AHPEAU_exception@@@Z@Z 00000001400b2970 f i libucrtd:matherr.obj
 0001:000b19c0       ?value@?$dual_state_global@P6AHPEAU_exception@@@Z@__crt_state_management@@QEAAAEAP6AHPEAU_exception@@@ZXZ 00000001400b29c0 f i libucrtd:matherr.obj
 0001:000b19e0       __acrt_has_user_matherr    00000001400b29e0 f   libucrtd:matherr.obj
 0001:000b1a20       __acrt_initialize_user_matherr 00000001400b2a20 f   libucrtd:matherr.obj
 0001:000b1a40       __acrt_invoke_user_matherr 00000001400b2a40 f   libucrtd:matherr.obj
 0001:000b1ab0       __setusermatherr           00000001400b2ab0 f   libucrtd:matherr.obj
 0001:000b1af0       ??$?RE@__crt_internal_free_policy@@QEBAXQEBE@Z 00000001400b2af0 f i libucrtd:argv_parsing.obj
 0001:000b1b20       ??$?RPEAD@__crt_internal_free_policy@@QEBAXQEBQEAD@Z 00000001400b2b20 f i libucrtd:argv_parsing.obj
 0001:000b1b50       ??$?RPEA_W@__crt_internal_free_policy@@QEBAXQEBQEA_W@Z 00000001400b2b50 f i libucrtd:argv_parsing.obj
 0001:000b22a0       ??$get_module_file_name@$$TAEAY0BAF@DH@?$__crt_char_traits@D@@SAK$$QEA$$TAEAY0BAF@D$$QEAH@Z 00000001400b32a0 f i libucrtd:argv_parsing.obj
 0001:000b22e0       ??$get_module_file_name@$$TAEAY0BAF@_WH@?$__crt_char_traits@_W@@SAK$$QEA$$TAEAY0BAF@_W$$QEAH@Z 00000001400b32e0 f i libucrtd:argv_parsing.obj
 0001:000b2ce0       ??$set_program_name@PEAD@?$__crt_char_traits@D@@SAX$$QEAPEAD@Z 00000001400b3ce0 f i libucrtd:argv_parsing.obj
 0001:000b2d00       ??$set_program_name@PEA_W@?$__crt_char_traits@_W@@SAX$$QEAPEA_W@Z 00000001400b3d00 f i libucrtd:argv_parsing.obj
 0001:000b2d60       ??0?$__crt_unique_heap_ptr@EU__crt_internal_free_policy@@@@QEAA@QEAE@Z 00000001400b3d60 f i libucrtd:argv_parsing.obj
 0001:000b2d80       ??0?$__crt_unique_heap_ptr@PEADU__crt_internal_free_policy@@@@QEAA@QEAPEAD@Z 00000001400b3d80 f i libucrtd:argv_parsing.obj
 0001:000b2da0       ??0?$__crt_unique_heap_ptr@PEA_WU__crt_internal_free_policy@@@@QEAA@QEAPEA_W@Z 00000001400b3da0 f i libucrtd:argv_parsing.obj
 0001:000b2dc0       ??1?$__crt_unique_heap_ptr@EU__crt_internal_free_policy@@@@QEAA@XZ 00000001400b3dc0 f i libucrtd:argv_parsing.obj
 0001:000b2de0       ??1?$__crt_unique_heap_ptr@PEADU__crt_internal_free_policy@@@@QEAA@XZ 00000001400b3de0 f i libucrtd:argv_parsing.obj
 0001:000b2e00       ??1?$__crt_unique_heap_ptr@PEA_WU__crt_internal_free_policy@@@@QEAA@XZ 00000001400b3e00 f i libucrtd:argv_parsing.obj
 0001:000b2e20       ??B?$__crt_unique_heap_ptr@EU__crt_internal_free_policy@@@@QEBA_NXZ 00000001400b3e20 f i libucrtd:argv_parsing.obj
 0001:000b2f00       ?detach@?$__crt_unique_heap_ptr@EU__crt_internal_free_policy@@@@QEAAPEAEXZ 00000001400b3f00 f i libucrtd:argv_parsing.obj
 0001:000b2f30       ?detach@?$__crt_unique_heap_ptr@PEADU__crt_internal_free_policy@@@@QEAAPEAPEADXZ 00000001400b3f30 f i libucrtd:argv_parsing.obj
 0001:000b2f60       ?detach@?$__crt_unique_heap_ptr@PEA_WU__crt_internal_free_policy@@@@QEAAPEAPEA_WXZ 00000001400b3f60 f i libucrtd:argv_parsing.obj
 0001:000b3020       ?get@?$__crt_unique_heap_ptr@EU__crt_internal_free_policy@@@@QEBAPEAEXZ 00000001400b4020 f i libucrtd:argv_parsing.obj
 0001:000b3030       ?get@?$__crt_unique_heap_ptr@PEADU__crt_internal_free_policy@@@@QEBAPEAPEADXZ 00000001400b4030 f i libucrtd:argv_parsing.obj
 0001:000b3040       ?get@?$__crt_unique_heap_ptr@PEA_WU__crt_internal_free_policy@@@@QEBAPEAPEA_WXZ 00000001400b4040 f i libucrtd:argv_parsing.obj
 0001:000b3050       ?get_address_of@?$__crt_unique_heap_ptr@PEADU__crt_internal_free_policy@@@@QEAAPEAPEAPEADXZ 00000001400b4050 f i libucrtd:argv_parsing.obj
 0001:000b3060       ?get_address_of@?$__crt_unique_heap_ptr@PEA_WU__crt_internal_free_policy@@@@QEAAPEAPEAPEA_WXZ 00000001400b4060 f i libucrtd:argv_parsing.obj
 0001:000b30b0       ?is_valid@?$__crt_unique_heap_ptr@EU__crt_internal_free_policy@@@@QEBA_NXZ 00000001400b40b0 f i libucrtd:argv_parsing.obj
 0001:000b30e0       ?release@?$__crt_unique_heap_ptr@EU__crt_internal_free_policy@@@@QEAAXXZ 00000001400b40e0 f i libucrtd:argv_parsing.obj
 0001:000b3110       ?release@?$__crt_unique_heap_ptr@PEADU__crt_internal_free_policy@@@@QEAAXXZ 00000001400b4110 f i libucrtd:argv_parsing.obj
 0001:000b3140       ?release@?$__crt_unique_heap_ptr@PEA_WU__crt_internal_free_policy@@@@QEAAXXZ 00000001400b4140 f i libucrtd:argv_parsing.obj
 0001:000b31c0       __acrt_allocate_buffer_for_argv 00000001400b41c0 f   libucrtd:argv_parsing.obj
 0001:000b32e0       _configure_narrow_argv     00000001400b42e0 f   libucrtd:argv_parsing.obj
 0001:000b3300       _configure_wide_argv       00000001400b4300 f   libucrtd:argv_parsing.obj
 0001:000b3320       _set_pgmptr                00000001400b4320 f i libucrtd:argv_parsing.obj
 0001:000b3340       _set_wpgmptr               00000001400b4340 f i libucrtd:argv_parsing.obj
 0001:000b3360       ??$?R_W@__crt_internal_free_policy@@QEBAXQEB_W@Z 00000001400b4360 f i libucrtd:environment_initialization.obj
 0001:000b3d20       ??$get_environment_from_os@$$V@?$__crt_char_traits@D@@SAPEADXZ 00000001400b4d20 f i libucrtd:environment_initialization.obj
 0001:000b3d30       ??$get_environment_from_os@$$V@?$__crt_char_traits@_W@@SAPEA_WXZ 00000001400b4d30 f i libucrtd:environment_initialization.obj
 0001:000b4040       ??$set_variable_in_environment_nolock@PEADH@?$__crt_char_traits@D@@SAH$$QEAPEAD$$QEAH@Z 00000001400b5040 f i libucrtd:environment_initialization.obj
 0001:000b4070       ??$set_variable_in_environment_nolock@PEA_WH@?$__crt_char_traits@_W@@SAH$$QEAPEA_W$$QEAH@Z 00000001400b5070 f i libucrtd:environment_initialization.obj
 0001:000b40a0       ??$tcscpy_s@PEADAEB_KAEAPEAD@?$__crt_char_traits@D@@SAH$$QEAPEADAEB_KAEAPEAD@Z 00000001400b50a0 f i libucrtd:environment_initialization.obj
 0001:000b40e0       ??$tcscpy_s@PEA_WAEB_KAEAPEA_W@?$__crt_char_traits@_W@@SAH$$QEAPEA_WAEB_KAEAPEA_W@Z 00000001400b50e0 f i libucrtd:environment_initialization.obj
 0001:000b4120       ??$tcslen@AEAPEAD@?$__crt_char_traits@D@@SA_KAEAPEAD@Z 00000001400b5120 f i libucrtd:environment_initialization.obj
 0001:000b4140       ??$tcslen@AEAPEA_W@?$__crt_char_traits@_W@@SA_KAEAPEA_W@Z 00000001400b5140 f i libucrtd:environment_initialization.obj
 0001:000b4160       ??$uninitialize@A6AXAEAPEAPEAD@_E@?$dual_state_global@PEAPEAD@__crt_state_management@@QEAAXA6AXAEAPEAPEAD@_E@Z 00000001400b5160 f i libucrtd:environment_initialization.obj
 0001:000b41e0       ??$uninitialize@A6AXAEAPEAPEA_W@_E@?$dual_state_global@PEAPEA_W@__crt_state_management@@QEAAXA6AXAEAPEAPEA_W@_E@Z 00000001400b51e0 f i libucrtd:environment_initialization.obj
 0001:000b42e0       ??0?$__crt_unique_heap_ptr@_WU__crt_internal_free_policy@@@@QEAA@QEA_W@Z 00000001400b52e0 f i libucrtd:environment_initialization.obj
 0001:000b4300       ??1?$__crt_unique_heap_ptr@_WU__crt_internal_free_policy@@@@QEAA@XZ 00000001400b5300 f i libucrtd:environment_initialization.obj
 0001:000b4320       ??B?$__crt_unique_heap_ptr@PEADU__crt_internal_free_policy@@@@QEBA_NXZ 00000001400b5320 f i libucrtd:environment_initialization.obj
 0001:000b4340       ??B?$__crt_unique_heap_ptr@PEA_WU__crt_internal_free_policy@@@@QEBA_NXZ 00000001400b5340 f i libucrtd:environment_initialization.obj
 0001:000b4360       ??B?$__crt_unique_heap_ptr@_WU__crt_internal_free_policy@@@@QEBA_NXZ 00000001400b5360 f i libucrtd:environment_initialization.obj
 0001:000b4380       ?__crt_compute_required_transform_buffer_count@@YA_KIQEBD@Z 00000001400b5380 f i libucrtd:environment_initialization.obj
 0001:000b43c0       ?__crt_compute_required_transform_buffer_count@@YA_KIQEB_W@Z 00000001400b53c0 f i libucrtd:environment_initialization.obj
 0001:000b4410       ?__crt_transform_string@@YA_KIQEBDQEA_W_K@Z 00000001400b5410 f i libucrtd:environment_initialization.obj
 0001:000b4460       ?__crt_transform_string@@YA_KIQEB_WQEAD_K@Z 00000001400b5460 f i libucrtd:environment_initialization.obj
 0001:000b44c0       ?detach@?$__crt_unique_heap_ptr@DU__crt_internal_free_policy@@@@QEAAPEADXZ 00000001400b54c0 f i libucrtd:environment_initialization.obj
 0001:000b44f0       ?detach@?$__crt_unique_heap_ptr@_WU__crt_internal_free_policy@@@@QEAAPEA_WXZ 00000001400b54f0 f i libucrtd:environment_initialization.obj
 0001:000b4520       ?get@?$__crt_unique_heap_ptr@_WU__crt_internal_free_policy@@@@QEBAPEA_WXZ 00000001400b5520 f i libucrtd:environment_initialization.obj
 0001:000b45b0       ?initialize@?$dual_state_global@PEAPEAD@__crt_state_management@@QEAAXQEAPEAD@Z 00000001400b55b0 f i libucrtd:environment_initialization.obj
 0001:000b4600       ?initialize@?$dual_state_global@PEAPEA_W@__crt_state_management@@QEAAXQEAPEA_W@Z 00000001400b5600 f i libucrtd:environment_initialization.obj
 0001:000b4650       ?is_valid@?$__crt_unique_heap_ptr@PEADU__crt_internal_free_policy@@@@QEBA_NXZ 00000001400b5650 f i libucrtd:environment_initialization.obj
 0001:000b4680       ?is_valid@?$__crt_unique_heap_ptr@PEA_WU__crt_internal_free_policy@@@@QEBA_NXZ 00000001400b5680 f i libucrtd:environment_initialization.obj
 0001:000b46b0       ?is_valid@?$__crt_unique_heap_ptr@_WU__crt_internal_free_policy@@@@QEBA_NXZ 00000001400b56b0 f i libucrtd:environment_initialization.obj
 0001:000b4710       ?release@?$__crt_unique_heap_ptr@_WU__crt_internal_free_policy@@@@QEAAXXZ 00000001400b5710 f i libucrtd:environment_initialization.obj
 0001:000b4740       ?value@?$dual_state_global@PEAPEAD@__crt_state_management@@QEAAAEAPEAPEADXZ 00000001400b5740 f i libucrtd:environment_initialization.obj
 0001:000b4760       ?value@?$dual_state_global@PEAPEA_W@__crt_state_management@@QEAAAEAPEAPEA_WXZ 00000001400b5760 f i libucrtd:environment_initialization.obj
 0001:000b4780       __dcrt_get_or_create_narrow_environment_nolock 00000001400b5780 f   libucrtd:environment_initialization.obj
 0001:000b4790       __dcrt_get_or_create_wide_environment_nolock 00000001400b5790 f   libucrtd:environment_initialization.obj
 0001:000b47a0       __dcrt_uninitialize_environments_nolock 00000001400b57a0 f   libucrtd:environment_initialization.obj
 0001:000b47f0       __p__environ               00000001400b57f0 f   libucrtd:environment_initialization.obj
 0001:000b4810       __p__wenviron              00000001400b5810 f   libucrtd:environment_initialization.obj
 0001:000b4830       _get_initial_narrow_environment 00000001400b5830 f   libucrtd:environment_initialization.obj
 0001:000b4840       _get_initial_wide_environment 00000001400b5840 f   libucrtd:environment_initialization.obj
 0001:000b4850       _initialize_narrow_environment 00000001400b5850 f   libucrtd:environment_initialization.obj
 0001:000b4860       _initialize_wide_environment 00000001400b5860 f   libucrtd:environment_initialization.obj
 0001:000b4870       _initterm                  00000001400b5870 f   libucrtd:initterm.obj
 0001:000b48e0       _initterm_e                00000001400b58e0 f   libucrtd:initterm.obj
 0001:000b4960       ??$?B$$A6AXPEAXK0@Z@__crt_fast_encoded_nullptr_t@@QEBAP6AXPEAXK0@ZXZ 00000001400b5960 f i libucrtd:exit.obj
 0001:000b4a20       ??$__crt_fast_decode_pointer@P6AXPEAXK0@Z@@YAP6AXPEAXK0@ZQ6AX0K0@Z@Z 00000001400b5a20 f i libucrtd:exit.obj
 0001:000b4a60       ??$__crt_fast_encode_pointer@P6AXPEAXK0@Z@@YAP6AXPEAXK0@ZQ6AX0K0@Z@Z 00000001400b5a60 f i libucrtd:exit.obj
 0001:000b4aa0       ??$__crt_get_proc_address@P6AXI@Z@@YAP6AXI@ZQEAUHINSTANCE__@@QEBD@Z 00000001400b5aa0 f i libucrtd:exit.obj
 0001:000b4b60       ??0?$__crt_unique_handle_t@U__crt_hmodule_traits@@@@QEAA@QEAUHINSTANCE__@@@Z 00000001400b5b60 f i libucrtd:exit.obj
 0001:000b4b80       ??1?$__crt_unique_handle_t@U__crt_hmodule_traits@@@@QEAA@XZ 00000001400b5b80 f i libucrtd:exit.obj
 0001:000b4d00       ?__acrt_select_exit_lock@@YA?AW4__acrt_lock_id@@XZ 00000001400b5d00 f i libucrtd:exit.obj
 0001:000b4d10       ?__crt_fast_encode_pointer@@YA?AU__crt_fast_encoded_nullptr_t@@$$T@Z 00000001400b5d10 f i libucrtd:exit.obj
 0001:000b4d50       ?close@?$__crt_unique_handle_t@U__crt_hmodule_traits@@@@QEAAXXZ 00000001400b5d50 f i libucrtd:exit.obj
 0001:000b4d90       ?close@__crt_hmodule_traits@@SA_NPEAUHINSTANCE__@@@Z 00000001400b5d90 f i libucrtd:exit.obj
 0001:000b4eb0       ?get@?$__crt_unique_handle_t@U__crt_hmodule_traits@@@@QEBAPEAUHINSTANCE__@@XZ 00000001400b5eb0 f i libucrtd:exit.obj
 0001:000b4ec0       ?get_address_of@?$__crt_unique_handle_t@U__crt_hmodule_traits@@@@QEAAPEAPEAUHINSTANCE__@@XZ 00000001400b5ec0 f i libucrtd:exit.obj
 0001:000b4ed0       ?get_invalid_value@__crt_hmodule_traits@@SAPEAUHINSTANCE__@@XZ 00000001400b5ed0 f i libucrtd:exit.obj
 0001:000b5080       _Exit                      00000001400b6080 f   libucrtd:exit.obj
 0001:000b50a0       __acrt_initialize_thread_local_exit_callback 00000001400b60a0 f   libucrtd:exit.obj
 0001:000b50c0       _c_exit                    00000001400b60c0 f   libucrtd:exit.obj
 0001:000b50e0       _cexit                     00000001400b60e0 f   libucrtd:exit.obj
 0001:000b5100       _exit                      00000001400b6100 f   libucrtd:exit.obj
 0001:000b5120       _is_c_termination_complete 00000001400b6120 f   libucrtd:exit.obj
 0001:000b5140       _register_thread_local_exe_atexit_callback 00000001400b6140 f   libucrtd:exit.obj
 0001:000b5190       exit                       00000001400b6190 f   libucrtd:exit.obj
 0001:000b51b0       quick_exit                 00000001400b61b0 f   libucrtd:exit.obj
 0001:000b51d0       ??$__crt_interlocked_read@H@@YAHPEDH@Z 00000001400b61d0 f i libucrtd:setmode.obj
 0001:000b51f0       ?value@?$dual_state_global@H@__crt_state_management@@QEAAAEAHXZ 00000001400b61f0 f i libucrtd:setmode.obj
 0001:000b5210       _get_fmode                 00000001400b6210 f   libucrtd:setmode.obj
 0001:000b52e0       _set_fmode                 00000001400b62e0 f   libucrtd:setmode.obj
 0001:000b53c0       _setmode                   00000001400b63c0 f   libucrtd:setmode.obj
 0001:000b56f0       _setmode_nolock            00000001400b66f0 f   libucrtd:setmode.obj
 0001:000b59b0       __acrt_initialize_command_line 00000001400b69b0 f   libucrtd:argv_data.obj
 0001:000b59e0       __acrt_uninitialize_command_line 00000001400b69e0 f   libucrtd:argv_data.obj
 0001:000b59f0       __p___argc                 00000001400b69f0 f   libucrtd:argv_data.obj
 0001:000b5a00       __p___argv                 00000001400b6a00 f   libucrtd:argv_data.obj
 0001:000b5a10       __p___wargv                00000001400b6a10 f   libucrtd:argv_data.obj
 0001:000b5a20       __p__acmdln                00000001400b6a20 f   libucrtd:argv_data.obj
 0001:000b5a30       __p__pgmptr                00000001400b6a30 f   libucrtd:argv_data.obj
 0001:000b5a40       __p__wcmdln                00000001400b6a40 f   libucrtd:argv_data.obj
 0001:000b5a50       __p__wpgmptr               00000001400b6a50 f   libucrtd:argv_data.obj
 0001:000b5a60       _get_pgmptr                00000001400b6a60 f   libucrtd:argv_data.obj
 0001:000b5bd0       _get_wpgmptr               00000001400b6bd0 f   libucrtd:argv_data.obj
 0001:000b5d50       ??$?RU__crt_locale_data@@@__crt_internal_free_policy@@QEBAXQEBU__crt_locale_data@@@Z 00000001400b6d50 f i libucrtd:wsetlocale.obj
 0001:000b5d80       ??$?RU__crt_locale_pointers@@@__crt_internal_free_policy@@QEBAXQEBU__crt_locale_pointers@@@Z 00000001400b6d80 f i libucrtd:wsetlocale.obj
 0001:000b5db0       ??$?RU__crt_multibyte_data@@@__crt_internal_free_policy@@QEBAXQEBU__crt_multibyte_data@@@Z 00000001400b6db0 f i libucrtd:wsetlocale.obj
 0001:000b6360       ??0?$__crt_unique_heap_ptr@U__crt_locale_data@@U__crt_internal_free_policy@@@@QEAA@QEAU__crt_locale_data@@@Z 00000001400b7360 f i libucrtd:wsetlocale.obj
 0001:000b6380       ??0?$__crt_unique_heap_ptr@U__crt_locale_pointers@@U__crt_internal_free_policy@@@@QEAA@QEAU__crt_locale_pointers@@@Z 00000001400b7380 f i libucrtd:wsetlocale.obj
 0001:000b63a0       ??0?$__crt_unique_heap_ptr@U__crt_multibyte_data@@U__crt_internal_free_policy@@@@QEAA@QEAU__crt_multibyte_data@@@Z 00000001400b73a0 f i libucrtd:wsetlocale.obj
 0001:000b63c0       ??0_expandlocale_locale_name_cache@@QEAA@QEA_W_KQEAU__crt_qualified_locale_data@@@Z 00000001400b73c0 f i libucrtd:wsetlocale.obj
 0001:000b6470       ??1?$__crt_unique_heap_ptr@U__crt_locale_data@@U__crt_internal_free_policy@@@@QEAA@XZ 00000001400b7470 f i libucrtd:wsetlocale.obj
 0001:000b6490       ??1?$__crt_unique_heap_ptr@U__crt_locale_pointers@@U__crt_internal_free_policy@@@@QEAA@XZ 00000001400b7490 f i libucrtd:wsetlocale.obj
 0001:000b64b0       ??1?$__crt_unique_heap_ptr@U__crt_multibyte_data@@U__crt_internal_free_policy@@@@QEAA@XZ 00000001400b74b0 f i libucrtd:wsetlocale.obj
 0001:000b64d0       ??1_expandlocale_locale_name_cache@@QEAA@XZ 00000001400b74d0 f i libucrtd:wsetlocale.obj
 0001:000b6550       ??B?$__crt_unique_heap_ptr@U__crt_locale_data@@U__crt_internal_free_policy@@@@QEBA_NXZ 00000001400b7550 f i libucrtd:wsetlocale.obj
 0001:000b6570       ??B?$__crt_unique_heap_ptr@U__crt_locale_pointers@@U__crt_internal_free_policy@@@@QEBA_NXZ 00000001400b7570 f i libucrtd:wsetlocale.obj
 0001:000b6590       ??B?$__crt_unique_heap_ptr@U__crt_multibyte_data@@U__crt_internal_free_policy@@@@QEBA_NXZ 00000001400b7590 f i libucrtd:wsetlocale.obj
 0001:000b6a40       ?commit_locale_name@_expandlocale_locale_name_cache@@QEAAXQEB_W_K@Z 00000001400b7a40 f i libucrtd:wsetlocale.obj
 0001:000b6ac0       ?commit_locale_name_cache_already_updated@_expandlocale_locale_name_cache@@QEAAXQEB_W_K@Z 00000001400b7ac0 f i libucrtd:wsetlocale.obj
 0001:000b6b30       ?detach@?$__crt_unique_heap_ptr@U__crt_locale_data@@U__crt_internal_free_policy@@@@QEAAPEAU__crt_locale_data@@XZ 00000001400b7b30 f i libucrtd:wsetlocale.obj
 0001:000b6b60       ?detach@?$__crt_unique_heap_ptr@U__crt_locale_pointers@@U__crt_internal_free_policy@@@@QEAAPEAU__crt_locale_pointers@@XZ 00000001400b7b60 f i libucrtd:wsetlocale.obj
 0001:000b6b90       ?detach@?$__crt_unique_heap_ptr@U__crt_multibyte_data@@U__crt_internal_free_policy@@@@QEAAPEAU__crt_multibyte_data@@XZ 00000001400b7b90 f i libucrtd:wsetlocale.obj
 0001:000b6bc0       ?get@?$__crt_unique_heap_ptr@U__crt_locale_data@@U__crt_internal_free_policy@@@@QEBAPEAU__crt_locale_data@@XZ 00000001400b7bc0 f i libucrtd:wsetlocale.obj
 0001:000b6bd0       ?get@?$__crt_unique_heap_ptr@U__crt_locale_pointers@@U__crt_internal_free_policy@@@@QEBAPEAU__crt_locale_pointers@@XZ 00000001400b7bd0 f i libucrtd:wsetlocale.obj
 0001:000b6be0       ?get@?$__crt_unique_heap_ptr@U__crt_multibyte_data@@U__crt_internal_free_policy@@@@QEBAPEAU__crt_multibyte_data@@XZ 00000001400b7be0 f i libucrtd:wsetlocale.obj
 0001:000b6bf0       ?is_valid@?$__crt_unique_heap_ptr@U__crt_locale_data@@U__crt_internal_free_policy@@@@QEBA_NXZ 00000001400b7bf0 f i libucrtd:wsetlocale.obj
 0001:000b6c20       ?is_valid@?$__crt_unique_heap_ptr@U__crt_locale_pointers@@U__crt_internal_free_policy@@@@QEBA_NXZ 00000001400b7c20 f i libucrtd:wsetlocale.obj
 0001:000b6c50       ?is_valid@?$__crt_unique_heap_ptr@U__crt_multibyte_data@@U__crt_internal_free_policy@@@@QEBA_NXZ 00000001400b7c50 f i libucrtd:wsetlocale.obj
 0001:000b6c80       ?release@?$__crt_unique_heap_ptr@U__crt_locale_data@@U__crt_internal_free_policy@@@@QEAAXXZ 00000001400b7c80 f i libucrtd:wsetlocale.obj
 0001:000b6cb0       ?release@?$__crt_unique_heap_ptr@U__crt_locale_pointers@@U__crt_internal_free_policy@@@@QEAAXXZ 00000001400b7cb0 f i libucrtd:wsetlocale.obj
 0001:000b6ce0       ?release@?$__crt_unique_heap_ptr@U__crt_multibyte_data@@U__crt_internal_free_policy@@@@QEAAXXZ 00000001400b7ce0 f i libucrtd:wsetlocale.obj
 0001:000b6d10       ?value@?$dual_state_global@PEAU__crt_locale_data@@@__crt_state_management@@QEAAAEAPEAU__crt_locale_data@@XZ 00000001400b7d10 f i libucrtd:wsetlocale.obj
 0001:000b6d30       __acrt_copy_locale_name    00000001400b7d30 f   libucrtd:wsetlocale.obj
 0001:000b6e00       __acrt_set_locale_changed  00000001400b7e00 f   libucrtd:wsetlocale.obj
 0001:000b6e10       __acrt_uninitialize_locale 00000001400b7e10 f   libucrtd:wsetlocale.obj
 0001:000b6e40       __ascii_tolower            00000001400b7e40 f i libucrtd:wsetlocale.obj
 0001:000b6e60       __ascii_towlower           00000001400b7e60 f i libucrtd:wsetlocale.obj
 0001:000b6e80       __lc_lctowcs               00000001400b7e80 f   libucrtd:wsetlocale.obj
 0001:000b6f70       __lc_wcstolc               00000001400b7f70 f   libucrtd:wsetlocale.obj
 0001:000b7230       _configthreadlocale        00000001400b8230 f   libucrtd:wsetlocale.obj
 0001:000b73f0       _create_locale             00000001400b83f0 f   libucrtd:wsetlocale.obj
 0001:000b7af0       _free_locale               00000001400b8af0 f   libucrtd:wsetlocale.obj
 0001:000b7be0       _get_current_locale        00000001400b8be0 f   libucrtd:wsetlocale.obj
 0001:000b7d00       _wcreate_locale            00000001400b8d00 f   libucrtd:wsetlocale.obj
 0001:000b8000       _wcscats                   00000001400b9000 f   libucrtd:wsetlocale.obj
 0001:000b80e0       _wsetlocale                00000001400b90e0 f   libucrtd:wsetlocale.obj
 0001:000b9d00       ?value@?$dual_state_global@J@__crt_state_management@@QEAAAEAJXZ 00000001400bad00 f i libucrtd:new_mode.obj
 0001:000b9d20       _query_new_mode            00000001400bad20 f   libucrtd:new_mode.obj
 0001:000b9d40       _set_new_mode              00000001400bad40 f   libucrtd:new_mode.obj
 0001:000b9e10       __p__commode               00000001400bae10 f   libucrtd:ncommode.obj
 0001:000b9e20       ??$?B$$A6AXXZ@__crt_fast_encoded_nullptr_t@@QEBAP6AXXZXZ 00000001400bae20 f i libucrtd:onexit.obj
 0001:000b9e40       ??$?BP6AXXZ@__crt_fast_encoded_nullptr_t@@QEBAPEAP6AXXZXZ 00000001400bae40 f i libucrtd:onexit.obj
 0001:000b9e60       ??$?RP6AXXZ@__crt_internal_free_policy@@QEBAXQEBQ6AXXZ@Z 00000001400bae60 f i libucrtd:onexit.obj
 0001:000b9ff0       ??$__crt_fast_decode_pointer@P6AXXZ@@YAP6AXXZQ6AXXZ@Z 00000001400baff0 f i libucrtd:onexit.obj
 0001:000ba030       ??$__crt_fast_decode_pointer@PEAP6AXXZ@@YAPEAP6AXXZQEAP6AXXZ@Z 00000001400bb030 f i libucrtd:onexit.obj
 0001:000ba070       ??$__crt_fast_encode_pointer@P6AHXZ@@YAP6AHXZQ6AHXZ@Z 00000001400bb070 f i libucrtd:onexit.obj
 0001:000ba0b0       ??$__crt_fast_encode_pointer@P6AXXZ@@YAP6AXXZQ6AXXZ@Z 00000001400bb0b0 f i libucrtd:onexit.obj
 0001:000ba0f0       ??$__crt_fast_encode_pointer@PEAP6AXXZ@@YAPEAP6AXXZQEAP6AXXZ@Z 00000001400bb0f0 f i libucrtd:onexit.obj
 0001:000ba200       ??0?$__crt_unique_heap_ptr@P6AXXZU__crt_internal_free_policy@@@@QEAA@QEAP6AXXZ@Z 00000001400bb200 f i libucrtd:onexit.obj
 0001:000ba220       ??1?$__crt_unique_heap_ptr@P6AXXZU__crt_internal_free_policy@@@@QEAA@XZ 00000001400bb220 f i libucrtd:onexit.obj
 0001:000ba240       ??1scoped_global_state_reset@__crt_state_management@@QEAA@XZ 00000001400bb240 f i libucrtd:onexit.obj
 0001:000ba840       ?detach@?$__crt_unique_heap_ptr@P6AXXZU__crt_internal_free_policy@@@@QEAAPEAP6AXXZXZ 00000001400bb840 f i libucrtd:onexit.obj
 0001:000ba870       ?release@?$__crt_unique_heap_ptr@P6AXXZU__crt_internal_free_policy@@@@QEAAXXZ 00000001400bb870 f i libucrtd:onexit.obj
 0001:000ba8a0       _crt_at_quick_exit         00000001400bb8a0 f   libucrtd:onexit.obj
 0001:000ba8c0       _crt_atexit                00000001400bb8c0 f   libucrtd:onexit.obj
 0001:000ba8e0       _execute_onexit_table      00000001400bb8e0 f   libucrtd:onexit.obj
 0001:000ba920       _initialize_onexit_table   00000001400bb920 f   libucrtd:onexit.obj
 0001:000ba9a0       _register_onexit_function  00000001400bb9a0 f   libucrtd:onexit.obj
 0001:000bac20       ??$?BX@__crt_fast_encoded_nullptr_t@@QEBAPEAXXZ 00000001400bbc20 f i libucrtd:initialization.obj
 0001:000bac40       ??$__crt_fast_encode_pointer@PEAX@@YAPEAXQEAX@Z 00000001400bbc40 f i libucrtd:initialization.obj
 0001:000bad40       ?initialize@?$dual_state_global@PEAU__crt_locale_data@@@__crt_state_management@@QEAAXQEAU__crt_locale_data@@@Z 00000001400bbd40 f i libucrtd:initialization.obj
 0001:000bad90       __acrt_initialize          00000001400bbd90 f   libucrtd:initialization.obj
 0001:000badc0       __acrt_thread_attach       00000001400bbdc0 f   libucrtd:initialization.obj
 0001:000bade0       __acrt_thread_detach       00000001400bbde0 f   libucrtd:initialization.obj
 0001:000badf0       __acrt_uninitialize        00000001400bbdf0 f   libucrtd:initialization.obj
 0001:000bae20       __acrt_uninitialize_critical 00000001400bbe20 f   libucrtd:initialization.obj
 0001:000bae80       _get_terminate             00000001400bbe80 f   libucrtd:terminate.obj
 0001:000baea0       set_terminate              00000001400bbea0 f   libucrtd:terminate.obj
 0001:000baee0       terminate                  00000001400bbee0 f   libucrtd:terminate.obj
 0001:000baf30       ??0_LocaleUpdate@@QEAA@QEAU__crt_locale_pointers@@@Z 00000001400bbf30 f i libucrtd:debug_heap.obj
 0001:000bb050       ??1_LocaleUpdate@@QEAA@XZ  00000001400bc050 f i libucrtd:debug_heap.obj
 0001:000bb080       ?GetLocaleT@_LocaleUpdate@@QEAAPEAU__crt_locale_pointers@@XZ 00000001400bc080 f i libucrtd:debug_heap.obj
 0001:000bd430       _CrtCheckMemory            00000001400be430 f   libucrtd:debug_heap.obj
 0001:000bd5c0       _CrtDoForAllClientObjects  00000001400be5c0 f   libucrtd:debug_heap.obj
 0001:000bd710       _CrtDumpMemoryLeaks        00000001400be710 f   libucrtd:debug_heap.obj
 0001:000bd7d0       _CrtGetAllocHook           00000001400be7d0 f   libucrtd:debug_heap.obj
 0001:000bd7e0       _CrtGetDumpClient          00000001400be7e0 f   libucrtd:debug_heap.obj
 0001:000bd7f0       _CrtIsMemoryBlock          00000001400be7f0 f   libucrtd:debug_heap.obj
 0001:000bd930       _CrtIsValidHeapPointer     00000001400be930 f   libucrtd:debug_heap.obj
 0001:000bd980       _CrtIsValidPointer         00000001400be980 f   libucrtd:debug_heap.obj
 0001:000bd9c0       _CrtMemCheckpoint          00000001400be9c0 f   libucrtd:debug_heap.obj
 0001:000bdc40       _CrtMemDifference          00000001400bec40 f   libucrtd:debug_heap.obj
 0001:000bdfa0       _CrtMemDumpAllObjectsSince 00000001400befa0 f   libucrtd:debug_heap.obj
 0001:000be000       _CrtMemDumpStatistics      00000001400bf000 f   libucrtd:debug_heap.obj
 0001:000be1a0       _CrtReportBlockType        00000001400bf1a0 f   libucrtd:debug_heap.obj
 0001:000be1d0       _CrtSetAllocHook           00000001400bf1d0 f   libucrtd:debug_heap.obj
 0001:000be200       _CrtSetBreakAlloc          00000001400bf200 f   libucrtd:debug_heap.obj
 0001:000be230       _CrtSetDbgBlockType        00000001400bf230 f   libucrtd:debug_heap.obj
 0001:000be2d0       _CrtSetDbgFlag             00000001400bf2d0 f   libucrtd:debug_heap.obj
 0001:000be430       _CrtSetDumpClient          00000001400bf430 f   libucrtd:debug_heap.obj
 0001:000be460       __acrt_get_locale_data_prefix 00000001400bf460 f i libucrtd:debug_heap.obj
 0001:000be480       __p__crtBreakAlloc         00000001400bf480 f   libucrtd:debug_heap.obj
 0001:000be490       __p__crtDbgFlag            00000001400bf490 f   libucrtd:debug_heap.obj
 0001:000be4a0       _aligned_free_dbg          00000001400bf4a0 f   libucrtd:debug_heap.obj
 0001:000be590       _aligned_malloc_dbg        00000001400bf590 f   libucrtd:debug_heap.obj
 0001:000be5d0       _aligned_msize_dbg         00000001400bf5d0 f   libucrtd:debug_heap.obj
 0001:000be7a0       _aligned_offset_malloc_dbg 00000001400bf7a0 f   libucrtd:debug_heap.obj
 0001:000bea90       _aligned_offset_realloc_dbg 00000001400bfa90 f   libucrtd:debug_heap.obj
 0001:000bef40       _aligned_offset_recalloc_dbg 00000001400bff40 f   libucrtd:debug_heap.obj
 0001:000bf060       _aligned_realloc_dbg       00000001400c0060 f   libucrtd:debug_heap.obj
 0001:000bf0b0       _aligned_recalloc_dbg      00000001400c00b0 f   libucrtd:debug_heap.obj
 0001:000bf110       _calloc_dbg                00000001400c0110 f   libucrtd:debug_heap.obj
 0001:000bf1b0       _chvalidchk_l              00000001400c01b0 f i libucrtd:debug_heap.obj
 0001:000bf1e0       _expand_dbg                00000001400c01e0 f   libucrtd:debug_heap.obj
 0001:000bf310       _free_dbg                  00000001400c0310 f   libucrtd:debug_heap.obj
 0001:000bf380       _invoke_watson_if_oneof    00000001400c0380 f i libucrtd:debug_heap.obj
 0001:000bf3e0       _ischartype_l              00000001400c03e0 f i libucrtd:debug_heap.obj
 0001:000bf470       _malloc_dbg                00000001400c0470 f   libucrtd:debug_heap.obj
 0001:000bf4b0       _msize_dbg                 00000001400c04b0 f   libucrtd:debug_heap.obj
 0001:000bf650       _realloc_dbg               00000001400c0650 f   libucrtd:debug_heap.obj
 0001:000bf6c0       _recalloc_dbg              00000001400c06c0 f   libucrtd:debug_heap.obj
 0001:000bfca0       strcpy_s                   00000001400c0ca0 f   libucrtd:strcpy_s.obj
 0001:000bfce0       strcmp                     00000001400c0ce0 f   libucrtd:strcmp.obj
 0001:000bfd60       strlen                     00000001400c0d60 f   libucrtd:strlen.obj
 0001:000bfe10       _set_abort_behavior        00000001400c0e10 f   libucrtd:abort.obj
 0001:000bfe50       abort                      00000001400c0e50 f   libucrtd:abort.obj
 0001:000bfed0       ??$__crt_fast_decode_pointer@P6AXPEB_W00I_K@Z@@YAP6AXPEB_W00I_K@ZQ6AX000I1@Z@Z 00000001400c0ed0 f i libucrtd:invalid_parameter.obj
 0001:000bff10       ??$__crt_fast_encode_pointer@P6AXPEB_W00I_K@Z@@YAP6AXPEB_W00I_K@ZQ6AX000I1@Z@Z 00000001400c0f10 f i libucrtd:invalid_parameter.obj
 0001:000bff50       ??$initialize_from_array@$$BY00Q6AXPEB_W00I_K@Z@?$dual_state_global@P6AXPEB_W00I_K@Z@__crt_state_management@@QEAAXAEAY00Q6AXPEB_W00I_K@Z@Z 00000001400c0f50 f i libucrtd:invalid_parameter.obj
 0001:000c0050       ?check_synchronize_global_state_index@__crt_cached_ptd_host@@AEAA_KXZ 00000001400c1050 f i libucrtd:invalid_parameter.obj
 0001:000c00b0       ?dangerous_get_state_array@?$dual_state_global@P6AXPEB_W00I_K@Z@__crt_state_management@@QEAAPEAP6AXPEB_W00I_K@ZXZ 00000001400c10b0 f i libucrtd:invalid_parameter.obj
 0001:000c00c0       ?get_current_global_state_index@__crt_cached_ptd_host@@QEAA_KXZ 00000001400c10c0 f i libucrtd:invalid_parameter.obj
 0001:000c00e0       ?get_raw_ptd_noexit@__crt_cached_ptd_host@@QEAAPEAU__acrt_ptd@@XZ 00000001400c10e0 f i libucrtd:invalid_parameter.obj
 0001:000c0100       ?try_synchronize_per_thread_data@__crt_cached_ptd_host@@AEAAPEAU__acrt_ptd@@XZ 00000001400c1100 f i libucrtd:invalid_parameter.obj
 0001:000c0130       ?value@?$dual_state_global@P6AXPEB_W00I_K@Z@__crt_state_management@@QEAAAEAP6AXPEB_W00I_K@ZAEAV__crt_cached_ptd_host@@@Z 00000001400c1130 f i libucrtd:invalid_parameter.obj
 0001:000c0160       ?value@?$dual_state_global@P6AXPEB_W00I_K@Z@__crt_state_management@@QEAAAEAP6AXPEB_W00I_K@ZXZ 00000001400c1160 f i libucrtd:invalid_parameter.obj
 0001:000c0180       __acrt_call_reportfault    00000001400c1180 f   libucrtd:invalid_parameter.obj
 0001:000c02b0       __acrt_initialize_invalid_parameter_handler 00000001400c12b0 f   libucrtd:invalid_parameter.obj
 0001:000c02e0       _get_invalid_parameter_handler 00000001400c12e0 f   libucrtd:invalid_parameter.obj
 0001:000c0300       _get_thread_local_invalid_parameter_handler 00000001400c1300 f   libucrtd:invalid_parameter.obj
 0001:000c0330       _invalid_parameter         00000001400c1330 f   libucrtd:invalid_parameter.obj
 0001:000c03a0       _invalid_parameter_internal 00000001400c13a0 f   libucrtd:invalid_parameter.obj
 0001:000c04f0       _invalid_parameter_noinfo  00000001400c14f0 f   libucrtd:invalid_parameter.obj
 0001:000c0520       _invalid_parameter_noinfo_noreturn 00000001400c1520 f   libucrtd:invalid_parameter.obj
 0001:000c0560       _invoke_watson             00000001400c1560 f   libucrtd:invalid_parameter.obj
 0001:000c05c0       _set_invalid_parameter_handler 00000001400c15c0 f   libucrtd:invalid_parameter.obj
 0001:000c0610       _set_thread_local_invalid_parameter_handler 00000001400c1610 f   libucrtd:invalid_parameter.obj
 0001:000c0650       ??$?RU?$__crt_report_hook_node@D@@@__crt_internal_free_policy@@QEBAXQEBU?$__crt_report_hook_node@D@@@Z 00000001400c1650 f i libucrtd:dbgrpt.obj
 0001:000c0680       ??$?RU?$__crt_report_hook_node@_W@@@__crt_internal_free_policy@@QEBAXQEBU?$__crt_report_hook_node@_W@@@Z 00000001400c1680 f i libucrtd:dbgrpt.obj
 0001:000c1900       ??$get_module_file_name@AEAPEAUHINSTANCE__@@AEAY0BAF@DK@?$__crt_char_traits@D@@SAKAEAPEAUHINSTANCE__@@AEAY0BAF@D$$QEAK@Z 00000001400c2900 f i libucrtd:dbgrpt.obj
 0001:000c1940       ??$get_module_file_name@AEAPEAUHINSTANCE__@@AEAY0BAF@_WK@?$__crt_char_traits@_W@@SAKAEAPEAUHINSTANCE__@@AEAY0BAF@_W$$QEAK@Z 00000001400c2940 f i libucrtd:dbgrpt.obj
 0001:000c1980       ??$tcscpy_s@AEAY0BAF@D_KPEBD@?$__crt_char_traits@D@@SAHAEAY0BAF@D$$QEA_K$$QEAPEBD@Z 00000001400c2980 f i libucrtd:dbgrpt.obj
 0001:000c19c0       ??$tcscpy_s@AEAY0BAF@_W_KPEB_W@?$__crt_char_traits@_W@@SAHAEAY0BAF@_W$$QEA_K$$QEAPEB_W@Z 00000001400c29c0 f i libucrtd:dbgrpt.obj
 0001:000c1a00       ??$tcslen@AEAY0BAF@D@?$__crt_char_traits@D@@SA_KAEAY0BAF@D@Z 00000001400c2a00 f i libucrtd:dbgrpt.obj
 0001:000c1a20       ??$tcslen@AEAY0BAF@_W@?$__crt_char_traits@_W@@SA_KAEAY0BAF@_W@Z 00000001400c2a20 f i libucrtd:dbgrpt.obj
 0001:000c1a40       ??$tcslen@AEBQEBD@?$__crt_char_traits@D@@SA_KAEBQEBD@Z 00000001400c2a40 f i libucrtd:dbgrpt.obj
 0001:000c1a60       ??$tcslen@AEBQEB_W@?$__crt_char_traits@_W@@SA_KAEBQEB_W@Z 00000001400c2a60 f i libucrtd:dbgrpt.obj
 0001:000c1b60       ??0?$__crt_unique_heap_ptr@U?$__crt_report_hook_node@D@@U__crt_internal_free_policy@@@@QEAA@QEAU?$__crt_report_hook_node@D@@@Z 00000001400c2b60 f i libucrtd:dbgrpt.obj
 0001:000c1b80       ??0?$__crt_unique_heap_ptr@U?$__crt_report_hook_node@_W@@U__crt_internal_free_policy@@@@QEAA@QEAU?$__crt_report_hook_node@_W@@@Z 00000001400c2b80 f i libucrtd:dbgrpt.obj
 0001:000c1ba0       ??1?$__crt_unique_heap_ptr@U?$__crt_report_hook_node@D@@U__crt_internal_free_policy@@@@QEAA@XZ 00000001400c2ba0 f i libucrtd:dbgrpt.obj
 0001:000c1bc0       ??1?$__crt_unique_heap_ptr@U?$__crt_report_hook_node@_W@@U__crt_internal_free_policy@@@@QEAA@XZ 00000001400c2bc0 f i libucrtd:dbgrpt.obj
 0001:000c1be0       ??B?$__crt_unique_heap_ptr@U?$__crt_report_hook_node@D@@U__crt_internal_free_policy@@@@QEBA_NXZ 00000001400c2be0 f i libucrtd:dbgrpt.obj
 0001:000c1c00       ??B?$__crt_unique_heap_ptr@U?$__crt_report_hook_node@_W@@U__crt_internal_free_policy@@@@QEBA_NXZ 00000001400c2c00 f i libucrtd:dbgrpt.obj
 0001:000c2320       ?detach@?$__crt_unique_heap_ptr@U?$__crt_report_hook_node@D@@U__crt_internal_free_policy@@@@QEAAPEAU?$__crt_report_hook_node@D@@XZ 00000001400c3320 f i libucrtd:dbgrpt.obj
 0001:000c2350       ?detach@?$__crt_unique_heap_ptr@U?$__crt_report_hook_node@_W@@U__crt_internal_free_policy@@@@QEAAPEAU?$__crt_report_hook_node@_W@@XZ 00000001400c3350 f i libucrtd:dbgrpt.obj
 0001:000c2380       ?get@?$__crt_unique_heap_ptr@U?$__crt_report_hook_node@D@@U__crt_internal_free_policy@@@@QEBAPEAU?$__crt_report_hook_node@D@@XZ 00000001400c3380 f i libucrtd:dbgrpt.obj
 0001:000c2390       ?get@?$__crt_unique_heap_ptr@U?$__crt_report_hook_node@_W@@U__crt_internal_free_policy@@@@QEBAPEAU?$__crt_report_hook_node@_W@@XZ 00000001400c3390 f i libucrtd:dbgrpt.obj
 0001:000c2400       ?is_valid@?$__crt_unique_heap_ptr@U?$__crt_report_hook_node@D@@U__crt_internal_free_policy@@@@QEBA_NXZ 00000001400c3400 f i libucrtd:dbgrpt.obj
 0001:000c2430       ?is_valid@?$__crt_unique_heap_ptr@U?$__crt_report_hook_node@_W@@U__crt_internal_free_policy@@@@QEBA_NXZ 00000001400c3430 f i libucrtd:dbgrpt.obj
 0001:000c2460       ?release@?$__crt_unique_heap_ptr@U?$__crt_report_hook_node@D@@U__crt_internal_free_policy@@@@QEAAXXZ 00000001400c3460 f i libucrtd:dbgrpt.obj
 0001:000c2490       ?release@?$__crt_unique_heap_ptr@U?$__crt_report_hook_node@_W@@U__crt_internal_free_policy@@@@QEAAXXZ 00000001400c3490 f i libucrtd:dbgrpt.obj
 0001:000c24c0       _CrtDbgReport              00000001400c34c0 f   libucrtd:dbgrpt.obj
 0001:000c2540       _CrtDbgReportW             00000001400c3540 f   libucrtd:dbgrpt.obj
 0001:000c25c0       _CrtSetReportHook2         00000001400c35c0 f   libucrtd:dbgrpt.obj
 0001:000c25e0       _CrtSetReportHookW2        00000001400c35e0 f   libucrtd:dbgrpt.obj
 0001:000c2600       __acrt_MessageWindowA      00000001400c3600 f   libucrtd:dbgrpt.obj
 0001:000c2650       __acrt_MessageWindowW      00000001400c3650 f   libucrtd:dbgrpt.obj
 0001:000c26a0       _snwprintf_s               00000001400c36a0 f i libucrtd:dbgrpt.obj
 0001:000c2710       _vsnwprintf_s_l            00000001400c3710 f i libucrtd:dbgrpt.obj
 0001:000c2790       ??$is_overflow_condition@_K@__crt_strtox@@YA_NI_K@Z 00000001400c3790 f i libucrtd:atox.obj
 0001:000c2800       ??$make_c_string_character_source@D$$T@__crt_strtox@@YA?AV?$c_string_character_source@D@0@QEBD$$T@Z 00000001400c3800 f i libucrtd:atox.obj
 0001:000c2840       ??$make_c_string_character_source@_W$$T@__crt_strtox@@YA?AV?$c_string_character_source@_W@0@QEB_W$$T@Z 00000001400c3840 f i libucrtd:atox.obj
 0001:000c2880       ??$parse_integer@KV?$c_string_character_source@D@__crt_strtox@@$00@__crt_strtox@@YAKAEAV__crt_cached_ptd_host@@V?$c_string_character_source@D@0@H_N@Z 00000001400c3880 f i libucrtd:atox.obj
 0001:000c2d40       ??$parse_integer@KV?$c_string_character_source@_W@__crt_strtox@@$00@__crt_strtox@@YAKAEAV__crt_cached_ptd_host@@V?$c_string_character_source@_W@0@H_N@Z 00000001400c3d40 f i libucrtd:atox.obj
 0001:000c3210       ??$parse_integer@_KV?$c_string_character_source@D@__crt_strtox@@$00@__crt_strtox@@YA_KAEAV__crt_cached_ptd_host@@V?$c_string_character_source@D@0@H_N@Z 00000001400c4210 f i libucrtd:atox.obj
 0001:000c3720       ??$parse_integer@_KV?$c_string_character_source@_W@__crt_strtox@@$00@__crt_strtox@@YA_KAEAV__crt_cached_ptd_host@@V?$c_string_character_source@_W@0@H_N@Z 00000001400c4720 f i libucrtd:atox.obj
 0001:000c3c40       ??$parse_integer_from_string@JD$$T@__crt_strtox@@YAJQEBD$$THQEAU__crt_locale_pointers@@@Z 00000001400c4c40 f i libucrtd:atox.obj
 0001:000c3cd0       ??$parse_integer_from_string@J_W$$T@__crt_strtox@@YAJQEB_W$$THQEAU__crt_locale_pointers@@@Z 00000001400c4cd0 f i libucrtd:atox.obj
 0001:000c3d60       ??$parse_integer_from_string@_JD$$T@__crt_strtox@@YA_JQEBD$$THQEAU__crt_locale_pointers@@@Z 00000001400c4d60 f i libucrtd:atox.obj
 0001:000c3df0       ??$parse_integer_from_string@_J_W$$T@__crt_strtox@@YA_JQEB_W$$THQEAU__crt_locale_pointers@@@Z 00000001400c4df0 f i libucrtd:atox.obj
 0001:000c3e80       ?is_space@__crt_strtox@@YA_NDQEAU__crt_locale_pointers@@@Z 00000001400c4e80 f i libucrtd:atox.obj
 0001:000c3ed0       ?is_space@__crt_strtox@@YA_N_WPEAU__crt_locale_pointers@@@Z 00000001400c4ed0 f i libucrtd:atox.obj
 0001:000c3f10       ?maximum_signed_value@__crt_strtox@@YA_J_K@Z 00000001400c4f10 f i libucrtd:atox.obj
 0001:000c3f20       ?minimum_signed_value@__crt_strtox@@YA_J_K@Z 00000001400c4f20 f i libucrtd:atox.obj
 0001:000c3f30       _atoi64                    00000001400c4f30 f   libucrtd:atox.obj
 0001:000c3f60       _atoi64_l                  00000001400c4f60 f   libucrtd:atox.obj
 0001:000c3f90       _atoi_l                    00000001400c4f90 f   libucrtd:atox.obj
 0001:000c3fc0       _atol_l                    00000001400c4fc0 f   libucrtd:atox.obj
 0001:000c3ff0       _atoll_l                   00000001400c4ff0 f   libucrtd:atox.obj
 0001:000c4020       _wtoi                      00000001400c5020 f   libucrtd:atox.obj
 0001:000c4050       _wtoi64                    00000001400c5050 f   libucrtd:atox.obj
 0001:000c4080       _wtoi64_l                  00000001400c5080 f   libucrtd:atox.obj
 0001:000c40b0       _wtoi_l                    00000001400c50b0 f   libucrtd:atox.obj
 0001:000c40e0       _wtol                      00000001400c50e0 f   libucrtd:atox.obj
 0001:000c4110       _wtol_l                    00000001400c5110 f   libucrtd:atox.obj
 0001:000c4140       _wtoll                     00000001400c5140 f   libucrtd:atox.obj
 0001:000c4170       _wtoll_l                   00000001400c5170 f   libucrtd:atox.obj
 0001:000c41a0       atoi                       00000001400c51a0 f   libucrtd:atox.obj
 0001:000c41d0       atol                       00000001400c51d0 f   libucrtd:atox.obj
 0001:000c4200       atoll                      00000001400c5200 f   libucrtd:atox.obj
 0001:000c4240       strncmp                    00000001400c5240 f   libucrtd:strncmp.obj
 0001:000c42c0       wcsncmp                    00000001400c52c0 f   libucrtd:wcsncmp.obj
 0001:000c4350       free                       00000001400c5350 f   libucrtd:free.obj
 0001:000c4380       malloc                     00000001400c5380 f   libucrtd:malloc.obj
 0001:000c43b0       ?get_doserrno@__crt_cached_ptd_host@@QEAA@XZ 00000001400c53b0 f i libucrtd:errno.obj
 0001:000c43c0       ?set@?$cached@K@__crt_cached_ptd_host@@QEAAKK@Z 00000001400c53c0 f i libucrtd:errno.obj
 0001:000c43f0       __acrt_errno_from_os_error 00000001400c53f0 f   libucrtd:errno.obj
 0001:000c4480       __acrt_errno_map_os_error  00000001400c5480 f   libucrtd:errno.obj
 0001:000c44b0       __acrt_errno_map_os_error_ptd 00000001400c54b0 f   libucrtd:errno.obj
 0001:000c4510       __doserrno                 00000001400c5510 f   libucrtd:errno.obj
 0001:000c4540       _errno                     00000001400c5540 f   libucrtd:errno.obj
 0001:000c4570       _get_doserrno              00000001400c5570 f   libucrtd:errno.obj
 0001:000c4630       _get_errno                 00000001400c5630 f   libucrtd:errno.obj
 0001:000c46f0       _set_doserrno              00000001400c56f0 f   libucrtd:errno.obj
 0001:000c4730       _set_errno                 00000001400c5730 f   libucrtd:errno.obj
 0001:000c4790       ??$?B$$A6AHPEA_WK_J@Z@__crt_fast_encoded_nullptr_t@@QEBAP6AHPEA_WK_J@ZXZ 00000001400c5790 f i libucrtd:winapi_thunks.obj
 0001:000c4860       ??$__crt_fast_decode_pointer@P6AHPEA_WK_J@Z@@YAP6AHPEA_WK_J@ZQ6AH0K1@Z@Z 00000001400c5860 f i libucrtd:winapi_thunks.obj
 0001:000c48a0       ??$__crt_fast_decode_pointer@PEAX@@YAPEAXQEAX@Z 00000001400c58a0 f i libucrtd:winapi_thunks.obj
 0001:000c48e0       ??$__crt_fast_encode_pointer@P6AHPEA_WK_J@Z@@YAP6AHPEA_WK_J@ZQ6AH0K1@Z@Z 00000001400c58e0 f i libucrtd:winapi_thunks.obj
 0001:000c54d0       GetCurrentThreadEffectiveToken 00000001400c64d0 f i libucrtd:winapi_thunks.obj
 0001:000c54e0       __acrt_AppPolicyGetProcessTerminationMethodInternal 00000001400c64e0 f   libucrtd:winapi_thunks.obj
 0001:000c5540       __acrt_AppPolicyGetShowDeveloperDiagnosticInternal 00000001400c6540 f   libucrtd:winapi_thunks.obj
 0001:000c55a0       __acrt_AppPolicyGetThreadInitializationTypeInternal 00000001400c65a0 f   libucrtd:winapi_thunks.obj
 0001:000c5600       __acrt_AppPolicyGetWindowingModelInternal 00000001400c6600 f   libucrtd:winapi_thunks.obj
 0001:000c5660       __acrt_AreFileApisANSI     00000001400c6660 f   libucrtd:winapi_thunks.obj
 0001:000c56b0       __acrt_CompareStringEx     00000001400c66b0 f   libucrtd:winapi_thunks.obj
 0001:000c57d0       __acrt_EnumSystemLocalesEx 00000001400c67d0 f   libucrtd:winapi_thunks.obj
 0001:000c5860       __acrt_FlsAlloc            00000001400c6860 f   libucrtd:winapi_thunks.obj
 0001:000c5880       __acrt_FlsFree             00000001400c6880 f   libucrtd:winapi_thunks.obj
 0001:000c58a0       __acrt_FlsGetValue         00000001400c68a0 f   libucrtd:winapi_thunks.obj
 0001:000c58c0       __acrt_FlsSetValue         00000001400c68c0 f   libucrtd:winapi_thunks.obj
 0001:000c58f0       __acrt_GetDateFormatEx     00000001400c68f0 f   libucrtd:winapi_thunks.obj
 0001:000c59d0       __acrt_GetEnabledXStateFeatures 00000001400c69d0 f   libucrtd:winapi_thunks.obj
 0001:000c5a20       __acrt_GetLocaleInfoEx     00000001400c6a20 f   libucrtd:winapi_thunks.obj
 0001:000c5ab0       __acrt_GetSystemTimePreciseAsFileTime 00000001400c6ab0 f   libucrtd:winapi_thunks.obj
 0001:000c5b10       __acrt_GetTempPath2W       00000001400c6b10 f   libucrtd:winapi_thunks.obj
 0001:000c5b80       __acrt_GetTimeFormatEx     00000001400c6b80 f   libucrtd:winapi_thunks.obj
 0001:000c5c50       __acrt_GetUserDefaultLocaleName 00000001400c6c50 f   libucrtd:winapi_thunks.obj
 0001:000c5cd0       __acrt_GetXStateFeaturesMask 00000001400c6cd0 f   libucrtd:winapi_thunks.obj
 0001:000c5d30       __acrt_InitializeCriticalSectionEx 00000001400c6d30 f   libucrtd:winapi_thunks.obj
 0001:000c5db0       __acrt_IsValidLocaleName   00000001400c6db0 f   libucrtd:winapi_thunks.obj
 0001:000c5e20       __acrt_LCIDToLocaleName    00000001400c6e20 f   libucrtd:winapi_thunks.obj
 0001:000c5ea0       __acrt_LCMapStringEx       00000001400c6ea0 f   libucrtd:winapi_thunks.obj
 0001:000c5fb0       __acrt_LocaleNameToLCID    00000001400c6fb0 f   libucrtd:winapi_thunks.obj
 0001:000c6020       __acrt_LocateXStateFeature 00000001400c7020 f   libucrtd:winapi_thunks.obj
 0001:000c6090       __acrt_MessageBoxA         00000001400c7090 f   libucrtd:winapi_thunks.obj
 0001:000c6110       __acrt_MessageBoxW         00000001400c7110 f   libucrtd:winapi_thunks.obj
 0001:000c6190       __acrt_RoInitialize        00000001400c7190 f   libucrtd:winapi_thunks.obj
 0001:000c61e0       __acrt_RoUninitialize      00000001400c71e0 f   libucrtd:winapi_thunks.obj
 0001:000c6220       __acrt_RtlGenRandom        00000001400c7220 f   libucrtd:winapi_thunks.obj
 0001:000c6280       __acrt_SetThreadStackGuarantee 00000001400c7280 f   libucrtd:winapi_thunks.obj
 0001:000c62e0       __acrt_can_show_message_box 00000001400c72e0 f   libucrtd:winapi_thunks.obj
 0001:000c6320       __acrt_can_use_vista_locale_apis 00000001400c7320 f   libucrtd:winapi_thunks.obj
 0001:000c6350       __acrt_can_use_xstate_apis 00000001400c7350 f   libucrtd:winapi_thunks.obj
 0001:000c6380       __acrt_eagerly_load_locale_apis 00000001400c7380 f   libucrtd:winapi_thunks.obj
 0001:000c63c0       __acrt_get_parent_window   00000001400c73c0 f   libucrtd:winapi_thunks.obj
 0001:000c6460       __acrt_initialize_winapi_thunks 00000001400c7460 f   libucrtd:winapi_thunks.obj
 0001:000c64e0       __acrt_is_interactive      00000001400c74e0 f   libucrtd:winapi_thunks.obj
 0001:000c65f0       __acrt_uninitialize_winapi_thunks 00000001400c75f0 f   libucrtd:winapi_thunks.obj
 0001:000c6690       ??0__crt_stdio_stream@@QEAA@QEAU__crt_stdio_stream_data@@@Z 00000001400c7690 f i libucrtd:closeall.obj
 0001:000c66b0       ?is_in_use@__crt_stdio_stream@@QEBA_NXZ 00000001400c76b0 f i libucrtd:closeall.obj
 0001:000c66f0       _fcloseall                 00000001400c76f0 f   libucrtd:closeall.obj
 0001:000c6e10       ?__acrt_stdio_reset_buffer@@YAXV__crt_stdio_stream@@@Z 00000001400c7e10 f i libucrtd:fflush.obj
 0001:000c6fe0       ?has_all_of@__crt_stdio_stream@@QEBA_NJ@Z 00000001400c7fe0 f i libucrtd:fflush.obj
 0001:000c70c0       ?set_flags@__crt_stdio_stream@@QEBA_NJ@Z 00000001400c80c0 f i libucrtd:fflush.obj
 0001:000c7130       ?unset_flags@__crt_stdio_stream@@QEBA_NJ@Z 00000001400c8130 f i libucrtd:fflush.obj
 0001:000c7190       __acrt_stdio_flush_nolock  00000001400c8190 f   libucrtd:fflush.obj
 0001:000c72b0       _fflush_nolock             00000001400c82b0 f   libucrtd:fflush.obj
 0001:000c72f0       _flushall                  00000001400c82f0 f   libucrtd:fflush.obj
 0001:000c7300       fflush                     00000001400c8300 f   libucrtd:fflush.obj
 0001:000c7390       ?has_any_of@__crt_stdio_stream@@QEBA_NJ@Z 00000001400c8390 f i libucrtd:_freebuf.obj
 0001:000c73d0       ?has_crt_buffer@__crt_stdio_stream@@QEBA_NXZ 00000001400c83d0 f i libucrtd:_freebuf.obj
 0001:000c73f0       __acrt_stdio_free_buffer_nolock 00000001400c83f0 f   libucrtd:_freebuf.obj
 0001:000c7870       __acrt_initialize_lowio    00000001400c8870 f   libucrtd:ioinit.obj
 0001:000c78c0       __acrt_uninitialize_lowio  00000001400c88c0 f   libucrtd:ioinit.obj
 0001:000c7940       _CrtGetDebugFillThreshold  00000001400c8940 f   libucrtd:debug_fill_threshold.obj
 0001:000c7950       _CrtSetDebugFillThreshold  00000001400c8950 f   libucrtd:debug_fill_threshold.obj
 0001:000c8c80       ??1?$__crt_simd_cleanup_guard@$00@@QEAA@XZ 00000001400c9c80 f i libucrtd:strnlen.obj
 0001:000c8c90       ??1?$__crt_simd_cleanup_guard@$0A@@@QEAA@XZ 00000001400c9c90 f i libucrtd:strnlen.obj
 0001:000c8ca0       ?compare_equals@?$__crt_simd_traits@$00E@@SA?AT__m256i@@T2@0@Z 00000001400c9ca0 f i libucrtd:strnlen.obj
 0001:000c8ce0       ?compare_equals@?$__crt_simd_traits@$00G@@SA?AT__m256i@@T2@0@Z 00000001400c9ce0 f i libucrtd:strnlen.obj
 0001:000c8d20       ?compare_equals@?$__crt_simd_traits@$0A@E@@SA?AT__m128i@@T2@0@Z 00000001400c9d20 f i libucrtd:strnlen.obj
 0001:000c8d50       ?compare_equals@?$__crt_simd_traits@$0A@G@@SA?AT__m128i@@T2@0@Z 00000001400c9d50 f i libucrtd:strnlen.obj
 0001:000c8d80       ?compute_byte_mask@?$__crt_simd_pack_traits@$00@@SAHT__m256i@@@Z 00000001400c9d80 f i libucrtd:strnlen.obj
 0001:000c8da0       ?compute_byte_mask@?$__crt_simd_pack_traits@$0A@@@SAHT__m128i@@@Z 00000001400c9da0 f i libucrtd:strnlen.obj
 0001:000c8dc0       ?get_zero_pack@?$__crt_simd_pack_traits@$00@@SA?AT__m256i@@XZ 00000001400c9dc0 f i libucrtd:strnlen.obj
 0001:000c8df0       ?get_zero_pack@?$__crt_simd_pack_traits@$0A@@@SA?AT__m128i@@XZ 00000001400c9df0 f i libucrtd:strnlen.obj
 0001:000c8e10       strnlen                    00000001400c9e10 f   libucrtd:strnlen.obj
 0001:000c8e40       wcslen                     00000001400c9e40 f   libucrtd:strnlen.obj
 0001:000c8e60       wcsnlen                    00000001400c9e60 f   libucrtd:strnlen.obj
 0001:000c8e90       ?value@?$dual_state_global@PEAU__crt_multibyte_data@@@__crt_state_management@@QEAAAEAPEAU__crt_multibyte_data@@XZ 00000001400c9e90 f i libucrtd:locale_update.obj
 0001:000c8eb0       ?value_explicit@?$dual_state_global@PEAU__crt_locale_data@@@__crt_state_management@@QEAAAEAPEAU__crt_locale_data@@_K@Z 00000001400c9eb0 f i libucrtd:locale_update.obj
 0001:000c8ed0       ?value_explicit@?$dual_state_global@PEAU__crt_multibyte_data@@@__crt_state_management@@QEAAAEAPEAU__crt_multibyte_data@@_K@Z 00000001400c9ed0 f i libucrtd:locale_update.obj
 0001:000c8ef0       __acrt_should_sync_with_global_locale 00000001400c9ef0 f i libucrtd:locale_update.obj
 0001:000c8f30       __acrt_update_locale_info  00000001400c9f30 f   libucrtd:locale_update.obj
 0001:000c8f80       __acrt_update_locale_info_explicit 00000001400c9f80 f   libucrtd:locale_update.obj
 0001:000c8fe0       __acrt_update_multibyte_info 00000001400c9fe0 f   libucrtd:locale_update.obj
 0001:000c9030       __acrt_update_multibyte_info_explicit 00000001400ca030 f   libucrtd:locale_update.obj
 0001:000c9090       ?__acrt_fp_classify@@YA?AW4__acrt_fp_class@@AEBN@Z 00000001400ca090 f i libucrtd:cvt.obj
 0001:000c9190       ?__acrt_fp_is_negative@@YA_NAEBN@Z 00000001400ca190 f i libucrtd:cvt.obj
 0001:000caab0       ?strrchr@@YAPEADQEADH@Z    00000001400cbab0 f i libucrtd:cvt.obj
 0001:000caad0       __acrt_fp_format           00000001400cbad0 f   libucrtd:cvt.obj
 0001:000cb1a0       ?value_or@?$cached@H@__crt_cached_ptd_host@@QEBAHH@Z 00000001400cc1a0 f i libucrtd:wctomb.obj
 0001:000cb1d0       _wctomb_internal           00000001400cc1d0 f   libucrtd:wctomb.obj
 0001:000cb730       _wctomb_l                  00000001400cc730 f   libucrtd:wctomb.obj
 0001:000cb7e0       _wctomb_s_l                00000001400cc7e0 f   libucrtd:wctomb.obj
 0001:000cb860       wctomb                     00000001400cc860 f   libucrtd:wctomb.obj
 0001:000cb900       wctomb_s                   00000001400cc900 f   libucrtd:wctomb.obj
 0001:000cb980       _isleadbyte_fast_internal  00000001400cc980 f i libucrtd:mbtowc.obj
 0001:000cb9b0       _mbtowc_internal           00000001400cc9b0 f   libucrtd:mbtowc.obj
 0001:000cbd40       _mbtowc_l                  00000001400ccd40 f   libucrtd:mbtowc.obj
 0001:000cbdb0       mbtowc                     00000001400ccdb0 f   libucrtd:mbtowc.obj
 0001:000cbe10       ?lowio_handle@__crt_stdio_stream@@QEBAHXZ 00000001400cce10 f i libucrtd:fileno.obj
 0001:000cbe40       _fileno                    00000001400cce40 f   libucrtd:fileno.obj
 0001:000cbf20       _get_printf_count_output   00000001400ccf20 f   libucrtd:printf_count_output.obj
 0001:000cbf50       _set_printf_count_output   00000001400ccf50 f   libucrtd:printf_count_output.obj
 0001:000cc190       _fputwc_nolock             00000001400cd190 f   libucrtd:fputwc.obj
 0001:000cc1e0       _fputwc_nolock_internal    00000001400cd1e0 f   libucrtd:fputwc.obj
 0001:000cc4a0       _fputwchar                 00000001400cd4a0 f   libucrtd:fputwc.obj
 0001:000cc4d0       _putwc_nolock              00000001400cd4d0 f   libucrtd:fputwc.obj
 0001:000cc500       fputwc                     00000001400cd500 f   libucrtd:fputwc.obj
 0001:000cc550       putwc                      00000001400cd550 f   libucrtd:fputwc.obj
 0001:000cc580       putwchar                   00000001400cd580 f   libucrtd:fputwc.obj
 0001:000cc8a0       _fputc_nolock              00000001400cd8a0 f   libucrtd:fputc.obj
 0001:000cc8f0       _fputc_nolock_internal     00000001400cd8f0 f   libucrtd:fputc.obj
 0001:000cc9b0       _fputchar                  00000001400cd9b0 f   libucrtd:fputc.obj
 0001:000cc9e0       _putc_nolock               00000001400cd9e0 f   libucrtd:fputc.obj
 0001:000cca00       fputc                      00000001400cda00 f   libucrtd:fputc.obj
 0001:000cca50       putc                       00000001400cda50 f   libucrtd:fputc.obj
 0001:000cca70       putchar                    00000001400cda70 f   libucrtd:fputc.obj
 0001:000cca90       ?has_any_buffer@__crt_stdio_stream@@QEBA_NXZ 00000001400cda90 f i libucrtd:_sftbuf.obj
 0001:000ccab0       ?has_temporary_buffer@__crt_stdio_stream@@QEBA_NXZ 00000001400cdab0 f i libucrtd:_sftbuf.obj
 0001:000ccad0       __acrt_should_use_temporary_buffer 00000001400cdad0 f   libucrtd:_sftbuf.obj
 0001:000ccb20       __acrt_stdio_begin_temporary_buffering_nolock 00000001400cdb20 f   libucrtd:_sftbuf.obj
 0001:000ccd80       __acrt_stdio_end_temporary_buffering_nolock 00000001400cdd80 f   libucrtd:_sftbuf.obj
 0001:000cce20       ??$?RU__acrt_ptd@@@__crt_internal_free_policy@@QEBAXQEBU__acrt_ptd@@@Z 00000001400cde20 f i libucrtd:per_thread_data.obj
 0001:000cd260       ??0?$__crt_unique_heap_ptr@U__acrt_ptd@@U__crt_internal_free_policy@@@@QEAA@QEAU__acrt_ptd@@@Z 00000001400ce260 f i libucrtd:per_thread_data.obj
 0001:000cd280       ??1?$__crt_unique_heap_ptr@U__acrt_ptd@@U__crt_internal_free_policy@@@@QEAA@XZ 00000001400ce280 f i libucrtd:per_thread_data.obj
 0001:000cd2a0       ??B?$__crt_unique_heap_ptr@U__acrt_ptd@@U__crt_internal_free_policy@@@@QEBA_NXZ 00000001400ce2a0 f i libucrtd:per_thread_data.obj
 0001:000cd5f0       ?dangerous_get_state_array@?$dual_state_global@PEAU__crt_locale_data@@@__crt_state_management@@QEAAPEAPEAU__crt_locale_data@@XZ 00000001400ce5f0 f i libucrtd:per_thread_data.obj
 0001:000cd7c0       ?detach@?$__crt_unique_heap_ptr@U__acrt_ptd@@U__crt_internal_free_policy@@@@QEAAPEAU__acrt_ptd@@XZ 00000001400ce7c0 f i libucrtd:per_thread_data.obj
 0001:000cd7f0       ?get@?$__crt_unique_heap_ptr@U__acrt_ptd@@U__crt_internal_free_policy@@@@QEBAPEAU__acrt_ptd@@XZ 00000001400ce7f0 f i libucrtd:per_thread_data.obj
 0001:000cd9d0       ?is_valid@?$__crt_unique_heap_ptr@U__acrt_ptd@@U__crt_internal_free_policy@@@@QEBA_NXZ 00000001400ce9d0 f i libucrtd:per_thread_data.obj
 0001:000cda00       ?release@?$__crt_unique_heap_ptr@U__acrt_ptd@@U__crt_internal_free_policy@@@@QEAAXXZ 00000001400cea00 f i libucrtd:per_thread_data.obj
 0001:000cdb30       __acrt_freeptd             00000001400ceb30 f   libucrtd:per_thread_data.obj
 0001:000cdb70       __acrt_getptd              00000001400ceb70 f   libucrtd:per_thread_data.obj
 0001:000cdba0       __acrt_getptd_head         00000001400ceba0 f   libucrtd:per_thread_data.obj
 0001:000cdbd0       __acrt_getptd_noexit       00000001400cebd0 f   libucrtd:per_thread_data.obj
 0001:000cdbe0       __acrt_getptd_noexit_explicit 00000001400cebe0 f   libucrtd:per_thread_data.obj
 0001:000cdc10       __acrt_initialize_ptd      00000001400cec10 f   libucrtd:per_thread_data.obj
 0001:000cdc50       __acrt_uninitialize_ptd    00000001400cec50 f   libucrtd:per_thread_data.obj
 0001:000cdc80       __threadhandle             00000001400cec80 f   libucrtd:per_thread_data.obj
 0001:000cdc90       __threadid                 00000001400cec90 f   libucrtd:per_thread_data.obj
 0001:000cdca0       __p___mb_cur_max           00000001400ceca0 f   libucrtd:nlsdata.obj
 0001:000cdce0       _set_error_mode            00000001400cece0 f   libucrtd:set_error_mode.obj
 0001:000ce470       wcscat_s                   00000001400cf470 f   libucrtd:wcscat_s.obj
 0001:000ce9a0       wcscpy_s                   00000001400cf9a0 f   libucrtd:wcscpy_s.obj
 0001:000cf080       wcsncpy_s                  00000001400d0080 f   libucrtd:wcsncpy_s.obj
 0001:000cf340       ??$message_box@$$TAEBQEBDAEBQEBDK@?$__crt_char_traits@D@@SAH$$QEA$$TAEBQEBD1$$QEAK@Z 00000001400d0340 f i libucrtd:crtmbox.obj
 0001:000cf390       ??$message_box@$$TAEBQEB_WAEBQEB_WK@?$__crt_char_traits@_W@@SAH$$QEA$$TAEBQEB_W1$$QEAK@Z 00000001400d0390 f i libucrtd:crtmbox.obj
 0001:000cf3e0       ??$message_box@PEAUHWND__@@AEBQEBDAEBQEBDAEBI@?$__crt_char_traits@D@@SAH$$QEAPEAUHWND__@@AEBQEBD1AEBI@Z 00000001400d03e0 f i libucrtd:crtmbox.obj
 0001:000cf430       ??$message_box@PEAUHWND__@@AEBQEB_WAEBQEB_WAEBI@?$__crt_char_traits@_W@@SAH$$QEAPEAUHWND__@@AEBQEB_W1AEBI@Z 00000001400d0430 f i libucrtd:crtmbox.obj
 0001:000cf480       ??$output_debug_string@AEBQEBD@?$__crt_char_traits@D@@SAXAEBQEBD@Z 00000001400d0480 f i libucrtd:crtmbox.obj
 0001:000cf4a0       ??$output_debug_string@AEBQEB_W@?$__crt_char_traits@_W@@SAXAEBQEB_W@Z 00000001400d04a0 f i libucrtd:crtmbox.obj
 0001:000cf4c0       __acrt_show_narrow_message_box 00000001400d04c0 f   libucrtd:crtmbox.obj
 0001:000cf4f0       __acrt_show_wide_message_box 00000001400d04f0 f   libucrtd:crtmbox.obj
 0001:000cf580       ??$__acrt_convert_wcs_mbs_cp@D_WV<lambda_7c9dea7b4ca7285d2cdb541a38da6275>@@U__crt_win32_buffer_internal_dynamic_resizing@@@@YAHQEBDAEAV?$__crt_win32_buffer@_WU__crt_win32_buffer_internal_dynamic_resizing@@@@AEBV<lambda_7c9dea7b4ca7285d2cdb541a38da6275>@@I@Z 00000001400d0580 f i libucrtd:argv_wildcards.obj
 0001:000cf730       ??$__acrt_convert_wcs_mbs_cp@_WDV<lambda_d8593a27d1aa8c02be35c86a17d324c4>@@U__crt_win32_buffer_internal_dynamic_resizing@@@@YAHQEB_WAEAV?$__crt_win32_buffer@DU__crt_win32_buffer_internal_dynamic_resizing@@@@AEBV<lambda_d8593a27d1aa8c02be35c86a17d324c4>@@I@Z 00000001400d0730 f i libucrtd:argv_wildcards.obj
 0001:000cf8e0       ??$__acrt_mbs_to_wcs_cp@U__crt_win32_buffer_internal_dynamic_resizing@@@@YAHQEBDAEAV?$__crt_win32_buffer@_WU__crt_win32_buffer_internal_dynamic_resizing@@@@I@Z 00000001400d08e0 f i libucrtd:argv_wildcards.obj
 0001:000cf930       ??$__acrt_wcs_to_mbs_cp@U__crt_win32_buffer_internal_dynamic_resizing@@@@YAHQEB_WAEAV?$__crt_win32_buffer@DU__crt_win32_buffer_internal_dynamic_resizing@@@@I@Z 00000001400d0930 f i libucrtd:argv_wildcards.obj
 0001:000d0da0       ??$tcsncpy_s@AEAPEAD_KAEAPEADAEB_K@?$__crt_char_traits@D@@SAHAEAPEAD$$QEA_K0AEB_K@Z 00000001400d1da0 f i libucrtd:argv_wildcards.obj
 0001:000d0df0       ??$tcsncpy_s@AEAPEA_W_KAEAPEA_WAEB_K@?$__crt_char_traits@_W@@SAHAEAPEA_W$$QEA_K0AEB_K@Z 00000001400d1df0 f i libucrtd:argv_wildcards.obj
 0001:000d0e40       ??$tcsncpy_s@PEADAEB_KAEBQEBDAEB_K@?$__crt_char_traits@D@@SAH$$QEAPEADAEB_KAEBQEBD1@Z 00000001400d1e40 f i libucrtd:argv_wildcards.obj
 0001:000d0e90       ??$tcsncpy_s@PEAD_KAEBQEBDAEB_K@?$__crt_char_traits@D@@SAH$$QEAPEAD$$QEA_KAEBQEBDAEB_K@Z 00000001400d1e90 f i libucrtd:argv_wildcards.obj
 0001:000d0ee0       ??$tcsncpy_s@PEA_WAEB_KAEBQEB_WAEB_K@?$__crt_char_traits@_W@@SAH$$QEAPEA_WAEB_KAEBQEB_W1@Z 00000001400d1ee0 f i libucrtd:argv_wildcards.obj
 0001:000d0f30       ??$tcsncpy_s@PEA_W_KAEBQEB_WAEB_K@?$__crt_char_traits@_W@@SAH$$QEAPEA_W$$QEA_KAEBQEB_WAEB_K@Z 00000001400d1f30 f i libucrtd:argv_wildcards.obj
 0001:000d0f80       ??$tcspbrk@AEAPEADAEAY02$$CBD@?$__crt_char_traits@D@@SAPEADAEAPEADAEAY02$$CBD@Z 00000001400d1f80 f i libucrtd:argv_wildcards.obj
 0001:000d0fb0       ??$tcspbrk@AEAPEA_WAEAY02$$CB_W@?$__crt_char_traits@_W@@SAPEA_WAEAPEA_WAEAY02$$CB_W@Z 00000001400d1fb0 f i libucrtd:argv_wildcards.obj
 0001:000d0fe0       ??0?$__crt_unique_handle_t@U__crt_findfile_traits@@@@QEAA@QEAX@Z 00000001400d1fe0 f i libucrtd:argv_wildcards.obj
 0001:000d1000       ??0?$__crt_win32_buffer@DU__crt_win32_buffer_internal_dynamic_resizing@@@@QEAA@XZ 00000001400d2000 f i libucrtd:argv_wildcards.obj
 0001:000d1060       ??0?$__crt_win32_buffer@_WU__crt_win32_buffer_internal_dynamic_resizing@@@@QEAA@XZ 00000001400d2060 f i libucrtd:argv_wildcards.obj
 0001:000d1140       ??1?$__crt_unique_handle_t@U__crt_findfile_traits@@@@QEAA@XZ 00000001400d2140 f i libucrtd:argv_wildcards.obj
 0001:000d1160       ??1?$__crt_win32_buffer@DU__crt_win32_buffer_internal_dynamic_resizing@@@@QEAA@XZ 00000001400d2160 f i libucrtd:argv_wildcards.obj
 0001:000d1190       ??1?$__crt_win32_buffer@_WU__crt_win32_buffer_internal_dynamic_resizing@@@@QEAA@XZ 00000001400d2190 f i libucrtd:argv_wildcards.obj
 0001:000d12c0       ??R<lambda_7c9dea7b4ca7285d2cdb541a38da6275>@@QEBA@IQEBDQEA_W_K@Z 00000001400d22c0 f i libucrtd:argv_wildcards.obj
 0001:000d1430       ??R<lambda_d8593a27d1aa8c02be35c86a17d324c4>@@QEBA@IQEB_WQEAD_K@Z 00000001400d2430 f i libucrtd:argv_wildcards.obj
 0001:000d1490       ?__acrt_get_utf8_acp_compatibility_codepage@@YAIXZ 00000001400d2490 f i libucrtd:argv_wildcards.obj
 0001:000d1530       ?_deallocate@?$__crt_win32_buffer@DU__crt_win32_buffer_internal_dynamic_resizing@@@@AEAAXXZ 00000001400d2530 f i libucrtd:argv_wildcards.obj
 0001:000d1580       ?_deallocate@?$__crt_win32_buffer@_WU__crt_win32_buffer_internal_dynamic_resizing@@@@AEAAXXZ 00000001400d2580 f i libucrtd:argv_wildcards.obj
 0001:000d15d0       ?allocate@?$__crt_win32_buffer@DU__crt_win32_buffer_internal_dynamic_resizing@@@@QEAAH_K@Z 00000001400d25d0 f i libucrtd:argv_wildcards.obj
 0001:000d1650       ?allocate@?$__crt_win32_buffer@_WU__crt_win32_buffer_internal_dynamic_resizing@@@@QEAAH_K@Z 00000001400d2650 f i libucrtd:argv_wildcards.obj
 0001:000d16e0       ?allocate@__crt_win32_buffer_internal_dynamic_resizing@@SAHQEAPEAX_KAEBV__crt_win32_buffer_empty_debug_info@@@Z 00000001400d26e0 f i libucrtd:argv_wildcards.obj
 0001:000d1840       ?capacity@?$__crt_win32_buffer@DU__crt_win32_buffer_internal_dynamic_resizing@@@@QEBA_KXZ 00000001400d2840 f i libucrtd:argv_wildcards.obj
 0001:000d1850       ?capacity@?$__crt_win32_buffer@_WU__crt_win32_buffer_internal_dynamic_resizing@@@@QEBA_KXZ 00000001400d2850 f i libucrtd:argv_wildcards.obj
 0001:000d1860       ?close@?$__crt_unique_handle_t@U__crt_findfile_traits@@@@QEAAXXZ 00000001400d2860 f i libucrtd:argv_wildcards.obj
 0001:000d18a0       ?close@__crt_findfile_traits@@SA_NPEAX@Z 00000001400d28a0 f i libucrtd:argv_wildcards.obj
 0001:000d18e0       ?data@?$__crt_win32_buffer@DU__crt_win32_buffer_internal_dynamic_resizing@@@@QEAAPEADXZ 00000001400d28e0 f i libucrtd:argv_wildcards.obj
 0001:000d18f0       ?data@?$__crt_win32_buffer@_WU__crt_win32_buffer_internal_dynamic_resizing@@@@QEAAPEA_WXZ 00000001400d28f0 f i libucrtd:argv_wildcards.obj
 0001:000d1900       ?deallocate@__crt_win32_buffer_internal_dynamic_resizing@@SAXQEAXAEBV__crt_win32_buffer_empty_debug_info@@@Z 00000001400d2900 f i libucrtd:argv_wildcards.obj
 0001:000d1930       ?debug_info@?$__crt_win32_buffer@DU__crt_win32_buffer_internal_dynamic_resizing@@@@QEBAAEBV__crt_win32_buffer_empty_debug_info@@XZ 00000001400d2930 f i libucrtd:argv_wildcards.obj
 0001:000d1940       ?debug_info@?$__crt_win32_buffer@_WU__crt_win32_buffer_internal_dynamic_resizing@@@@QEBAAEBV__crt_win32_buffer_empty_debug_info@@XZ 00000001400d2940 f i libucrtd:argv_wildcards.obj
 0001:000d1d30       ?get@?$__crt_unique_handle_t@U__crt_findfile_traits@@@@QEBAPEAXXZ 00000001400d2d30 f i libucrtd:argv_wildcards.obj
 0001:000d1da0       ?get_invalid_value@__crt_findfile_traits@@SAPEAXXZ 00000001400d2da0 f i libucrtd:argv_wildcards.obj
 0001:000d1e60       ?set_to_nullptr@?$__crt_win32_buffer@DU__crt_win32_buffer_internal_dynamic_resizing@@@@QEAAXXZ 00000001400d2e60 f i libucrtd:argv_wildcards.obj
 0001:000d1ea0       ?set_to_nullptr@?$__crt_win32_buffer@_WU__crt_win32_buffer_internal_dynamic_resizing@@@@QEAAXXZ 00000001400d2ea0 f i libucrtd:argv_wildcards.obj
 0001:000d1ee0       ?size@?$__crt_win32_buffer@DU__crt_win32_buffer_internal_dynamic_resizing@@@@QEAAX_K@Z 00000001400d2ee0 f i libucrtd:argv_wildcards.obj
 0001:000d1f00       ?size@?$__crt_win32_buffer@_WU__crt_win32_buffer_internal_dynamic_resizing@@@@QEAAX_K@Z 00000001400d2f00 f i libucrtd:argv_wildcards.obj
 0001:000d1f60       ?strpbrk@@YAPEADQEADQEBD@Z 00000001400d2f60 f i libucrtd:argv_wildcards.obj
 0001:000d1f90       ?wcspbrk@@YAPEA_WPEA_WPEB_W@Z 00000001400d2f90 f i libucrtd:argv_wildcards.obj
 0001:000d1fc0       __acrt_expand_narrow_argv_wildcards 00000001400d2fc0 f   libucrtd:argv_wildcards.obj
 0001:000d1ff0       __acrt_expand_wide_argv_wildcards 00000001400d2ff0 f   libucrtd:argv_wildcards.obj
 0001:000d2020       ??$__acrt_convert_wcs_mbs_cp@_WDV<lambda_f788ae46380686e8b737efdd8c720d07>@@U__crt_win32_buffer_no_resizing@@@@YAHQEB_WAEAV?$__crt_win32_buffer@DU__crt_win32_buffer_no_resizing@@@@AEBV<lambda_f788ae46380686e8b737efdd8c720d07>@@I@Z 00000001400d3020 f i libucrtd:getmodulefilenamea.obj
 0001:000d21d0       ??$__acrt_wcs_to_mbs_cp@U__crt_win32_buffer_no_resizing@@@@YAHQEB_WAEAV?$__crt_win32_buffer@DU__crt_win32_buffer_no_resizing@@@@I@Z 00000001400d31d0 f i libucrtd:getmodulefilenamea.obj
 0001:000d2220       ??0?$__crt_win32_buffer@DU__crt_win32_buffer_no_resizing@@@@QEAA@QEAD_K@Z 00000001400d3220 f i libucrtd:getmodulefilenamea.obj
 0001:000d2290       ??1?$__crt_win32_buffer@DU__crt_win32_buffer_no_resizing@@@@QEAA@XZ 00000001400d3290 f i libucrtd:getmodulefilenamea.obj
 0001:000d22c0       ??R<lambda_f788ae46380686e8b737efdd8c720d07>@@QEBA@IQEB_WQEAD_K@Z 00000001400d32c0 f i libucrtd:getmodulefilenamea.obj
 0001:000d2320       ?_deallocate@?$__crt_win32_buffer@DU__crt_win32_buffer_no_resizing@@@@AEAAXXZ 00000001400d3320 f i libucrtd:getmodulefilenamea.obj
 0001:000d2370       ?allocate@?$__crt_win32_buffer@DU__crt_win32_buffer_no_resizing@@@@QEAAH_K@Z 00000001400d3370 f i libucrtd:getmodulefilenamea.obj
 0001:000d23f0       ?allocate@__crt_win32_buffer_no_resizing@@SAHQEAPEAX_KAEBV__crt_win32_buffer_empty_debug_info@@@Z 00000001400d33f0 f i libucrtd:getmodulefilenamea.obj
 0001:000d2420       ?capacity@?$__crt_win32_buffer@DU__crt_win32_buffer_no_resizing@@@@QEBA_KXZ 00000001400d3420 f i libucrtd:getmodulefilenamea.obj
 0001:000d2430       ?data@?$__crt_win32_buffer@DU__crt_win32_buffer_no_resizing@@@@QEAAPEADXZ 00000001400d3430 f i libucrtd:getmodulefilenamea.obj
 0001:000d2440       ?deallocate@__crt_win32_buffer_no_resizing@@SAXQEAXAEBV__crt_win32_buffer_empty_debug_info@@@Z 00000001400d3440 f i libucrtd:getmodulefilenamea.obj
 0001:000d2450       ?debug_info@?$__crt_win32_buffer@DU__crt_win32_buffer_no_resizing@@@@QEBAAEBV__crt_win32_buffer_empty_debug_info@@XZ 00000001400d3450 f i libucrtd:getmodulefilenamea.obj
 0001:000d2460       ?set_to_nullptr@?$__crt_win32_buffer@DU__crt_win32_buffer_no_resizing@@@@QEAAXXZ 00000001400d3460 f i libucrtd:getmodulefilenamea.obj
 0001:000d24a0       ?size@?$__crt_win32_buffer@DU__crt_win32_buffer_no_resizing@@@@QEAAX_K@Z 00000001400d34a0 f i libucrtd:getmodulefilenamea.obj
 0001:000d24c0       ?size@?$__crt_win32_buffer@DU__crt_win32_buffer_no_resizing@@@@QEBA_KXZ 00000001400d34c0 f i libucrtd:getmodulefilenamea.obj
 0001:000d24d0       __acrt_GetModuleFileNameA  00000001400d34d0 f   libucrtd:getmodulefilenamea.obj
 0001:000d2650       ??$initialize_from_array@$$BY10BAA@E@?$dual_state_global@PEAE@__crt_state_management@@QEAAXAEAY10BAA@E@Z 00000001400d3650 f i libucrtd:mbctype.obj
 0001:000d26c0       ??$initialize_from_array@$$BY10BAB@E@?$dual_state_global@PEAE@__crt_state_management@@QEAAXAEAY10BAB@E@Z 00000001400d36c0 f i libucrtd:mbctype.obj
 0001:000d29b0       ?dangerous_get_state_array@?$dual_state_global@PEAE@__crt_state_management@@QEAAPEAPEAEXZ 00000001400d39b0 f i libucrtd:mbctype.obj
 0001:000d29c0       ?dangerous_get_state_array@?$dual_state_global@PEAU__crt_multibyte_data@@@__crt_state_management@@QEAAPEAPEAU__crt_multibyte_data@@XZ 00000001400d39c0 f i libucrtd:mbctype.obj
 0001:000d2ab0       ?initialize@?$dual_state_global@PEAU__crt_multibyte_data@@@__crt_state_management@@QEAAXQEAU__crt_multibyte_data@@@Z 00000001400d3ab0 f i libucrtd:mbctype.obj
 0001:000d3380       ?value@?$dual_state_global@PEAE@__crt_state_management@@QEAAAEAPEAEXZ 00000001400d4380 f i libucrtd:mbctype.obj
 0001:000d33a0       __acrt_initialize_multibyte 00000001400d43a0 f   libucrtd:mbctype.obj
 0001:000d3470       __acrt_update_thread_multibyte_data 00000001400d4470 f   libucrtd:mbctype.obj
 0001:000d34b0       __p__mbcasemap             00000001400d44b0 f   libucrtd:mbctype.obj
 0001:000d34d0       __p__mbctype               00000001400d44d0 f   libucrtd:mbctype.obj
 0001:000d34f0       _getmbcp                   00000001400d44f0 f   libucrtd:mbctype.obj
 0001:000d3570       _setmbcp                   00000001400d4570 f   libucrtd:mbctype.obj
 0001:000d35b0       _setmbcp_nolock            00000001400d45b0 f   libucrtd:mbctype.obj
 0001:000d3ca0       _ismbbalnum                00000001400d4ca0 f   libucrtd:ismbbyte.obj
 0001:000d3cd0       _ismbbalnum_l              00000001400d4cd0 f   libucrtd:ismbbyte.obj
 0001:000d3d00       _ismbbalpha                00000001400d4d00 f   libucrtd:ismbbyte.obj
 0001:000d3d30       _ismbbalpha_l              00000001400d4d30 f   libucrtd:ismbbyte.obj
 0001:000d3d60       _ismbbblank                00000001400d4d60 f   libucrtd:ismbbyte.obj
 0001:000d3da0       _ismbbblank_l              00000001400d4da0 f   libucrtd:ismbbyte.obj
 0001:000d3df0       _ismbbgraph                00000001400d4df0 f   libucrtd:ismbbyte.obj
 0001:000d3e20       _ismbbgraph_l              00000001400d4e20 f   libucrtd:ismbbyte.obj
 0001:000d3e50       _ismbbkalnum               00000001400d4e50 f   libucrtd:ismbbyte.obj
 0001:000d3e80       _ismbbkalnum_l             00000001400d4e80 f   libucrtd:ismbbyte.obj
 0001:000d3eb0       _ismbbkana                 00000001400d4eb0 f   libucrtd:ismbbyte.obj
 0001:000d3ed0       _ismbbkana_l               00000001400d4ed0 f   libucrtd:ismbbyte.obj
 0001:000d3f60       _ismbbkprint               00000001400d4f60 f   libucrtd:ismbbyte.obj
 0001:000d3f90       _ismbbkprint_l             00000001400d4f90 f   libucrtd:ismbbyte.obj
 0001:000d3fc0       _ismbbkpunct               00000001400d4fc0 f   libucrtd:ismbbyte.obj
 0001:000d3ff0       _ismbbkpunct_l             00000001400d4ff0 f   libucrtd:ismbbyte.obj
 0001:000d4020       _ismbblead                 00000001400d5020 f   libucrtd:ismbbyte.obj
 0001:000d4050       _ismbblead_l               00000001400d5050 f   libucrtd:ismbbyte.obj
 0001:000d4080       _ismbbprint                00000001400d5080 f   libucrtd:ismbbyte.obj
 0001:000d40b0       _ismbbprint_l              00000001400d50b0 f   libucrtd:ismbbyte.obj
 0001:000d40e0       _ismbbpunct                00000001400d50e0 f   libucrtd:ismbbyte.obj
 0001:000d4110       _ismbbpunct_l              00000001400d5110 f   libucrtd:ismbbyte.obj
 0001:000d4140       _ismbbtrail                00000001400d5140 f   libucrtd:ismbbyte.obj
 0001:000d4170       _ismbbtrail_l              00000001400d5170 f   libucrtd:ismbbyte.obj
 0001:000d42b0       __acrt_MultiByteToWideChar 00000001400d52b0 f   libucrtd:multibytetowidechar.obj
 0001:000d4420       __acrt_WideCharToMultiByte 00000001400d5420 f   libucrtd:widechartomultibyte.obj
 0001:000d46c0       __dcrt_get_narrow_environment_from_os 00000001400d56c0 f   libucrtd:get_environment_from_os.obj
 0001:000d48f0       __dcrt_get_wide_environment_from_os 00000001400d58f0 f   libucrtd:get_environment_from_os.obj
 0001:000d6130       ??$get_or_create_environment_nolock@$$V@?$__crt_char_traits@D@@SAPEAPEADXZ 00000001400d7130 f i libucrtd:setenv.obj
 0001:000d6140       ??$get_or_create_environment_nolock@$$V@?$__crt_char_traits@_W@@SAPEAPEA_WXZ 00000001400d7140 f i libucrtd:setenv.obj
 0001:000d6150       ??$set_environment_variable@AEBQEADQEAD@?$__crt_char_traits@D@@SAHAEBQEAD$$QEBQEAD@Z 00000001400d7150 f i libucrtd:setenv.obj
 0001:000d6180       ??$set_environment_variable@AEBQEA_WQEA_W@?$__crt_char_traits@_W@@SAHAEBQEA_W$$QEBQEA_W@Z 00000001400d7180 f i libucrtd:setenv.obj
 0001:000d61b0       ??$tcschr@AEBQEADD@?$__crt_char_traits@D@@SAPEADAEBQEAD$$QEAD@Z 00000001400d71b0 f i libucrtd:setenv.obj
 0001:000d61f0       ??$tcschr@AEBQEA_WD@?$__crt_char_traits@_W@@SAPEA_WAEBQEA_W$$QEAD@Z 00000001400d71f0 f i libucrtd:setenv.obj
 0001:000d6230       ??$tcscpy_s@AEAPEADAEB_KAEAPEAD@?$__crt_char_traits@D@@SAHAEAPEADAEB_K0@Z 00000001400d7230 f i libucrtd:setenv.obj
 0001:000d6270       ??$tcscpy_s@AEAPEA_WAEB_KAEAPEA_W@?$__crt_char_traits@_W@@SAHAEAPEA_WAEB_K0@Z 00000001400d7270 f i libucrtd:setenv.obj
 0001:000d62b0       ??$tcscpy_s@AEBQEADAEB_KAEBQEAD@?$__crt_char_traits@D@@SAHAEBQEADAEB_K0@Z 00000001400d72b0 f i libucrtd:setenv.obj
 0001:000d62f0       ??$tcscpy_s@AEBQEA_WAEB_KAEBQEA_W@?$__crt_char_traits@_W@@SAHAEBQEA_WAEB_K0@Z 00000001400d72f0 f i libucrtd:setenv.obj
 0001:000d6330       ??$tcslen@AEBQEAD@?$__crt_char_traits@D@@SA_KAEBQEAD@Z 00000001400d7330 f i libucrtd:setenv.obj
 0001:000d6350       ??$tcslen@AEBQEA_W@?$__crt_char_traits@_W@@SA_KAEBQEA_W@Z 00000001400d7350 f i libucrtd:setenv.obj
 0001:000d6370       ??$tcsnicoll@AEBQEBDAEAPEADAEB_K@?$__crt_char_traits@D@@SAHAEBQEBDAEAPEADAEB_K@Z 00000001400d7370 f i libucrtd:setenv.obj
 0001:000d63b0       ??$tcsnicoll@AEBQEB_WAEAPEA_WAEB_K@?$__crt_char_traits@_W@@SAHAEBQEB_WAEAPEA_WAEB_K@Z 00000001400d73b0 f i libucrtd:setenv.obj
 0001:000d63f0       ??$tcsnlen@PEADH@?$__crt_char_traits@D@@SA_K$$QEAPEAD$$QEAH@Z 00000001400d73f0 f i libucrtd:setenv.obj
 0001:000d6420       ??$tcsnlen@PEA_WH@?$__crt_char_traits@_W@@SA_K$$QEAPEA_W$$QEAH@Z 00000001400d7420 f i libucrtd:setenv.obj
 0001:000d64f0       ?strchr@@YAPEADQEADH@Z     00000001400d74f0 f i libucrtd:setenv.obj
 0001:000d6510       ?wcschr@@YAPEA_WPEA_W_W@Z  00000001400d7510 f i libucrtd:setenv.obj
 0001:000d6540       __dcrt_set_variable_in_narrow_environment_nolock 00000001400d7540 f   libucrtd:setenv.obj
 0001:000d6560       __dcrt_set_variable_in_wide_environment_nolock 00000001400d7560 f   libucrtd:setenv.obj
 0001:000d6580       __acrt_initialize_locks    00000001400d7580 f   libucrtd:locks.obj
 0001:000d65f0       __acrt_lock                00000001400d75f0 f   libucrtd:locks.obj
 0001:000d6620       __acrt_uninitialize_locks  00000001400d7620 f   libucrtd:locks.obj
 0001:000d6680       __acrt_unlock              00000001400d7680 f   libucrtd:locks.obj
 0001:000d66b0       _lock_locales              00000001400d76b0 f   libucrtd:locks.obj
 0001:000d66d0       _unlock_locales            00000001400d76d0 f   libucrtd:locks.obj
 0001:000d66f0       __acrt_app_verifier_enabled 00000001400d76f0 f   libucrtd:peb_access.obj
 0001:000d6730       __acrt_is_secure_process   00000001400d7730 f   libucrtd:peb_access.obj
 0001:000d6b20       __acrt_get_begin_thread_init_policy 00000001400d7b20 f   libucrtd:win_policies.obj
 0001:000d6b30       __acrt_get_developer_information_policy 00000001400d7b30 f   libucrtd:win_policies.obj
 0001:000d6b50       __acrt_get_process_end_policy 00000001400d7b50 f   libucrtd:win_policies.obj
 0001:000d6b60       __acrt_get_windowing_model_policy 00000001400d7b60 f   libucrtd:win_policies.obj
 0001:000d6b80       ??$?RU__crt_lowio_handle_data@@@__crt_internal_free_policy@@QEBAXQEBU__crt_lowio_handle_data@@@Z 00000001400d7b80 f i libucrtd:osfinfo.obj
 0001:000d6bb0       ??0?$__crt_unique_heap_ptr@U__crt_lowio_handle_data@@U__crt_internal_free_policy@@@@QEAA@QEAU__crt_lowio_handle_data@@@Z 00000001400d7bb0 f i libucrtd:osfinfo.obj
 0001:000d6bd0       ??1?$__crt_unique_heap_ptr@U__crt_lowio_handle_data@@U__crt_internal_free_policy@@@@QEAA@XZ 00000001400d7bd0 f i libucrtd:osfinfo.obj
 0001:000d6bf0       ??B?$__crt_unique_heap_ptr@U__crt_lowio_handle_data@@U__crt_internal_free_policy@@@@QEBA_NXZ 00000001400d7bf0 f i libucrtd:osfinfo.obj
 0001:000d6c10       ?detach@?$__crt_unique_heap_ptr@U__crt_lowio_handle_data@@U__crt_internal_free_policy@@@@QEAAPEAU__crt_lowio_handle_data@@XZ 00000001400d7c10 f i libucrtd:osfinfo.obj
 0001:000d6c40       ?get@?$__crt_unique_heap_ptr@U__crt_lowio_handle_data@@U__crt_internal_free_policy@@@@QEBAPEAU__crt_lowio_handle_data@@XZ 00000001400d7c40 f i libucrtd:osfinfo.obj
 0001:000d6c50       ?is_valid@?$__crt_unique_heap_ptr@U__crt_lowio_handle_data@@U__crt_internal_free_policy@@@@QEBA_NXZ 00000001400d7c50 f i libucrtd:osfinfo.obj
 0001:000d6c80       ?release@?$__crt_unique_heap_ptr@U__crt_lowio_handle_data@@U__crt_internal_free_policy@@@@QEAAXXZ 00000001400d7c80 f i libucrtd:osfinfo.obj
 0001:000d6cb0       __acrt_lowio_create_handle_array 00000001400d7cb0 f   libucrtd:osfinfo.obj
 0001:000d6e70       __acrt_lowio_destroy_handle_array 00000001400d7e70 f   libucrtd:osfinfo.obj
 0001:000d6ef0       __acrt_lowio_ensure_fh_exists 00000001400d7ef0 f   libucrtd:osfinfo.obj
 0001:000d7050       __acrt_lowio_lock_fh       00000001400d8050 f   libucrtd:osfinfo.obj
 0001:000d7090       __acrt_lowio_set_os_handle 00000001400d8090 f   libucrtd:osfinfo.obj
 0001:000d71a0       __acrt_lowio_unlock_fh     00000001400d81a0 f   libucrtd:osfinfo.obj
 0001:000d71e0       _alloc_osfhnd              00000001400d81e0 f   libucrtd:osfinfo.obj
 0001:000d73f0       _free_osfhnd               00000001400d83f0 f   libucrtd:osfinfo.obj
 0001:000d7520       _get_osfhandle             00000001400d8520 f   libucrtd:osfinfo.obj
 0001:000d7720       _open_osfhandle            00000001400d8720 f   libucrtd:osfinfo.obj
 0001:000d7940       ?dangerous_get_state_array@?$dual_state_global@H@__crt_state_management@@QEAAPEAHXZ 00000001400d8940 f i libucrtd:txtmode.obj
 0001:000d7950       __acrt_initialize_fmode    00000001400d8950 f   libucrtd:txtmode.obj
 0001:000d79b0       __p__fmode                 00000001400d89b0 f   libucrtd:txtmode.obj
 0001:000d79d0       ??$?RG@__crt_internal_free_policy@@QEBAXQEBG@Z 00000001400d89d0 f i libucrtd:initctype.obj
 0001:000d7a00       ??$?RJ@__crt_internal_free_policy@@QEBAXQEBJ@Z 00000001400d8a00 f i libucrtd:initctype.obj
 0001:000d7a30       ??0?$__crt_unique_heap_ptr@GU__crt_internal_free_policy@@@@QEAA@QEAG@Z 00000001400d8a30 f i libucrtd:initctype.obj
 0001:000d7a50       ??0?$__crt_unique_heap_ptr@JU__crt_internal_free_policy@@@@QEAA@QEAJ@Z 00000001400d8a50 f i libucrtd:initctype.obj
 0001:000d7a70       ??1?$__crt_unique_heap_ptr@GU__crt_internal_free_policy@@@@QEAA@XZ 00000001400d8a70 f i libucrtd:initctype.obj
 0001:000d7a90       ??1?$__crt_unique_heap_ptr@JU__crt_internal_free_policy@@@@QEAA@XZ 00000001400d8a90 f i libucrtd:initctype.obj
 0001:000d7ab0       ?detach@?$__crt_unique_heap_ptr@GU__crt_internal_free_policy@@@@QEAAPEAGXZ 00000001400d8ab0 f i libucrtd:initctype.obj
 0001:000d7ae0       ?detach@?$__crt_unique_heap_ptr@JU__crt_internal_free_policy@@@@QEAAPEAJXZ 00000001400d8ae0 f i libucrtd:initctype.obj
 0001:000d7b10       ?release@?$__crt_unique_heap_ptr@GU__crt_internal_free_policy@@@@QEAAXXZ 00000001400d8b10 f i libucrtd:initctype.obj
 0001:000d7b40       ?release@?$__crt_unique_heap_ptr@JU__crt_internal_free_policy@@@@QEAAXXZ 00000001400d8b40 f i libucrtd:initctype.obj
 0001:000d7b70       ___lc_codepage_func        00000001400d8b70 f   libucrtd:initctype.obj
 0001:000d7bb0       ___lc_collate_cp_func      00000001400d8bb0 f   libucrtd:initctype.obj
 0001:000d7bf0       ___lc_locale_name_func     00000001400d8bf0 f   libucrtd:initctype.obj
 0001:000d7c30       ___mb_cur_max_func         00000001400d8c30 f   libucrtd:initctype.obj
 0001:000d7c70       ___mb_cur_max_l_func       00000001400d8c70 f   libucrtd:initctype.obj
 0001:000d7cb0       __acrt_locale_initialize_ctype 00000001400d8cb0 f   libucrtd:initctype.obj
 0001:000d8760       ??$?RUlconv@@@__crt_internal_free_policy@@QEBAXQEBUlconv@@@Z 00000001400d9760 f i libucrtd:initmon.obj
 0001:000d8790       ??0?$__crt_unique_heap_ptr@Ulconv@@U__crt_internal_free_policy@@@@QEAA@QEAUlconv@@@Z 00000001400d9790 f i libucrtd:initmon.obj
 0001:000d87b0       ??1?$__crt_unique_heap_ptr@Ulconv@@U__crt_internal_free_policy@@@@QEAA@XZ 00000001400d97b0 f i libucrtd:initmon.obj
 0001:000d87d0       ?detach@?$__crt_unique_heap_ptr@Ulconv@@U__crt_internal_free_policy@@@@QEAAPEAUlconv@@XZ 00000001400d97d0 f i libucrtd:initmon.obj
 0001:000d8800       ?release@?$__crt_unique_heap_ptr@Ulconv@@U__crt_internal_free_policy@@@@QEAAXXZ 00000001400d9800 f i libucrtd:initmon.obj
 0001:000d8830       __acrt_locale_free_monetary 00000001400d9830 f   libucrtd:initmon.obj
 0001:000d8a40       __acrt_locale_initialize_monetary 00000001400d9a40 f   libucrtd:initmon.obj
 0001:000d93f0       __acrt_locale_free_numeric 00000001400da3f0 f   libucrtd:initnum.obj
 0001:000d94d0       __acrt_locale_initialize_numeric 00000001400da4d0 f   libucrtd:initnum.obj
 0001:000d9ae0       ??$?RU__crt_lc_time_data@@@__crt_internal_free_policy@@QEBAXQEBU__crt_lc_time_data@@@Z 00000001400daae0 f i libucrtd:inittime.obj
 0001:000d9bd0       ??0?$__crt_unique_heap_ptr@U__crt_lc_time_data@@U__crt_internal_free_policy@@@@QEAA@QEAU__crt_lc_time_data@@@Z 00000001400dabd0 f i libucrtd:inittime.obj
 0001:000d9bf0       ??1?$__crt_unique_heap_ptr@U__crt_lc_time_data@@U__crt_internal_free_policy@@@@QEAA@XZ 00000001400dabf0 f i libucrtd:inittime.obj
 0001:000d9c10       ??B?$__crt_unique_heap_ptr@U__crt_lc_time_data@@U__crt_internal_free_policy@@@@QEBA_NXZ 00000001400dac10 f i libucrtd:inittime.obj
 0001:000d9c30       ?detach@?$__crt_unique_heap_ptr@U__crt_lc_time_data@@U__crt_internal_free_policy@@@@QEAAPEAU__crt_lc_time_data@@XZ 00000001400dac30 f i libucrtd:inittime.obj
 0001:000d9cc0       ?get@?$__crt_unique_heap_ptr@U__crt_lc_time_data@@U__crt_internal_free_policy@@@@QEBAPEAU__crt_lc_time_data@@XZ 00000001400dacc0 f i libucrtd:inittime.obj
 0001:000da330       ?is_valid@?$__crt_unique_heap_ptr@U__crt_lc_time_data@@U__crt_internal_free_policy@@@@QEBA_NXZ 00000001400db330 f i libucrtd:inittime.obj
 0001:000da360       ?release@?$__crt_unique_heap_ptr@U__crt_lc_time_data@@U__crt_internal_free_policy@@@@QEAAXXZ 00000001400db360 f i libucrtd:inittime.obj
 0001:000da390       __acrt_locale_free_time    00000001400db390 f   libucrtd:inittime.obj
 0001:000da500       __acrt_locale_initialize_time 00000001400db500 f   libucrtd:inittime.obj
 0001:000da5a0       __pctype_func              00000001400db5a0 f   libucrtd:ctype.obj
 0001:000da5e0       __pwctype_func             00000001400db5e0 f   libucrtd:ctype.obj
 0001:000da5f0       _chvalidator               00000001400db5f0 f   libucrtd:isctype.obj
 0001:000da660       _chvalidator_l             00000001400db660 f   libucrtd:isctype.obj
 0001:000da710       _isctype                   00000001400db710 f   libucrtd:isctype.obj
 0001:000da760       _isctype_l                 00000001400db760 f   libucrtd:isctype.obj
 0001:000db130       wcsncat_s                  00000001400dc130 f   libucrtd:wcsncat_s.obj
 0001:000db170       wcscmp                     00000001400dc170 f   libucrtd:wcscmp.obj
 0001:000db210       wcscspn                    00000001400dc210 f   libucrtd:wcscspn.obj
 0001:000db2b0       wcspbrk                    00000001400dc2b0 f   libucrtd:wcspbrk.obj
 0001:000db330       ??0?$__crt_scoped_stack_ptr@_W@@QEAA@U?$__crt_scoped_stack_ptr_tag@_W@@@Z 00000001400dc330 f i libucrtd:getstringtypea.obj
 0001:000db350       ??0?$__crt_scoped_stack_ptr_tag@_W@@QEAA@QEA_W@Z 00000001400dc350 f i libucrtd:getstringtypea.obj
 0001:000db370       ??1?$__crt_scoped_stack_ptr@_W@@QEAA@XZ 00000001400dc370 f i libucrtd:getstringtypea.obj
 0001:000db390       ?get@?$__crt_scoped_stack_ptr@_W@@QEBAPEA_WXZ 00000001400dc390 f i libucrtd:getstringtypea.obj
 0001:000db3a0       _MallocaComputeSize        00000001400dc3a0 f i libucrtd:getstringtypea.obj
 0001:000db3e0       _MarkAllocaS               00000001400dc3e0 f i libucrtd:getstringtypea.obj
 0001:000db410       __acrt_GetStringTypeA      00000001400dc410 f   libucrtd:getstringtypea.obj
 0001:000db670       _freea_crt                 00000001400dc670 f i libucrtd:getstringtypea.obj
 0001:000db710       __acrt_add_locale_ref      00000001400dc710 f   libucrtd:locale_refcounting.obj
 0001:000db870       __acrt_free_locale         00000001400dc870 f   libucrtd:locale_refcounting.obj
 0001:000dbbf0       __acrt_locale_add_lc_time_reference 00000001400dcbf0 f   libucrtd:locale_refcounting.obj
 0001:000dbc30       __acrt_locale_free_lc_time_if_unreferenced 00000001400dcc30 f   libucrtd:locale_refcounting.obj
 0001:000dbc90       __acrt_locale_release_lc_time_reference 00000001400dcc90 f   libucrtd:locale_refcounting.obj
 0001:000dbcd0       __acrt_release_locale_ref  00000001400dccd0 f   libucrtd:locale_refcounting.obj
 0001:000dbe40       __acrt_update_thread_locale_data 00000001400dce40 f   libucrtd:locale_refcounting.obj
 0001:000dbee0       _updatetlocinfoEx_nolock   00000001400dcee0 f   libucrtd:locale_refcounting.obj
 0001:000dcc70       __acrt_get_qualified_locale 00000001400ddc70 f   libucrtd:get_qualified_locale.obj
 0001:000ddde0       __acrt_get_qualified_locale_downlevel 00000001400dede0 f   libucrtd:getqloc_downlevel.obj
 0001:000de150       localeconv                 00000001400df150 f   libucrtd:localeconv.obj
 0001:000de190       __acrt_getheap             00000001400df190 f   libucrtd:heap_handle.obj
 0001:000de1f0       __acrt_initialize_heap     00000001400df1f0 f   libucrtd:heap_handle.obj
 0001:000de220       __acrt_uninitialize_heap   00000001400df220 f   libucrtd:heap_handle.obj
 0001:000de240       _get_heap_handle           00000001400df240 f   libucrtd:heap_handle.obj
 0001:000de2a0       __acrt_execute_initializers 00000001400df2a0 f   libucrtd:shared_initialization.obj
 0001:000de3a0       __acrt_execute_uninitializers 00000001400df3a0 f   libucrtd:shared_initialization.obj
 0001:000de430       ??$?B$$A6AH_K@Z@__crt_fast_encoded_nullptr_t@@QEBAP6AH_K@ZXZ 00000001400df430 f i libucrtd:new_handler.obj
 0001:000de450       ??$__crt_fast_decode_pointer@P6AH_K@Z@@YAP6AH_K@ZQ6AH0@Z@Z 00000001400df450 f i libucrtd:new_handler.obj
 0001:000de490       ??$__crt_fast_encode_pointer@P6AH_K@Z@@YAP6AH_K@ZQ6AH0@Z@Z 00000001400df490 f i libucrtd:new_handler.obj
 0001:000de4d0       ?_set_new_handler@@YAP6AH_K@ZH@Z 00000001400df4d0 f   libucrtd:new_handler.obj
 0001:000de540       ?initialize@?$dual_state_global@P6AH_K@Z@__crt_state_management@@QEAAXQ6AH_K@Z@Z 00000001400df540 f i libucrtd:new_handler.obj
 0001:000de590       ?value@?$dual_state_global@P6AH_K@Z@__crt_state_management@@QEAAAEAP6AH_K@ZXZ 00000001400df590 f i libucrtd:new_handler.obj
 0001:000de5b0       __acrt_initialize_new_handler 00000001400df5b0 f   libucrtd:new_handler.obj
 0001:000de5d0       _callnewh                  00000001400df5d0 f   libucrtd:new_handler.obj
 0001:000de630       _query_new_handler         00000001400df630 f   libucrtd:new_handler.obj
 0001:000de670       _set_new_handler           00000001400df670 f   libucrtd:new_handler.obj
 0001:000de6e0       ??$?B$$A6AXH@Z@__crt_fast_encoded_nullptr_t@@QEBAP6AXH@ZXZ 00000001400df6e0 f i libucrtd:signal.obj
 0001:000de7b0       ??$__crt_fast_decode_pointer@P6AXH@Z@@YAP6AXH@ZQ6AXH@Z@Z 00000001400df7b0 f i libucrtd:signal.obj
 0001:000de7f0       ??$__crt_fast_encode_pointer@P6AXH@Z@@YAP6AXH@ZQ6AXH@Z@Z 00000001400df7f0 f i libucrtd:signal.obj
 0001:000dea80       ?initialize@?$dual_state_global@P6AXH@Z@__crt_state_management@@QEAAXQ6AXH@Z@Z 00000001400dfa80 f i libucrtd:signal.obj
 0001:000dec00       ?value@?$dual_state_global@P6AXH@Z@__crt_state_management@@QEAAAEAP6AXH@ZXZ 00000001400dfc00 f i libucrtd:signal.obj
 0001:000dec20       __acrt_get_sigabrt_handler 00000001400dfc20 f   libucrtd:signal.obj
 0001:000dec50       __acrt_initialize_signal_handlers 00000001400dfc50 f   libucrtd:signal.obj
 0001:000decb0       __fpecode                  00000001400dfcb0 f   libucrtd:signal.obj
 0001:000decd0       __pxcptinfoptrs            00000001400dfcd0 f   libucrtd:signal.obj
 0001:000decf0       raise                      00000001400dfcf0 f   libucrtd:signal.obj
 0001:000df200       signal                     00000001400e0200 f   libucrtd:signal.obj
 0001:000df4e0       _free_base                 00000001400e04e0 f   libucrtd:free_base.obj
 0001:000df540       _realloc_base              00000001400e0540 f   libucrtd:realloc_base.obj
 0001:000df660       _expand                    00000001400e0660 f   libucrtd:expand.obj
 0001:000df6a0       _expand_base               00000001400e06a0 f   libucrtd:expand.obj
 0001:000df830       _CrtDefaultAllocHook       00000001400e0830 f   libucrtd:debug_heap_hook.obj
 0001:000df850       _CrtGetReportHook          00000001400e0850 f   libucrtd:dbgrptt.obj
 0001:000df860       _CrtSetReportFile          00000001400e0860 f   libucrtd:dbgrptt.obj
 0001:000df9c0       _CrtSetReportHook          00000001400e09c0 f   libucrtd:dbgrptt.obj
 0001:000df9f0       _CrtSetReportMode          00000001400e09f0 f   libucrtd:dbgrptt.obj
 0001:000dfba0       _VCrtDbgReportA            00000001400e0ba0 f   libucrtd:dbgrptt.obj
 0001:000e05e0       _VCrtDbgReportW            00000001400e15e0 f   libucrtd:dbgrptt.obj
 0001:000e11f0       _snprintf_s                00000001400e21f0 f i libucrtd:dbgrptt.obj
 0001:000e1260       _vsnprintf_s               00000001400e2260 f i libucrtd:dbgrptt.obj
 0001:000e12b0       _vsnprintf_s_l             00000001400e22b0 f i libucrtd:dbgrptt.obj
 0001:000e1330       _iswctype_l                00000001400e2330 f   libucrtd:iswctype.obj
 0001:000e1360       iswctype                   00000001400e2360 f   libucrtd:iswctype.obj
 0001:000e1530       __acrt_DownlevelLCIDToLocaleName 00000001400e2530 f   libucrtd:lcidtoname_downlevel.obj
 0001:000e1630       __acrt_DownlevelLocaleNameToLCID 00000001400e2630 f   libucrtd:lcidtoname_downlevel.obj
 0001:000e19a0       _fclose_nolock             00000001400e29a0 f   libucrtd:fclose.obj
 0001:000e19e0       fclose                     00000001400e29e0 f   libucrtd:fclose.obj
 0001:000e1c40       _commit                    00000001400e2c40 f   libucrtd:commit.obj
 0001:000e3630       _utf8_no_of_trailbytes     00000001400e4630 f i libucrtd:write.obj
 0001:000e3650       _write                     00000001400e4650 f   libucrtd:write.obj
 0001:000e36b0       _write_internal            00000001400e46b0 f   libucrtd:write.obj
 0001:000e3a50       _write_nolock              00000001400e4a50 f   libucrtd:write.obj
 0001:000e42e0       __acrt_fp_strflt_to_string 00000001400e52e0 f   libucrtd:_fptostr.obj
 0001:000e4ea0       ??0big_integer@__crt_strtox@@QEAA@AEBU01@@Z 00000001400e5ea0 f i libucrtd:cfout.obj
 0001:000e4f00       ??0big_integer@__crt_strtox@@QEAA@XZ 00000001400e5f00 f i libucrtd:cfout.obj
 0001:000e5050       ??4big_integer@__crt_strtox@@QEAAAEAU01@AEBU01@@Z 00000001400e6050 f i libucrtd:cfout.obj
 0001:000e50b0       ??8__crt_strtox@@YA_NAEBUbig_integer@0@0@Z 00000001400e60b0 f i libucrtd:cfout.obj
 0001:000e5120       ??9__crt_strtox@@YA_NAEBUbig_integer@0@0@Z 00000001400e6120 f i libucrtd:cfout.obj
 0001:000e5160       ?add_carry@__crt_strtox@@YAIAEAIII@Z 00000001400e6160 f i libucrtd:cfout.obj
 0001:000e51b0       ?add_multiply_carry@__crt_strtox@@YAIAEAIIII@Z 00000001400e61b0 f i libucrtd:cfout.obj
 0001:000e5210       ?bit_scan_reverse@__crt_strtox@@YAII@Z 00000001400e6210 f i libucrtd:cfout.obj
 0001:000e5250       ?count_sequential_high_zeroes@__crt_strtox@@YAII@Z 00000001400e6250 f i libucrtd:cfout.obj
 0001:000e5290       ?divide@__crt_strtox@@YA_KAEAUbig_integer@1@AEBU21@@Z 00000001400e6290 f i libucrtd:cfout.obj
 0001:000e5c60       ?is_zero@__crt_strtox@@YA_NAEBUbig_integer@1@@Z 00000001400e6c60 f i libucrtd:cfout.obj
 0001:000e5c90       ?make_big_integer@__crt_strtox@@YA?AUbig_integer@1@_K@Z 00000001400e6c90 f i libucrtd:cfout.obj
 0001:000e5d60       ?make_big_integer_power_of_two@__crt_strtox@@YA?AUbig_integer@1@I@Z 00000001400e6d60 f i libucrtd:cfout.obj
 0001:000e5e30       ?multiply@__crt_strtox@@YA_NAEAUbig_integer@1@AEBU21@@Z 00000001400e6e30 f i libucrtd:cfout.obj
 0001:000e61b0       ?multiply@__crt_strtox@@YA_NAEAUbig_integer@1@I@Z 00000001400e71b0 f i libucrtd:cfout.obj
 0001:000e62d0       ?multiply_64_32@__crt_strtox@@YA_K_KI@Z 00000001400e72d0 f i libucrtd:cfout.obj
 0001:000e62f0       ?multiply_by_power_of_ten@__crt_strtox@@YA_NAEAUbig_integer@1@I@Z 00000001400e72f0 f i libucrtd:cfout.obj
 0001:000e64a0       ?multiply_core@__crt_strtox@@YAIQEAIII@Z 00000001400e74a0 f i libucrtd:cfout.obj
 0001:000e6520       ?shift_left@__crt_strtox@@YA_NAEAUbig_integer@1@I@Z 00000001400e7520 f i libucrtd:cfout.obj
 0001:000e6800       __acrt_fltout              00000001400e7800 f   libucrtd:cfout.obj
 0001:000e6d20       __fpe_flt_rounds           00000001400e7d20 f   libucrtd:fegetround.obj
 0001:000e6d80       fegetround                 00000001400e7d80 f   libucrtd:fegetround.obj
 0001:000e6da0       ?__c32rtomb_utf8@__crt_mbstring@@YA_KPEAD_UPEAU_Mbstatet@@AEAV__crt_cached_ptd_host@@@Z 00000001400e7da0 f   libucrtd:c32rtomb.obj
 0001:000e7040       c32rtomb                   00000001400e8040 f   libucrtd:c32rtomb.obj
 0001:000e7110       ?__mbrtowc_utf8@__crt_mbstring@@YA_KPEA_WPEBD_KPEAU_Mbstatet@@AEAV__crt_cached_ptd_host@@@Z 00000001400e8110 f   libucrtd:mbrtowc.obj
 0001:000e7190       ?__mbsrtowcs_utf8@__crt_mbstring@@YA_KPEA_WPEAPEBD_KPEAU_Mbstatet@@AEAV__crt_cached_ptd_host@@@Z 00000001400e8190 f   libucrtd:mbrtowc.obj
 0001:000e8360       btowc                      00000001400e9360 f   libucrtd:mbrtowc.obj
 0001:000e8430       mbrlen                     00000001400e9430 f   libucrtd:mbrtowc.obj
 0001:000e84e0       mbrtowc                    00000001400e94e0 f   libucrtd:mbrtowc.obj
 0001:000e85f0       mbsrtowcs                  00000001400e95f0 f   libucrtd:mbrtowc.obj
 0001:000e8670       mbsrtowcs_s                00000001400e9670 f   libucrtd:mbrtowc.obj
 0001:000e9120       ?has_big_buffer@__crt_stdio_stream@@QEBA_NXZ 00000001400ea120 f i libucrtd:_flsbuf.obj
 0001:000e9240       __acrt_stdio_flush_and_write_narrow_nolock 00000001400ea240 f   libucrtd:_flsbuf.obj
 0001:000e9280       __acrt_stdio_flush_and_write_wide_nolock 00000001400ea280 f   libucrtd:_flsbuf.obj
 0001:000e92c0       _isatty                    00000001400ea2c0 f   libucrtd:isatty.obj
 0001:000e93d0       __acrt_OutputDebugStringA  00000001400ea3d0 f   libucrtd:outputdebugstringa.obj
 0001:000e9620       qsort                      00000001400ea620 f   libucrtd:qsort.obj
 0001:000ea490       strncpy_s                  00000001400eb490 f   libucrtd:strncpy_s.obj
 0001:000ea600       strpbrk                    00000001400eb600 f   libucrtd:strpbrk.obj
 0001:000eaef0       _mbsdec                    00000001400ebef0 f   libucrtd:mbsdec.obj
 0001:000eaf20       _mbsdec_l                  00000001400ebf20 f   libucrtd:mbsdec.obj
 0001:000eb1b0       ??B?$__crt_scoped_stack_ptr@_W@@QEBA_NXZ 00000001400ec1b0 f i libucrtd:lcmapstringa.obj
 0001:000eb7e0       __acrt_LCMapStringA        00000001400ec7e0 f   libucrtd:lcmapstringa.obj
 0001:000eb8c0       _wcsnicoll                 00000001400ec8c0 f   libucrtd:wcsnicol.obj
 0001:000ebb10       _wcsnicoll_l               00000001400ecb10 f   libucrtd:wcsnicol.obj
 0001:000ebe50       _strnicoll                 00000001400ece50 f   libucrtd:strnicol.obj
 0001:000ebeb0       _strnicoll_l               00000001400eceb0 f   libucrtd:strnicol.obj
 0001:000ec2b0       __acrt_SetEnvironmentVariableA 00000001400ed2b0 f   libucrtd:setenvironmentvariablea.obj
 0001:000ec5e0       __acrt_GetLocaleInfoA      00000001400ed5e0 f   libucrtd:getlocaleinfoa.obj
 0001:000ee280       _i64toa                    00000001400ef280 f   libucrtd:xtoa.obj
 0001:000ee2f0       _i64toa_s                  00000001400ef2f0 f   libucrtd:xtoa.obj
 0001:000ee360       _i64tow                    00000001400ef360 f   libucrtd:xtoa.obj
 0001:000ee3d0       _i64tow_s                  00000001400ef3d0 f   libucrtd:xtoa.obj
 0001:000ee440       _itoa                      00000001400ef440 f   libucrtd:xtoa.obj
 0001:000ee4b0       _itoa_s                    00000001400ef4b0 f   libucrtd:xtoa.obj
 0001:000ee510       _itow                      00000001400ef510 f   libucrtd:xtoa.obj
 0001:000ee580       _itow_s                    00000001400ef580 f   libucrtd:xtoa.obj
 0001:000ee5e0       _ltoa                      00000001400ef5e0 f   libucrtd:xtoa.obj
 0001:000ee650       _ltoa_s                    00000001400ef650 f   libucrtd:xtoa.obj
 0001:000ee6b0       _ltow                      00000001400ef6b0 f   libucrtd:xtoa.obj
 0001:000ee720       _ltow_s                    00000001400ef720 f   libucrtd:xtoa.obj
 0001:000ee780       _ui64toa                   00000001400ef780 f   libucrtd:xtoa.obj
 0001:000ee7c0       _ui64toa_s                 00000001400ef7c0 f   libucrtd:xtoa.obj
 0001:000ee800       _ui64tow                   00000001400ef800 f   libucrtd:xtoa.obj
 0001:000ee840       _ui64tow_s                 00000001400ef840 f   libucrtd:xtoa.obj
 0001:000ee880       _ultoa                     00000001400ef880 f   libucrtd:xtoa.obj
 0001:000ee8c0       _ultoa_s                   00000001400ef8c0 f   libucrtd:xtoa.obj
 0001:000ee900       _ultow                     00000001400ef900 f   libucrtd:xtoa.obj
 0001:000ee940       _ultow_s                   00000001400ef940 f   libucrtd:xtoa.obj
 0001:000ee980       __ascii_wcsicmp            00000001400ef980 f   libucrtd:wcsicmp.obj
 0001:000eea20       _towlower_fast_internal    00000001400efa20 f i libucrtd:wcsicmp.obj
 0001:000eea70       _towlower_internal         00000001400efa70 f i libucrtd:wcsicmp.obj
 0001:000eeab0       _wcsicmp                   00000001400efab0 f   libucrtd:wcsicmp.obj
 0001:000eec50       _wcsicmp_l                 00000001400efc50 f   libucrtd:wcsicmp.obj
 0001:000eef30       __ascii_wcsnicmp           00000001400eff30 f   libucrtd:wcsnicmp.obj
 0001:000ef000       _wcsnicmp                  00000001400f0000 f   libucrtd:wcsnicmp.obj
 0001:000ef1b0       _wcsnicmp_l                00000001400f01b0 f   libucrtd:wcsnicmp.obj
 0001:000ef4d0       _malloc_base               00000001400f04d0 f   libucrtd:malloc_base.obj
 0001:000f0080       _mbstowcs_l                00000001400f1080 f   libucrtd:mbstowcs.obj
 0001:000f00f0       _mbstowcs_s_l              00000001400f10f0 f   libucrtd:mbstowcs.obj
 0001:000f0180       mbstowcs                   00000001400f1180 f   libucrtd:mbstowcs.obj
 0001:000f01e0       mbstowcs_s                 00000001400f11e0 f   libucrtd:mbstowcs.obj
 0001:000f1050       _wcstombs_l                00000001400f2050 f   libucrtd:wcstombs.obj
 0001:000f10c0       _wcstombs_s_l              00000001400f20c0 f   libucrtd:wcstombs.obj
 0001:000f1150       wcstombs                   00000001400f2150 f   libucrtd:wcstombs.obj
 0001:000f11b0       wcstombs_s                 00000001400f21b0 f   libucrtd:wcstombs.obj
 0001:000f18a0       strcat_s                   00000001400f28a0 f   libucrtd:strcat_s.obj
 0001:000f18d0       __acrt_GetStringTypeW      00000001400f28d0 f   libucrtd:getstringtypew.obj
 0001:000f1c20       _close                     00000001400f2c20 f   libucrtd:close.obj
 0001:000f1c60       _close_internal            00000001400f2c60 f   libucrtd:close.obj
 0001:000f1f20       _close_nolock              00000001400f2f20 f   libucrtd:close.obj
 0001:000f1f60       _close_nolock_internal     00000001400f2f60 f   libucrtd:close.obj
 0001:000f1fd0       ??$?RU__crt_stdio_stream_data@@@__crt_internal_free_policy@@QEBAXQEBU__crt_stdio_stream_data@@@Z 00000001400f2fd0 f i libucrtd:stream.obj
 0001:000f2000       ??0?$__crt_unique_heap_ptr@U__crt_stdio_stream_data@@U__crt_internal_free_policy@@@@QEAA@QEAU__crt_stdio_stream_data@@@Z 00000001400f3000 f i libucrtd:stream.obj
 0001:000f2020       ??0__crt_stdio_stream@@QEAA@XZ 00000001400f3020 f i libucrtd:stream.obj
 0001:000f2040       ??1?$__crt_unique_heap_ptr@U__crt_stdio_stream_data@@U__crt_internal_free_policy@@@@QEAA@XZ 00000001400f3040 f i libucrtd:stream.obj
 0001:000f2060       ?__acrt_stdio_allocate_stream@@YA?AV__crt_stdio_stream@@XZ 00000001400f3060 f   libucrtd:stream.obj
 0001:000f2120       ?__acrt_stdio_free_stream@@YAXV__crt_stdio_stream@@@Z 00000001400f3120 f   libucrtd:stream.obj
 0001:000f21c0       ?deallocate@__crt_stdio_stream@@QEAAXXZ 00000001400f31c0 f i libucrtd:stream.obj
 0001:000f21e0       ?detach@?$__crt_unique_heap_ptr@U__crt_stdio_stream_data@@U__crt_internal_free_policy@@@@QEAAPEAU__crt_stdio_stream_data@@XZ 00000001400f31e0 f i libucrtd:stream.obj
 0001:000f23c0       ?lock@__crt_stdio_stream@@QEBAXXZ 00000001400f33c0 f i libucrtd:stream.obj
 0001:000f23e0       ?release@?$__crt_unique_heap_ptr@U__crt_stdio_stream_data@@U__crt_internal_free_policy@@@@QEAAXXZ 00000001400f33e0 f i libucrtd:stream.obj
 0001:000f2410       ?try_allocate@__crt_stdio_stream@@QEAA_NXZ 00000001400f3410 f i libucrtd:stream.obj
 0001:000f2480       ?unlock@__crt_stdio_stream@@QEBAXXZ 00000001400f3480 f i libucrtd:stream.obj
 0001:000f2fd0       _lseek                     00000001400f3fd0 f   libucrtd:lseek.obj
 0001:000f3030       _lseek_internal            00000001400f4030 f   libucrtd:lseek.obj
 0001:000f3070       _lseek_nolock              00000001400f4070 f   libucrtd:lseek.obj
 0001:000f30d0       _lseek_nolock_internal     00000001400f40d0 f   libucrtd:lseek.obj
 0001:000f3110       _lseeki64                  00000001400f4110 f   libucrtd:lseek.obj
 0001:000f3170       _lseeki64_internal         00000001400f4170 f   libucrtd:lseek.obj
 0001:000f31b0       _lseeki64_nolock           00000001400f41b0 f   libucrtd:lseek.obj
 0001:000f3210       _lseeki64_nolock_internal  00000001400f4210 f   libucrtd:lseek.obj
 0001:000f33c0       _putwch                    00000001400f43c0 f   libucrtd:putwch.obj
 0001:000f33f0       _putwch_nolock             00000001400f43f0 f   libucrtd:putwch.obj
 0001:000f3440       _putwch_nolock_internal    00000001400f4440 f   libucrtd:putwch.obj
 0001:000f4320       _read                      00000001400f5320 f   libucrtd:read.obj
 0001:000f4670       _read_nolock               00000001400f5670 f   libucrtd:read.obj
 0001:000f5430       log10                      00000001400f6430 f   libucrtd:log10.obj
 0001:000f59e0       ceil                       00000001400f69e0 f   libucrtd:ceil.obj
 0001:000f5bb0       _controlfp_s               00000001400f6bb0 f   libucrtd:contrlfp.obj
 0001:000f5ce0       fegetenv                   00000001400f6ce0 f   libucrtd:fegetenv.obj
 0001:000f5d10       fesetenv                   00000001400f6d10 f   libucrtd:fesetenv.obj
 0001:000f5d90       feholdexcept               00000001400f6d90 f   libucrtd:feholdexcept.obj
 0001:000f5e00       ??$__acrt_fenv_shift_bits@W4__acrt_fenv_abstract_control@@@@YA?AW4__acrt_fenv_abstract_control@@W40@0I@Z 00000001400f6e00 f i libucrtd:_fenvutils.obj
 0001:000f5e30       ??$__acrt_fenv_shift_bits@W4__acrt_fenv_abstract_status@@@@YA?AW4__acrt_fenv_abstract_status@@W40@0I@Z 00000001400f6e30 f i libucrtd:_fenvutils.obj
 0001:000f5e60       ??$__acrt_fenv_translate_bit@W4__acrt_fenv_abstract_control@@W4__acrt_fenv_machine_sse_control@@@@YA?AW4__acrt_fenv_abstract_control@@W4__acrt_fenv_machine_sse_control@@0W40@1@Z 00000001400f6e60 f i libucrtd:_fenvutils.obj
